 main

 Timestamp is 5ee37d67 (Fri Jun 12 06:04:39 2020)

 Preferred load address is 0000000140000000

 Start         Length     Name                   Class
 0001:00000000 00000050H .text$di                CODE
 0001:00000050 00078610H .text$mn                CODE
 0001:00078660 00000020H .text$mn$00             CODE
 0001:00078680 000007b0H .text$x                 CODE
 0001:00078e30 00000073H .text$yd                CODE
 0002:00000000 00000870H .idata$5                DATA
 0002:00000870 00000028H .00cfg                  DATA
 0002:00000898 00000008H .CRT$XCA                DATA
 0002:000008a0 00000008H .CRT$XCAA               DATA
 0002:000008a8 00000008H .CRT$XCL                DATA
 0002:000008b0 00000010H .CRT$XCU                DATA
 0002:000008c0 00000008H .CRT$XCZ                DATA
 0002:000008c8 00000008H .CRT$XIA                DATA
 0002:000008d0 00000008H .CRT$XIAA               DATA
 0002:000008d8 00000008H .CRT$XIAC               DATA
 0002:000008e0 00000008H .CRT$XIZ                DATA
 0002:000008e8 00000008H .CRT$XLA                DATA
 0002:000008f0 00000008H .CRT$XLZ                DATA
 0002:000008f8 00000008H .CRT$XPA                DATA
 0002:00000900 00000008H .CRT$XPZ                DATA
 0002:00000908 00000008H .CRT$XTA                DATA
 0002:00000910 00000010H .CRT$XTZ                DATA
 0002:00000918 00000000H .gfids$y                DATA
 0002:00000920 00005000H .rdata                  DATA
 0002:00005920 00000028H .rdata$T                DATA
 0002:00005948 000001f4H .rdata$r                DATA
 0002:00005b3c 00000394H .rdata$zzzdbg           DATA
 0002:00005ed0 00000008H .rtc$IAA                DATA
 0002:00005ed8 00000000H .rtc$IMZ                DATA
 0002:00005ed8 00000008H .rtc$IZZ                DATA
 0002:00005ee0 00000008H .rtc$TAA                DATA
 0002:00005ee8 00000000H .rtc$TMZ                DATA
 0002:00005ee8 00000008H .rtc$TZZ                DATA
 0002:00005ef0 00000008H .tls                    DATA
 0002:00005ef8 00000010H .tls$                   DATA
 0002:00005f08 00000008H .tls$ZZZ                DATA
 0002:00005f10 00002578H .xdata                  DATA
 0002:00008488 0000014cH .xdata$x                DATA
 0002:000085d4 00000000H .edata                  DATA
 0002:000085d4 00000154H .idata$2                DATA
 0002:00008728 00000018H .idata$3                DATA
 0002:00008740 00000870H .idata$4                DATA
 0002:00008fb0 00001a58H .idata$6                DATA
 0003:00000000 00019118H .data                   DATA
 0003:00019118 000000c8H .data$r                 DATA
 0003:000191e0 00006158H .bss                    DATA
 0004:00000000 00003984H .pdata                  DATA

  Address         Publics by Value              Rva+Base               Lib:Object

 0000:00000000       ___safe_se_handler_table   0000000000000000     <absolute>
 0000:00000000       __guard_iat_count          0000000000000000     <absolute>
 0000:00000000       __hybrid_code_map_count    0000000000000000     <absolute>
 0000:00000000       __guard_fids_count         0000000000000000     <absolute>
 0000:00000000       __guard_eh_cont_count      0000000000000000     <absolute>
 0000:00000000       __AbsoluteZero             0000000000000000     <absolute>
 0000:00000000       __guard_fids_table         0000000000000000     <absolute>
 0000:00000000       __volatile_metadata        0000000000000000     <absolute>
 0000:00000000       __hybrid_code_map          0000000000000000     <absolute>
 0000:00000000       __guard_eh_cont_table      0000000000000000     <absolute>
 0000:00000000       __guard_longjmp_count      0000000000000000     <absolute>
 0000:00000000       ___safe_se_handler_count   0000000000000000     <absolute>
 0000:00000000       __guard_longjmp_table      0000000000000000     <absolute>
 0000:00000000       __hybrid_auxiliary_iat     0000000000000000     <absolute>
 0000:00000000       __guard_iat_table          0000000000000000     <absolute>
 0000:00000000       __dynamic_value_reloc_table 0000000000000000     <absolute>
 0000:00000000       __enclave_config           0000000000000000     <absolute>
 0000:00000100       __guard_flags              0000000000000100     <absolute>
 0000:00000000       __ImageBase                0000000140000000     <linker-defined>
 0001:00000050       main                       0000000140001050 f   main.obj
 0001:00000170       ??$?0$$V@?$_Compressed_pair@V?$allocator@I@std@@V?$_Vector_val@U?$_Simple_types@I@std@@@2@$00@std@@QEAA@U_Zero_then_variadic_args_t@1@@Z 0000000140001170 f i objloader.obj
 0001:00000170       ??$?0$$V@?$_Compressed_pair@V?$allocator@G@std@@V?$_Vector_val@U?$_Simple_types@G@std@@@2@$00@std@@QEAA@U_Zero_then_variadic_args_t@1@@Z 0000000140001170 f i winplatform.obj
 0001:00000170       ??$?0$$V@?$_Compressed_pair@V?$allocator@U?$tvec2@M$0A@@glm@@@std@@V?$_Vector_val@U?$_Simple_types@U?$tvec2@M$0A@@glm@@@std@@@2@$00@std@@QEAA@U_Zero_then_variadic_args_t@1@@Z 0000000140001170 f i objloader.obj
 0001:00000170       ??$?0$$V@?$_Compressed_pair@V?$allocator@UPlaneStats@@@std@@V?$_Vector_val@U?$_Simple_types@UPlaneStats@@@std@@@2@$00@std@@QEAA@U_Zero_then_variadic_args_t@1@@Z 0000000140001170 f i main.obj
 0001:00000170       ??$?0$$V@?$_Compressed_pair@V?$allocator@U?$tvec3@M$0A@@glm@@@std@@V?$_Vector_val@U?$_Simple_types@U?$tvec3@M$0A@@glm@@@std@@@2@$00@std@@QEAA@U_Zero_then_variadic_args_t@1@@Z 0000000140001170 f i objloader.obj
 0001:00000170       ??$?0$$V@?$_Compressed_pair@V?$allocator@UAirportObject@@@std@@V?$_Vector_val@U?$_Simple_types@UAirportObject@@@std@@@2@$00@std@@QEAA@U_Zero_then_variadic_args_t@1@@Z 0000000140001170 f i main.obj
 0001:00000170       ??$?0$$V@?$_Compressed_pair@V?$allocator@UPlaneObject@@@std@@V?$_Vector_val@U?$_Simple_types@UPlaneObject@@@std@@@2@$00@std@@QEAA@U_Zero_then_variadic_args_t@1@@Z 0000000140001170 f i main.obj
 0001:000001a0       ??$_Deallocate@$0BA@$0A@@std@@YAXPEAX_K@Z 00000001400011a0 f i main.obj
 0001:000001e0       ?_Orphan_range@?$vector@U?$tvec2@M$0A@@glm@@V?$allocator@U?$tvec2@M$0A@@glm@@@std@@@std@@AEBAXPEAU?$tvec2@M$0A@@glm@@0@Z 00000001400011e0 f i objloader.obj
 0001:000001e0       ??$_Destroy_range@V?$allocator@UPlaneStats@@@std@@@std@@YAXPEAUPlaneStats@@QEAU1@AEAV?$allocator@UPlaneStats@@@0@@Z 00000001400011e0 f i main.obj
 0001:000001e0       ?_Orphan_range@?$vector@UPlaneStats@@V?$allocator@UPlaneStats@@@std@@@std@@AEBAXPEAUPlaneStats@@0@Z 00000001400011e0 f i world.obj
 0001:000001e0       ?_Orphan_range@?$vector@U?$tvec3@M$0A@@glm@@V?$allocator@U?$tvec3@M$0A@@glm@@@std@@@std@@AEBAXPEAU?$tvec3@M$0A@@glm@@0@Z 00000001400011e0 f i objloader.obj
 0001:000001e0       ?_Orphan_range@?$vector@UAirportObject@@V?$allocator@UAirportObject@@@std@@@std@@AEBAXPEAUAirportObject@@0@Z 00000001400011e0 f i world.obj
 0001:000001e0       ??$_Destroy_range@V?$allocator@U?$tvec2@M$0A@@glm@@@std@@@std@@YAXPEAU?$tvec2@M$0A@@glm@@QEAU12@AEAV?$allocator@U?$tvec2@M$0A@@glm@@@0@@Z 00000001400011e0 f i objloader.obj
 0001:000001e0       ??$_Destroy_range@V?$allocator@UAirportObject@@@std@@@std@@YAXPEAUAirportObject@@QEAU1@AEAV?$allocator@UAirportObject@@@0@@Z 00000001400011e0 f i main.obj
 0001:000001e0       ??$_Destroy_range@V?$allocator@UPlaneObject@@@std@@@std@@YAXPEAUPlaneObject@@QEAU1@AEAV?$allocator@UPlaneObject@@@0@@Z 00000001400011e0 f i main.obj
 0001:000001e0       ?_Orphan_range@?$vector@IV?$allocator@I@std@@@std@@AEBAXPEAI0@Z 00000001400011e0 f i objloader.obj
 0001:000001e0       ?_Orphan_range@?$vector@GV?$allocator@G@std@@@std@@AEBAXPEAG0@Z 00000001400011e0 f i vboindexer.obj
 0001:000001e0       ??$_Destroy_range@V?$allocator@G@std@@@std@@YAXPEAGQEAGAEAV?$allocator@G@0@@Z 00000001400011e0 f i vboindexer.obj
 0001:000001e0       ??$_Destroy_range@V?$allocator@D@std@@@std@@YAXPEADQEADAEAV?$allocator@D@0@@Z 00000001400011e0 f i shader.obj
 0001:000001e0       ?_Orphan_range@?$vector@UPlaneObject@@V?$allocator@UPlaneObject@@@std@@@std@@AEBAXPEAUPlaneObject@@0@Z 00000001400011e0 f i world.obj
 0001:000001e0       ??$_Destroy_range@V?$allocator@U?$tvec3@M$0A@@glm@@@std@@@std@@YAXPEAU?$tvec3@M$0A@@glm@@QEAU12@AEAV?$allocator@U?$tvec3@M$0A@@glm@@@0@@Z 00000001400011e0 f i objloader.obj
 0001:000001e0       ??$_Destroy_range@V?$allocator@I@std@@@std@@YAXPEAIQEAIAEAV?$allocator@I@0@@Z 00000001400011e0 f i objloader.obj
 0001:000001f0       ??0?$_Vector_val@U?$_Simple_types@I@std@@@std@@QEAA@XZ 00000001400011f0 f i objloader.obj
 0001:000001f0       ??0?$_Vector_val@U?$_Simple_types@U?$tvec2@M$0A@@glm@@@std@@@std@@QEAA@XZ 00000001400011f0 f i objloader.obj
 0001:000001f0       ??0?$_Vector_val@U?$_Simple_types@D@std@@@std@@QEAA@XZ 00000001400011f0 f i shader.obj
 0001:000001f0       ??0?$_Vector_val@U?$_Simple_types@U?$tvec3@M$0A@@glm@@@std@@@std@@QEAA@XZ 00000001400011f0 f i objloader.obj
 0001:000001f0       ??0?$_Vector_val@U?$_Simple_types@G@std@@@std@@QEAA@XZ 00000001400011f0 f i winplatform.obj
 0001:000001f0       ??0?$_Vector_val@U?$_Simple_types@UPlaneObject@@@std@@@std@@QEAA@XZ 00000001400011f0 f i main.obj
 0001:000001f0       ??0?$_Vector_val@U?$_Simple_types@UPlaneStats@@@std@@@std@@QEAA@XZ 00000001400011f0 f i main.obj
 0001:000001f0       ??0?$_Vector_val@U?$_Simple_types@UAirportObject@@@std@@@std@@QEAA@XZ 00000001400011f0 f i main.obj
 0001:00000230       ?_Get_first@?$_Compressed_pair@V?$allocator@D@std@@V?$_Vector_val@U?$_Simple_types@D@std@@@2@$00@std@@QEBAAEBV?$allocator@D@2@XZ 0000000140001230 f i shader.obj
 0001:00000230       ??$_Unfancy@UAirportObject@@@std@@YAPEAUAirportObject@@PEAU1@@Z 0000000140001230 f i world.obj
 0001:00000230       ??$addressof@$$CBV?$codecvt@DDU_Mbstatet@@@std@@@std@@YAPEBV?$codecvt@DDU_Mbstatet@@@0@AEBV10@@Z 0000000140001230 f i shader.obj
 0001:00000230       ??$addressof@U?$pair@$$CBUPackedVertex@@G@std@@@std@@YAPEAU?$pair@$$CBUPackedVertex@@G@0@AEAU10@@Z 0000000140001230 f i vboindexer.obj
 0001:00000230       ??$_Unfancy@U?$tvec2@M$0A@@glm@@@std@@YAPEAU?$tvec2@M$0A@@glm@@PEAU12@@Z 0000000140001230 f i objloader.obj
 0001:00000230       ?_Get_first@?$_Compressed_pair@V?$allocator@U?$tvec2@M$0A@@glm@@@std@@V?$_Vector_val@U?$_Simple_types@U?$tvec2@M$0A@@glm@@@std@@@2@$00@std@@QEBAAEBV?$allocator@U?$tvec2@M$0A@@glm@@@2@XZ 0000000140001230 f i objloader.obj
 0001:00000230       ?_Get_first@?$_Compressed_pair@V?$allocator@UAirportObject@@@std@@V?$_Vector_val@U?$_Simple_types@UAirportObject@@@std@@@2@$00@std@@QEBAAEBV?$allocator@UAirportObject@@@2@XZ 0000000140001230 f i world.obj
 0001:00000230       ?_Get_first@?$_Compressed_pair@U?$default_delete@V_Facet_base@std@@@std@@PEAV_Facet_base@2@$00@std@@QEAAAEAU?$default_delete@V_Facet_base@std@@@2@XZ 0000000140001230 f i shader.obj
 0001:00000230       ??$move@AEAV?$allocator@D@std@@@std@@YA$$QEAV?$allocator@D@0@AEAV10@@Z 0000000140001230 f i shader.obj
 0001:00000230       ??$forward@U?$tvec3@M$0A@@glm@@@std@@YA$$QEAU?$tvec3@M$0A@@glm@@AEAU12@@Z 0000000140001230 f i objloader.obj
 0001:00000230       ?_Get_first@?$_Compressed_pair@U?$less@UPackedVertex@@@std@@V?$_Compressed_pair@V?$allocator@U?$_Tree_node@U?$pair@$$CBUPackedVertex@@G@std@@PEAX@std@@@std@@V?$_Tree_val@U?$_Tree_simple_types@U?$pair@$$CBUPackedVertex@@G@std@@@std@@@2@$00@2@$00@std@@QEBAAEBU?$less@UPackedVertex@@@2@XZ 0000000140001230 f i vboindexer.obj
 0001:00000230       ??$forward@AEBUpiecewise_construct_t@std@@@std@@YAAEBUpiecewise_construct_t@0@AEBU10@@Z 0000000140001230 f i vboindexer.obj
 0001:00000230       ??$addressof@V?$_String_val@U?$_Simple_types@D@std@@@std@@@std@@YAPEAV?$_String_val@U?$_Simple_types@D@std@@@0@AEAV10@@Z 0000000140001230 f i shader.obj
 0001:00000230       ??$move@AEAV?$basic_istream@DU?$char_traits@D@std@@@std@@@std@@YA$$QEAV?$basic_istream@DU?$char_traits@D@std@@@0@AEAV10@@Z 0000000140001230 f i shader.obj
 0001:00000230       ??$_Convert_size@_K@std@@YA_K_K@Z 0000000140001230 f i shader.obj
 0001:00000230       ?_Get_first@?$_Compressed_pair@V?$allocator@G@std@@V?$_Vector_val@U?$_Simple_types@G@std@@@2@$00@std@@QEAAAEAV?$allocator@G@2@XZ 0000000140001230 f i vboindexer.obj
 0001:00000230       ??$_Unfancy@G@std@@YAPEAGPEAG@Z 0000000140001230 f i vboindexer.obj
 0001:00000230       ??$addressof@V?$basic_filebuf@DU?$char_traits@D@std@@@std@@@std@@YAPEAV?$basic_filebuf@DU?$char_traits@D@std@@@0@AEAV10@@Z 0000000140001230 f i shader.obj
 0001:00000230       ??$forward@UPlaneStats@@@std@@YA$$QEAUPlaneStats@@AEAU1@@Z 0000000140001230 f i world.obj
 0001:00000230       ??$forward@AEBQEAU?$_Tree_node@U?$pair@$$CBUPackedVertex@@G@std@@PEAX@std@@@std@@YAAEBQEAU?$_Tree_node@U?$pair@$$CBUPackedVertex@@G@std@@PEAX@0@AEBQEAU10@@Z 0000000140001230 f i vboindexer.obj
 0001:00000230       ??$forward@AEBQEAD@std@@YAAEBQEADAEBQEAD@Z 0000000140001230 f i shader.obj
 0001:00000230       ?_Get_first@?$_Compressed_pair@V?$allocator@UPlaneObject@@@std@@V?$_Vector_val@U?$_Simple_types@UPlaneObject@@@std@@@2@$00@std@@QEBAAEBV?$allocator@UPlaneObject@@@2@XZ 0000000140001230 f i world.obj
 0001:00000230       ??$forward@V?$allocator@D@std@@@std@@YA$$QEAV?$allocator@D@0@AEAV10@@Z 0000000140001230 f i shader.obj
 0001:00000230       ??$_Unfancy@UPlaneStats@@@std@@YAPEAUPlaneStats@@PEAU1@@Z 0000000140001230 f i world.obj
 0001:00000230       ??$_Unfancy@I@std@@YAPEAIPEAI@Z 0000000140001230 f i objloader.obj
 0001:00000230       ??0?$allocator@UPlaneStats@@@std@@QEAA@XZ 0000000140001230 f i main.obj
 0001:00000230       ??0?$allocator@U?$tvec2@M$0A@@glm@@@std@@QEAA@XZ 0000000140001230 f i objloader.obj
 0001:00000230       ??$forward@AEAPEAV_Facet_base@std@@@std@@YAAEAPEAV_Facet_base@0@AEAPEAV10@@Z 0000000140001230 f i shader.obj
 0001:00000230       ?_Get_first@?$_Compressed_pair@V?$allocator@I@std@@V?$_Vector_val@U?$_Simple_types@I@std@@@2@$00@std@@QEBAAEBV?$allocator@I@2@XZ 0000000140001230 f i objloader.obj
 0001:00000230       ??0?$allocator@D@std@@QEAA@XZ 0000000140001230 f i objloader.obj
 0001:00000230       ?_Get_first@?$_Compressed_pair@V?$allocator@UPlaneObject@@@std@@V?$_Vector_val@U?$_Simple_types@UPlaneObject@@@std@@@2@$00@std@@QEAAAEAV?$allocator@UPlaneObject@@@2@XZ 0000000140001230 f i main.obj
 0001:00000230       ??$forward@AEBUPlaneObject@@@std@@YAAEBUPlaneObject@@AEBU1@@Z 0000000140001230 f i world.obj
 0001:00000230       ?_Get_first@?$_Compressed_pair@V?$allocator@UPlaneStats@@@std@@V?$_Vector_val@U?$_Simple_types@UPlaneStats@@@std@@@2@$00@std@@QEAAAEAV?$allocator@UPlaneStats@@@2@XZ 0000000140001230 f i main.obj
 0001:00000230       ??$move@AEAU?$tvec2@M$0A@@glm@@@std@@YA$$QEAU?$tvec2@M$0A@@glm@@AEAU12@@Z 0000000140001230 f i objloader.obj
 0001:00000230       ??0?$allocator@U?$_Tree_node@U?$pair@$$CBUPackedVertex@@G@std@@PEAX@std@@@std@@QEAA@XZ 0000000140001230 f i vboindexer.obj
 0001:00000230       ?_Get_first@?$_Compressed_pair@V?$allocator@U?$_Tree_node@U?$pair@$$CBUPackedVertex@@G@std@@PEAX@std@@@std@@V?$_Tree_val@U?$_Tree_simple_types@U?$pair@$$CBUPackedVertex@@G@std@@@std@@@2@$00@std@@QEAAAEAV?$allocator@U?$_Tree_node@U?$pair@$$CBUPackedVertex@@G@std@@PEAX@std@@@2@XZ 0000000140001230 f i vboindexer.obj
 0001:00000230       ??0?$tuple@$$V@std@@QEAA@XZ 0000000140001230 f i vboindexer.obj
 0001:00000230       ??$forward@AEBUAirportObject@@@std@@YAAEBUAirportObject@@AEBU1@@Z 0000000140001230 f i world.obj
 0001:00000230       ??$forward@AEAPEAU?$_Tree_node@U?$pair@$$CBUPackedVertex@@G@std@@PEAX@std@@@std@@YAAEAPEAU?$_Tree_node@U?$pair@$$CBUPackedVertex@@G@std@@PEAX@0@AEAPEAU10@@Z 0000000140001230 f i vboindexer.obj
 0001:00000230       ??$forward@AEBI@std@@YAAEBIAEBI@Z 0000000140001230 f i objloader.obj
 0001:00000230       ??0?$allocator@UPlaneObject@@@std@@QEAA@XZ 0000000140001230 f i main.obj
 0001:00000230       ??$forward@AEBU?$less@UPackedVertex@@@std@@@std@@YAAEBU?$less@UPackedVertex@@@0@AEBU10@@Z 0000000140001230 f i vboindexer.obj
 0001:00000230       ??$forward@UPlaneObject@@@std@@YA$$QEAUPlaneObject@@AEAU1@@Z 0000000140001230 f i world.obj
 0001:00000230       ??$forward@AEBU?$tvec2@M$0A@@glm@@@std@@YAAEBU?$tvec2@M$0A@@glm@@AEBU12@@Z 0000000140001230 f i objloader.obj
 0001:00000230       ??$move@AEAG@std@@YA$$QEAGAEAG@Z 0000000140001230 f i vboindexer.obj
 0001:00000230       ??$addressof@$$CBV?$_String_val@U?$_Simple_types@D@std@@@std@@@std@@YAPEBV?$_String_val@U?$_Simple_types@D@std@@@0@AEBV10@@Z 0000000140001230 f i shader.obj
 0001:00000230       ??$forward@U_Zero_then_variadic_args_t@std@@@std@@YA$$QEAU_Zero_then_variadic_args_t@0@AEAU10@@Z 0000000140001230 f i vboindexer.obj
 0001:00000230       ??$move@AEAUPlaneObject@@@std@@YA$$QEAUPlaneObject@@AEAU1@@Z 0000000140001230 f i world.obj
 0001:00000230       ??$move@AEAUPlaneStats@@@std@@YA$$QEAUPlaneStats@@AEAU1@@Z 0000000140001230 f i world.obj
 0001:00000230       ?_Get_first@?$_Compressed_pair@V?$allocator@U?$tvec3@M$0A@@glm@@@std@@V?$_Vector_val@U?$_Simple_types@U?$tvec3@M$0A@@glm@@@std@@@2@$00@std@@QEBAAEBV?$allocator@U?$tvec3@M$0A@@glm@@@2@XZ 0000000140001230 f i objloader.obj
 0001:00000230       ?_Get_first@?$_Compressed_pair@V?$allocator@UPlaneStats@@@std@@V?$_Vector_val@U?$_Simple_types@UPlaneStats@@@std@@@2@$00@std@@QEBAAEBV?$allocator@UPlaneStats@@@2@XZ 0000000140001230 f i world.obj
 0001:00000230       ?_Get_first@?$_Compressed_pair@V?$allocator@D@std@@V?$_String_val@U?$_Simple_types@D@std@@@2@$00@std@@QEBAAEBV?$allocator@D@2@XZ 0000000140001230 f i shader.obj
 0001:00000230       ??$move@AEAUAirportObject@@@std@@YA$$QEAUAirportObject@@AEAU1@@Z 0000000140001230 f i world.obj
 0001:00000230       ?_Get_first@?$_Compressed_pair@V?$allocator@D@std@@V?$_Vector_val@U?$_Simple_types@D@std@@@2@$00@std@@QEAAAEAV?$allocator@D@2@XZ 0000000140001230 f i shader.obj
 0001:00000230       ?_Get_first@?$_Compressed_pair@V?$allocator@UAirportObject@@@std@@V?$_Vector_val@U?$_Simple_types@UAirportObject@@@std@@@2@$00@std@@QEAAAEAV?$allocator@UAirportObject@@@2@XZ 0000000140001230 f i main.obj
 0001:00000230       ??$forward@U?$tvec2@M$0A@@glm@@@std@@YA$$QEAU?$tvec2@M$0A@@glm@@AEAU12@@Z 0000000140001230 f i objloader.obj
 0001:00000230       ??$forward@_N@std@@YA$$QEA_NAEA_N@Z 0000000140001230 f i vboindexer.obj
 0001:00000230       ?_Get_first@?$_Compressed_pair@V?$allocator@I@std@@V?$_Vector_val@U?$_Simple_types@I@std@@@2@$00@std@@QEAAAEAV?$allocator@I@2@XZ 0000000140001230 f i objloader.obj
 0001:00000230       ?_Get_first@?$_Compressed_pair@V?$allocator@G@std@@V?$_Vector_val@U?$_Simple_types@G@std@@@2@$00@std@@QEBAAEBV?$allocator@G@2@XZ 0000000140001230 f i vboindexer.obj
 0001:00000230       ??$forward@V?$tuple@$$V@std@@@std@@YA$$QEAV?$tuple@$$V@0@AEAV10@@Z 0000000140001230 f i vboindexer.obj
 0001:00000230       ??$addressof@PEAD@std@@YAPEAPEADAEAPEAD@Z 0000000140001230 f i shader.obj
 0001:00000230       ?_Get_first@?$_Compressed_pair@V?$allocator@D@std@@V?$_String_val@U?$_Simple_types@D@std@@@2@$00@std@@QEAAAEAV?$allocator@D@2@XZ 0000000140001230 f i objloader.obj
 0001:00000230       ??$move@AEAV?$tuple@AEBUPackedVertex@@@std@@@std@@YA$$QEAV?$tuple@AEBUPackedVertex@@@0@AEAV10@@Z 0000000140001230 f i vboindexer.obj
 0001:00000230       ??$forward@PEAU?$_Tree_node@U?$pair@$$CBUPackedVertex@@G@std@@PEAX@std@@@std@@YA$$QEAPEAU?$_Tree_node@U?$pair@$$CBUPackedVertex@@G@std@@PEAX@0@AEAPEAU10@@Z 0000000140001230 f i vboindexer.obj
 0001:00000230       ??$forward@AEBG@std@@YAAEBGAEBG@Z 0000000140001230 f i vboindexer.obj
 0001:00000230       ??$_Unfancy@U?$tvec3@M$0A@@glm@@@std@@YAPEAU?$tvec3@M$0A@@glm@@PEAU12@@Z 0000000140001230 f i objloader.obj
 0001:00000230       ??0?$allocator@U?$tvec3@M$0A@@glm@@@std@@QEAA@XZ 0000000140001230 f i objloader.obj
 0001:00000230       ??0?$allocator@I@std@@QEAA@XZ 0000000140001230 f i objloader.obj
 0001:00000230       ??$forward@AEBUPackedVertex@@@std@@YAAEBUPackedVertex@@AEBU1@@Z 0000000140001230 f i vboindexer.obj
 0001:00000230       ??$addressof@$$CBV?$_Tree_val@U?$_Tree_simple_types@U?$pair@$$CBUPackedVertex@@G@std@@@std@@@std@@@std@@YAPEBV?$_Tree_val@U?$_Tree_simple_types@U?$pair@$$CBUPackedVertex@@G@std@@@std@@@0@AEBV10@@Z 0000000140001230 f i vboindexer.obj
 0001:00000230       ??$addressof@V?$_Tree_val@U?$_Tree_simple_types@U?$pair@$$CBUPackedVertex@@G@std@@@std@@@std@@@std@@YAPEAV?$_Tree_val@U?$_Tree_simple_types@U?$pair@$$CBUPackedVertex@@G@std@@@std@@@0@AEAV10@@Z 0000000140001230 f i vboindexer.obj
 0001:00000230       ?_Get_first@?$_Compressed_pair@V?$allocator@U?$tvec3@M$0A@@glm@@@std@@V?$_Vector_val@U?$_Simple_types@U?$tvec3@M$0A@@glm@@@std@@@2@$00@std@@QEAAAEAV?$allocator@U?$tvec3@M$0A@@glm@@@2@XZ 0000000140001230 f i objloader.obj
 0001:00000230       ??$forward@UAirportObject@@@std@@YA$$QEAUAirportObject@@AEAU1@@Z 0000000140001230 f i world.obj
 0001:00000230       ??$forward@AEBU?$tvec3@M$0A@@glm@@@std@@YAAEBU?$tvec3@M$0A@@glm@@AEBU12@@Z 0000000140001230 f i objloader.obj
 0001:00000230       ?_Get_first@?$_Compressed_pair@V?$allocator@U?$tvec2@M$0A@@glm@@@std@@V?$_Vector_val@U?$_Simple_types@U?$tvec2@M$0A@@glm@@@std@@@2@$00@std@@QEAAAEAV?$allocator@U?$tvec2@M$0A@@glm@@@2@XZ 0000000140001230 f i objloader.obj
 0001:00000230       ??0?$allocator@G@std@@QEAA@XZ 0000000140001230 f i winplatform.obj
 0001:00000230       ??$_Unfancy@UPlaneObject@@@std@@YAPEAUPlaneObject@@PEAU1@@Z 0000000140001230 f i world.obj
 0001:00000230       ??0?$allocator@UAirportObject@@@std@@QEAA@XZ 0000000140001230 f i main.obj
 0001:00000230       ??$addressof@PEAU?$_Tree_node@U?$pair@$$CBUPackedVertex@@G@std@@PEAX@std@@@std@@YAPEAPEAU?$_Tree_node@U?$pair@$$CBUPackedVertex@@G@std@@PEAX@0@AEAPEAU10@@Z 0000000140001230 f i vboindexer.obj
 0001:00000230       ??$_Kfn@$$CBUPackedVertex@@G@?$_Tmap_traits@UPackedVertex@@GU?$less@UPackedVertex@@@std@@V?$allocator@U?$pair@$$CBUPackedVertex@@G@std@@@3@$0A@@std@@SAAEBUPackedVertex@@AEBU?$pair@$$CBUPackedVertex@@G@1@@Z 0000000140001230 f i vboindexer.obj
 0001:00000230       ?_Get_first@?$_Compressed_pair@V?$allocator@U?$_Tree_node@U?$pair@$$CBUPackedVertex@@G@std@@PEAX@std@@@std@@V?$_Tree_val@U?$_Tree_simple_types@U?$pair@$$CBUPackedVertex@@G@std@@@std@@@2@$00@std@@QEBAAEBV?$allocator@U?$_Tree_node@U?$pair@$$CBUPackedVertex@@G@std@@PEAX@std@@@2@XZ 0000000140001230 f i vboindexer.obj
 0001:00000230       ??$forward@G@std@@YA$$QEAGAEAG@Z 0000000140001230 f i vboindexer.obj
 0001:00000230       ??0_Bxty@?$_String_val@U?$_Simple_types@D@std@@@std@@QEAA@XZ 0000000140001230 f i objloader.obj
 0001:00000230       ??$_Unfancy@D@std@@YAPEADPEAD@Z 0000000140001230 f i shader.obj
 0001:00000230       ??$forward@AEBUPlaneStats@@@std@@YAAEBUPlaneStats@@AEBU1@@Z 0000000140001230 f i world.obj
 0001:00000230       ??$forward@AEBV?$allocator@D@std@@@std@@YAAEBV?$allocator@D@0@AEBV10@@Z 0000000140001230 f i shader.obj
 0001:00000230       ??$forward@V?$tuple@AEBUPackedVertex@@@std@@@std@@YA$$QEAV?$tuple@AEBUPackedVertex@@@0@AEAV10@@Z 0000000140001230 f i vboindexer.obj
 0001:00000230       ??$move@AEAU?$tvec3@M$0A@@glm@@@std@@YA$$QEAU?$tvec3@M$0A@@glm@@AEAU12@@Z 0000000140001230 f i objloader.obj
 0001:00000240       ??0?$vector@UAirportObject@@V?$allocator@UAirportObject@@@std@@@std@@QEAA@XZ 0000000140001240 f i main.obj
 0001:00000240       ??0?$vector@UPlaneObject@@V?$allocator@UPlaneObject@@@std@@@std@@QEAA@XZ 0000000140001240 f i main.obj
 0001:00000240       ??0?$vector@GV?$allocator@G@std@@@std@@QEAA@XZ 0000000140001240 f i winplatform.obj
 0001:00000240       ??0?$vector@U?$tvec3@M$0A@@glm@@V?$allocator@U?$tvec3@M$0A@@glm@@@std@@@std@@QEAA@XZ 0000000140001240 f i objloader.obj
 0001:00000240       ??0?$vector@UPlaneStats@@V?$allocator@UPlaneStats@@@std@@@std@@QEAA@XZ 0000000140001240 f i main.obj
 0001:00000240       ??0?$vector@IV?$allocator@I@std@@@std@@QEAA@XZ 0000000140001240 f i objloader.obj
 0001:00000240       ??0?$vector@U?$tvec2@M$0A@@glm@@V?$allocator@U?$tvec2@M$0A@@glm@@@std@@@std@@QEAA@XZ 0000000140001240 f i objloader.obj
 0001:00000280       ??0GameWorld@@QEAA@XZ      0000000140001280 f i main.obj
 0001:000002d0       ??0?$_Tree_val@U?$_Tree_simple_types@U?$pair@$$CBUPackedVertex@@G@std@@@std@@@std@@QEAA@XZ 00000001400012d0 f i vboindexer.obj
 0001:000002d0       ??0InputState@@QEAA@XZ     00000001400012d0 f i main.obj
 0001:00000300       ??1?$vector@UAirportObject@@V?$allocator@UAirportObject@@@std@@@std@@QEAA@XZ 0000000140001300 f i main.obj
 0001:00000320       ??1?$vector@UPlaneStats@@V?$allocator@UPlaneStats@@@std@@@std@@QEAA@XZ 0000000140001320 f i main.obj
 0001:00000320       ??1?$vector@UPlaneObject@@V?$allocator@UPlaneObject@@@std@@@std@@QEAA@XZ 0000000140001320 f i main.obj
 0001:00000340       ??1GameWorld@@QEAA@XZ      0000000140001340 f i main.obj
 0001:00000380       ?_Adjust_manually_vector_aligned@std@@YAXAEAPEAXAEA_K@Z 0000000140001380 f i main.obj
 0001:00000420       ?_Adopt@_Iterator_base0@std@@QEAAXPEBX@Z 0000000140001420 f i vboindexer.obj
 0001:00000420       ??$destroy@U?$pair@$$CBUPackedVertex@@G@std@@@?$_Default_allocator_traits@V?$allocator@U?$_Tree_node@U?$pair@$$CBUPackedVertex@@G@std@@PEAX@std@@@std@@@std@@SAXAEAV?$allocator@U?$_Tree_node@U?$pair@$$CBUPackedVertex@@G@std@@PEAX@std@@@1@QEAU?$pair@$$CBUPackedVertex@@G@1@@Z 0000000140001420 f i vboindexer.obj
 0001:00000420       ?_Alloc_proxy@_Container_base0@std@@QEAAXAEBU_Fake_allocator@2@@Z 0000000140001420 f i main.obj
 0001:00000430       ?_Destroy@?$vector@U?$tvec3@M$0A@@glm@@V?$allocator@U?$tvec3@M$0A@@glm@@@std@@@std@@AEAAXPEAU?$tvec3@M$0A@@glm@@0@Z 0000000140001430 f i objloader.obj
 0001:00000430       ?_Destroy@?$vector@UAirportObject@@V?$allocator@UAirportObject@@@std@@@std@@AEAAXPEAUAirportObject@@0@Z 0000000140001430 f i main.obj
 0001:00000430       ?_Destroy@?$vector@U?$tvec2@M$0A@@glm@@V?$allocator@U?$tvec2@M$0A@@glm@@@std@@@std@@AEAAXPEAU?$tvec2@M$0A@@glm@@0@Z 0000000140001430 f i objloader.obj
 0001:00000430       ?_Destroy@?$vector@UPlaneObject@@V?$allocator@UPlaneObject@@@std@@@std@@AEAAXPEAUPlaneObject@@0@Z 0000000140001430 f i main.obj
 0001:00000430       ?_Destroy@?$vector@DV?$allocator@D@std@@@std@@AEAAXPEAD0@Z 0000000140001430 f i shader.obj
 0001:00000430       ?_Destroy@?$vector@GV?$allocator@G@std@@@std@@AEAAXPEAG0@Z 0000000140001430 f i vboindexer.obj
 0001:00000430       ?_Destroy@?$vector@UPlaneStats@@V?$allocator@UPlaneStats@@@std@@@std@@AEAAXPEAUPlaneStats@@0@Z 0000000140001430 f i main.obj
 0001:00000430       ?_Destroy@?$vector@IV?$allocator@I@std@@@std@@AEAAXPEAI0@Z 0000000140001430 f i objloader.obj
 0001:00000470       ?_Get_scary@?$_Tree@V?$_Tmap_traits@UPackedVertex@@GU?$less@UPackedVertex@@@std@@V?$allocator@U?$pair@$$CBUPackedVertex@@G@std@@@3@$0A@@std@@@std@@IEAAPEAV?$_Tree_val@U?$_Tree_simple_types@U?$pair@$$CBUPackedVertex@@G@std@@@std@@@2@XZ 0000000140001470 f i vboindexer.obj
 0001:00000470       ?_Getal@?$vector@UPlaneStats@@V?$allocator@UPlaneStats@@@std@@@std@@AEBAAEBV?$allocator@UPlaneStats@@@2@XZ 0000000140001470 f i world.obj
 0001:00000470       ?_Getal@?$vector@UAirportObject@@V?$allocator@UAirportObject@@@std@@@std@@AEAAAEAV?$allocator@UAirportObject@@@2@XZ 0000000140001470 f i main.obj
 0001:00000470       ?_Getal@?$basic_string@DU?$char_traits@D@std@@V?$allocator@D@2@@std@@AEBAAEBV?$allocator@D@2@XZ 0000000140001470 f i shader.obj
 0001:00000470       ?_Getal@?$vector@UPlaneStats@@V?$allocator@UPlaneStats@@@std@@@std@@AEAAAEAV?$allocator@UPlaneStats@@@2@XZ 0000000140001470 f i main.obj
 0001:00000470       ?_Getal@?$vector@DV?$allocator@D@std@@@std@@AEAAAEAV?$allocator@D@2@XZ 0000000140001470 f i shader.obj
 0001:00000470       ?_Getcomp@?$_Tree@V?$_Tmap_traits@UPackedVertex@@GU?$less@UPackedVertex@@@std@@V?$allocator@U?$pair@$$CBUPackedVertex@@G@std@@@3@$0A@@std@@@std@@IEBAAEBU?$less@UPackedVertex@@@2@XZ 0000000140001470 f i vboindexer.obj
 0001:00000470       ?_Getal@?$vector@IV?$allocator@I@std@@@std@@AEAAAEAV?$allocator@I@2@XZ 0000000140001470 f i objloader.obj
 0001:00000470       ?_Getal@?$vector@UPlaneObject@@V?$allocator@UPlaneObject@@@std@@@std@@AEBAAEBV?$allocator@UPlaneObject@@@2@XZ 0000000140001470 f i world.obj
 0001:00000470       ?_Getal@?$vector@U?$tvec3@M$0A@@glm@@V?$allocator@U?$tvec3@M$0A@@glm@@@std@@@std@@AEBAAEBV?$allocator@U?$tvec3@M$0A@@glm@@@2@XZ 0000000140001470 f i objloader.obj
 0001:00000470       ?_Getal@?$vector@DV?$allocator@D@std@@@std@@AEBAAEBV?$allocator@D@2@XZ 0000000140001470 f i shader.obj
 0001:00000470       ?_Getal@?$basic_string@DU?$char_traits@D@std@@V?$allocator@D@2@@std@@AEAAAEAV?$allocator@D@2@XZ 0000000140001470 f i objloader.obj
 0001:00000470       ?_Getal@?$vector@UAirportObject@@V?$allocator@UAirportObject@@@std@@@std@@AEBAAEBV?$allocator@UAirportObject@@@2@XZ 0000000140001470 f i world.obj
 0001:00000470       ?_Getal@?$vector@UPlaneObject@@V?$allocator@UPlaneObject@@@std@@@std@@AEAAAEAV?$allocator@UPlaneObject@@@2@XZ 0000000140001470 f i main.obj
 0001:00000470       ?_Getal@?$vector@IV?$allocator@I@std@@@std@@AEBAAEBV?$allocator@I@2@XZ 0000000140001470 f i objloader.obj
 0001:00000470       ?_Getal@?$_Tree@V?$_Tmap_traits@UPackedVertex@@GU?$less@UPackedVertex@@@std@@V?$allocator@U?$pair@$$CBUPackedVertex@@G@std@@@3@$0A@@std@@@std@@IEBAAEBV?$allocator@U?$_Tree_node@U?$pair@$$CBUPackedVertex@@G@std@@PEAX@std@@@2@XZ 0000000140001470 f i vboindexer.obj
 0001:00000470       ?_Get_scary@?$_Tree@V?$_Tmap_traits@UPackedVertex@@GU?$less@UPackedVertex@@@std@@V?$allocator@U?$pair@$$CBUPackedVertex@@G@std@@@3@$0A@@std@@@std@@IEBAPEBV?$_Tree_val@U?$_Tree_simple_types@U?$pair@$$CBUPackedVertex@@G@std@@@std@@@2@XZ 0000000140001470 f i vboindexer.obj
 0001:00000470       ?_Getal@?$vector@U?$tvec2@M$0A@@glm@@V?$allocator@U?$tvec2@M$0A@@glm@@@std@@@std@@AEAAAEAV?$allocator@U?$tvec2@M$0A@@glm@@@2@XZ 0000000140001470 f i objloader.obj
 0001:00000470       ?_Getal@?$vector@U?$tvec3@M$0A@@glm@@V?$allocator@U?$tvec3@M$0A@@glm@@@std@@@std@@AEAAAEAV?$allocator@U?$tvec3@M$0A@@glm@@@2@XZ 0000000140001470 f i objloader.obj
 0001:00000470       ?_Getal@?$_Tree@V?$_Tmap_traits@UPackedVertex@@GU?$less@UPackedVertex@@@std@@V?$allocator@U?$pair@$$CBUPackedVertex@@G@std@@@3@$0A@@std@@@std@@IEAAAEAV?$allocator@U?$_Tree_node@U?$pair@$$CBUPackedVertex@@G@std@@PEAX@std@@@2@XZ 0000000140001470 f i vboindexer.obj
 0001:00000470       ?_Getal@?$vector@GV?$allocator@G@std@@@std@@AEAAAEAV?$allocator@G@2@XZ 0000000140001470 f i vboindexer.obj
 0001:00000470       ?_Getal@?$vector@GV?$allocator@G@std@@@std@@AEBAAEBV?$allocator@G@2@XZ 0000000140001470 f i vboindexer.obj
 0001:00000470       ?_Getal@?$vector@U?$tvec2@M$0A@@glm@@V?$allocator@U?$tvec2@M$0A@@glm@@@std@@@std@@AEBAAEBV?$allocator@U?$tvec2@M$0A@@glm@@@2@XZ 0000000140001470 f i objloader.obj
 0001:00000490       ??$_Destroy_in_place@PEAD@std@@YAXAEAPEAD@Z 0000000140001490 f i objloader.obj
 0001:00000490       ?_Release@_Fake_proxy_ptr_impl@std@@QEAAXXZ 0000000140001490 f i shader.obj
 0001:00000490       ??1_Bxty@?$_String_val@U?$_Simple_types@D@std@@@std@@QEAA@XZ 0000000140001490 f i objloader.obj
 0001:00000490       ?_Orphan_all@_Container_base0@std@@QEAAXXZ 0000000140001490 f i main.obj
 0001:00000490       ??$_Destroy_in_place@PEAU?$_Tree_node@U?$pair@$$CBUPackedVertex@@G@std@@PEAX@std@@@std@@YAXAEAPEAU?$_Tree_node@U?$pair@$$CBUPackedVertex@@G@std@@PEAX@0@@Z 0000000140001490 f i vboindexer.obj
 0001:000004a0       ?_Tidy@?$vector@UAirportObject@@V?$allocator@UAirportObject@@@std@@@std@@AEAAXXZ 00000001400014a0 f i main.obj
 0001:00000570       ?_Tidy@?$vector@UPlaneStats@@V?$allocator@UPlaneStats@@@std@@@std@@AEAAXXZ 0000000140001570 f i main.obj
 0001:00000570       ?_Tidy@?$vector@UPlaneObject@@V?$allocator@UPlaneObject@@@std@@@std@@AEAAXXZ 0000000140001570 f i main.obj
 0001:00000640       ?clear@InputState@@QEAAXXZ 0000000140001640 f i main.obj
 0001:000006b0       ?deallocate@?$allocator@UAirportObject@@@std@@QEAAXQEAUAirportObject@@_K@Z 00000001400016b0 f i main.obj
 0001:000006e0       ?deallocate@?$allocator@UPlaneStats@@@std@@QEAAXQEAUPlaneStats@@_K@Z 00000001400016e0 f i main.obj
 0001:000006e0       ?deallocate@?$_Default_allocator_traits@V?$allocator@U?$_Tree_node@U?$pair@$$CBUPackedVertex@@G@std@@PEAX@std@@@std@@@std@@SAXAEAV?$allocator@U?$_Tree_node@U?$pair@$$CBUPackedVertex@@G@std@@PEAX@std@@@2@QEAU?$_Tree_node@U?$pair@$$CBUPackedVertex@@G@std@@PEAX@2@_K@Z 00000001400016e0 f i vboindexer.obj
 0001:000006e0       ?deallocate@?$allocator@U?$_Tree_node@U?$pair@$$CBUPackedVertex@@G@std@@PEAX@std@@@std@@QEAAXQEAU?$_Tree_node@U?$pair@$$CBUPackedVertex@@G@std@@PEAX@2@_K@Z 00000001400016e0 f i vboindexer.obj
 0001:000006e0       ?deallocate@?$allocator@UPlaneObject@@@std@@QEAAXQEAUPlaneObject@@_K@Z 00000001400016e0 f i main.obj
 0001:00000710       ?isKeyTriggered@InputState@@QEAA_NW4e_InputKey@@@Z 0000000140001710 f i main.obj
 0001:00000770       ?loadOBJ@@YA_NPEBDAEAV?$vector@U?$tvec3@M$0A@@glm@@V?$allocator@U?$tvec3@M$0A@@glm@@@std@@@std@@AEAV?$vector@U?$tvec2@M$0A@@glm@@V?$allocator@U?$tvec2@M$0A@@glm@@@std@@@2@1@Z 0000000140001770 f   objloader.obj
 0001:00000fa0       ??$?0$$V@?$_Compressed_pair@V?$allocator@D@std@@V?$_String_val@U?$_Simple_types@D@std@@@2@$00@std@@QEAA@U_Zero_then_variadic_args_t@1@@Z 0000000140001fa0 f i objloader.obj
 0001:00000fd0       ??$_Allocate@$0BA@U_Default_allocate_traits@std@@$0A@@std@@YAPEAX_K@Z 0000000140001fd0 f i objloader.obj
 0001:00001010       ??$_Allocate_manually_vector_aligned@U_Default_allocate_traits@std@@@std@@YAPEAX_K@Z 0000000140002010 f i objloader.obj
 0001:000010a0       ??$_Copy_memmove@PEAIPEAI@std@@YAPEAIPEAI00@Z 00000001400020a0 f i objloader.obj
 0001:000010a0       ??$_Copy_memmove@PEAGPEAG@std@@YAPEAGPEAG00@Z 00000001400020a0 f i vboindexer.obj
 0001:00001110       ??$_Emplace_back@U?$tvec2@M$0A@@glm@@@?$_Uninitialized_backout_al@V?$allocator@U?$tvec2@M$0A@@glm@@@std@@@std@@QEAAX$$QEAU?$tvec2@M$0A@@glm@@@Z 0000000140002110 f i objloader.obj
 0001:00001170       ??$_Emplace_back@U?$tvec3@M$0A@@glm@@@?$_Uninitialized_backout_al@V?$allocator@U?$tvec3@M$0A@@glm@@@std@@@std@@QEAAX$$QEAU?$tvec3@M$0A@@glm@@@Z 0000000140002170 f i objloader.obj
 0001:000011d0       ??$_Emplace_back_with_unused_capacity@AEBI@?$vector@IV?$allocator@I@std@@@std@@AEAAXAEBI@Z 00000001400021d0 f i objloader.obj
 0001:00001280       ??$_Emplace_back_with_unused_capacity@AEBU?$tvec2@M$0A@@glm@@@?$vector@U?$tvec2@M$0A@@glm@@V?$allocator@U?$tvec2@M$0A@@glm@@@std@@@std@@AEAAXAEBU?$tvec2@M$0A@@glm@@@Z 0000000140002280 f i objloader.obj
 0001:00001330       ??$_Emplace_back_with_unused_capacity@AEBU?$tvec3@M$0A@@glm@@@?$vector@U?$tvec3@M$0A@@glm@@V?$allocator@U?$tvec3@M$0A@@glm@@@std@@@std@@AEAAXAEBU?$tvec3@M$0A@@glm@@@Z 0000000140002330 f i objloader.obj
 0001:000013e0       ??$_Emplace_reallocate@AEBI@?$vector@IV?$allocator@I@std@@@std@@QEAAPEAIQEAIAEBI@Z 00000001400023e0 f i objloader.obj
 0001:000015f0       ??$_Emplace_reallocate@AEBU?$tvec2@M$0A@@glm@@@?$vector@U?$tvec2@M$0A@@glm@@V?$allocator@U?$tvec2@M$0A@@glm@@@std@@@std@@QEAAPEAU?$tvec2@M$0A@@glm@@QEAU23@AEBU23@@Z 00000001400025f0 f i objloader.obj
 0001:00001800       ??$_Emplace_reallocate@AEBU?$tvec3@M$0A@@glm@@@?$vector@U?$tvec3@M$0A@@glm@@V?$allocator@U?$tvec3@M$0A@@glm@@@std@@@std@@QEAAPEAU?$tvec3@M$0A@@glm@@QEAU23@AEBU23@@Z 0000000140002800 f i objloader.obj
 0001:00001a30       ??$_Get_size_of_n@$03@std@@YA_K_K@Z 0000000140002a30 f i objloader.obj
 0001:00001a80       ??$_Get_size_of_n@$07@std@@YA_K_K@Z 0000000140002a80 f i objloader.obj
 0001:00001ad0       ??$_Get_size_of_n@$0M@@std@@YA_K_K@Z 0000000140002ad0 f i objloader.obj
 0001:00001b10       ??$_Get_unwrapped@AEBQEAI@std@@YAPEAIAEBQEAI@Z 0000000140002b10 f i objloader.obj
 0001:00001b10       ??$_Get_unwrapped@AEBQEAUPlaneStats@@@std@@YAPEAUPlaneStats@@AEBQEAU1@@Z 0000000140002b10 f i world.obj
 0001:00001b10       ??$_Get_unwrapped@AEBQEAUPlaneObject@@@std@@YAPEAUPlaneObject@@AEBQEAU1@@Z 0000000140002b10 f i world.obj
 0001:00001b10       ??$_Get_unwrapped@AEBQEAU?$tvec2@M$0A@@glm@@@std@@YAPEAU?$tvec2@M$0A@@glm@@AEBQEAU12@@Z 0000000140002b10 f i objloader.obj
 0001:00001b10       ??$_Get_unwrapped@AEBQEAUAirportObject@@@std@@YAPEAUAirportObject@@AEBQEAU1@@Z 0000000140002b10 f i world.obj
 0001:00001b10       ??$get@$0A@AEBUPackedVertex@@@std@@YAAEBUPackedVertex@@$$QEAV?$tuple@AEBUPackedVertex@@@0@@Z 0000000140002b10 f i vboindexer.obj
 0001:00001b10       ??$_Get_unwrapped@AEBQEAU?$tvec3@M$0A@@glm@@@std@@YAPEAU?$tvec3@M$0A@@glm@@AEBQEAU12@@Z 0000000140002b10 f i objloader.obj
 0001:00001b10       ??$_Get_unwrapped@AEBQEAG@std@@YAPEAGAEBQEAG@Z 0000000140002b10 f i vboindexer.obj
 0001:00001b20       ??$_Min_value@_K@std@@YAAEB_KAEB_K0@Z 0000000140002b20 f i objloader.obj
 0001:00001b70       ??$_Uninitialized_move@PEAIV?$allocator@I@std@@@std@@YAPEAIQEAI0PEAIAEAV?$allocator@I@0@@Z 0000000140002b70 f i objloader.obj
 0001:00001bf0       ??$_Uninitialized_move@PEAU?$tvec2@M$0A@@glm@@V?$allocator@U?$tvec2@M$0A@@glm@@@std@@@std@@YAPEAU?$tvec2@M$0A@@glm@@QEAU12@0PEAU12@AEAV?$allocator@U?$tvec2@M$0A@@glm@@@0@@Z 0000000140002bf0 f i objloader.obj
 0001:00001ca0       ??$_Uninitialized_move@PEAU?$tvec3@M$0A@@glm@@V?$allocator@U?$tvec3@M$0A@@glm@@@std@@@std@@YAPEAU?$tvec3@M$0A@@glm@@QEAU12@0PEAU12@AEAV?$allocator@U?$tvec3@M$0A@@glm@@@0@@Z 0000000140002ca0 f i objloader.obj
 0001:00001d50       ??$construct@IAEBI@?$_Default_allocator_traits@V?$allocator@I@std@@@std@@SAXAEAV?$allocator@I@1@QEAIAEBI@Z 0000000140002d50 f i objloader.obj
 0001:00001d90       ??$construct@U?$tvec2@M$0A@@glm@@U12@@?$_Default_allocator_traits@V?$allocator@U?$tvec2@M$0A@@glm@@@std@@@std@@SAXAEAV?$allocator@U?$tvec2@M$0A@@glm@@@1@QEAU?$tvec2@M$0A@@glm@@$$QEAU34@@Z 0000000140002d90 f i objloader.obj
 0001:00001d90       ??$construct@U?$tvec2@M$0A@@glm@@AEBU12@@?$_Default_allocator_traits@V?$allocator@U?$tvec2@M$0A@@glm@@@std@@@std@@SAXAEAV?$allocator@U?$tvec2@M$0A@@glm@@@1@QEAU?$tvec2@M$0A@@glm@@AEBU34@@Z 0000000140002d90 f i objloader.obj
 0001:00001de0       ??$construct@U?$tvec3@M$0A@@glm@@AEBU12@@?$_Default_allocator_traits@V?$allocator@U?$tvec3@M$0A@@glm@@@std@@@std@@SAXAEAV?$allocator@U?$tvec3@M$0A@@glm@@@1@QEAU?$tvec3@M$0A@@glm@@AEBU34@@Z 0000000140002de0 f i objloader.obj
 0001:00001de0       ??$construct@U?$tvec3@M$0A@@glm@@U12@@?$_Default_allocator_traits@V?$allocator@U?$tvec3@M$0A@@glm@@@std@@@std@@SAXAEAV?$allocator@U?$tvec3@M$0A@@glm@@@1@QEAU?$tvec3@M$0A@@glm@@$$QEAU34@@Z 0000000140002de0 f i objloader.obj
 0001:00001e30       ??$emplace_back@AEBI@?$vector@IV?$allocator@I@std@@@std@@QEAAXAEBI@Z 0000000140002e30 f i objloader.obj
 0001:00001eb0       ??$emplace_back@AEBU?$tvec2@M$0A@@glm@@@?$vector@U?$tvec2@M$0A@@glm@@V?$allocator@U?$tvec2@M$0A@@glm@@@std@@@std@@QEAAXAEBU?$tvec2@M$0A@@glm@@@Z 0000000140002eb0 f i objloader.obj
 0001:00001f30       ??$emplace_back@AEBU?$tvec3@M$0A@@glm@@@?$vector@U?$tvec3@M$0A@@glm@@V?$allocator@U?$tvec3@M$0A@@glm@@@std@@@std@@QEAAXAEBU?$tvec3@M$0A@@glm@@@Z 0000000140002f30 f i objloader.obj
 0001:00001fb0       ??0?$_String_val@U?$_Simple_types@D@std@@@std@@QEAA@XZ 0000000140002fb0 f i objloader.obj
 0001:00001ff0       ??0?$_Uninitialized_backout_al@V?$allocator@UPlaneStats@@@std@@@std@@QEAA@PEAUPlaneStats@@AEAV?$allocator@UPlaneStats@@@1@@Z 0000000140002ff0 f i world.obj
 0001:00001ff0       ??0?$_Uninitialized_backout_al@V?$allocator@UAirportObject@@@std@@@std@@QEAA@PEAUAirportObject@@AEAV?$allocator@UAirportObject@@@1@@Z 0000000140002ff0 f i world.obj
 0001:00001ff0       ??0?$_Uninitialized_backout_al@V?$allocator@U?$tvec3@M$0A@@glm@@@std@@@std@@QEAA@PEAU?$tvec3@M$0A@@glm@@AEAV?$allocator@U?$tvec3@M$0A@@glm@@@1@@Z 0000000140002ff0 f i objloader.obj
 0001:00001ff0       ??0?$_Uninitialized_backout_al@V?$allocator@UPlaneObject@@@std@@@std@@QEAA@PEAUPlaneObject@@AEAV?$allocator@UPlaneObject@@@1@@Z 0000000140002ff0 f i world.obj
 0001:00001ff0       ??0?$_Uninitialized_backout_al@V?$allocator@U?$tvec2@M$0A@@glm@@@std@@@std@@QEAA@PEAU?$tvec2@M$0A@@glm@@AEAV?$allocator@U?$tvec2@M$0A@@glm@@@1@@Z 0000000140002ff0 f i objloader.obj
 0001:00002030       ??0?$basic_string@DU?$char_traits@D@std@@V?$allocator@D@2@@std@@QEAA@XZ 0000000140003030 f i objloader.obj
 0001:00002080       ??0?$tvec2@M$0A@@glm@@QEAA@XZ 0000000140003080 f i objloader.obj
 0001:000020b0       ??0?$tvec3@M$0A@@glm@@QEAA@XZ 00000001400030b0 f i objloader.obj
 0001:000020f0       ??0bad_alloc@std@@AEAA@QEBD@Z 00000001400030f0 f i objloader.obj
 0001:00002130       ??0bad_alloc@std@@QEAA@AEBV01@@Z 0000000140003130 f i objloader.obj
 0001:00002170       ??0bad_array_new_length@std@@QEAA@AEBV01@@Z 0000000140003170 f i objloader.obj
 0001:000021b0       ??0bad_array_new_length@std@@QEAA@XZ 00000001400031b0 f i objloader.obj
 0001:000021f0       ??0exception@std@@QEAA@AEBV01@@Z 00000001400031f0 f i objloader.obj
 0001:00002250       ??0exception@std@@QEAA@QEBDH@Z 0000000140003250 f i objloader.obj
 0001:000022a0       ??1?$_Compressed_pair@V?$allocator@D@std@@V?$_String_val@U?$_Simple_types@D@std@@@2@$00@std@@QEAA@XZ 00000001400032a0 f i objloader.obj
 0001:000022c0       ??1?$_String_val@U?$_Simple_types@D@std@@@std@@QEAA@XZ 00000001400032c0 f i objloader.obj
 0001:000022e0       ??1?$_Uninitialized_backout_al@V?$allocator@U?$tvec2@M$0A@@glm@@@std@@@std@@QEAA@XZ 00000001400032e0 f i objloader.obj
 0001:000022e0       ??1?$_Uninitialized_backout_al@V?$allocator@UAirportObject@@@std@@@std@@QEAA@XZ 00000001400032e0 f i world.obj
 0001:000022e0       ??1?$_Uninitialized_backout_al@V?$allocator@U?$tvec3@M$0A@@glm@@@std@@@std@@QEAA@XZ 00000001400032e0 f i objloader.obj
 0001:000022e0       ??1?$_Uninitialized_backout_al@V?$allocator@UPlaneObject@@@std@@@std@@QEAA@XZ 00000001400032e0 f i world.obj
 0001:000022e0       ??1?$_Uninitialized_backout_al@V?$allocator@UPlaneStats@@@std@@@std@@QEAA@XZ 00000001400032e0 f i world.obj
 0001:00002310       ??1?$basic_string@DU?$char_traits@D@std@@V?$allocator@D@2@@std@@QEAA@XZ 0000000140003310 f i objloader.obj
 0001:00002340       ??1?$vector@IV?$allocator@I@std@@@std@@QEAA@XZ 0000000140003340 f i objloader.obj
 0001:00002360       ??1?$vector@U?$tvec2@M$0A@@glm@@V?$allocator@U?$tvec2@M$0A@@glm@@@std@@@std@@QEAA@XZ 0000000140003360 f i objloader.obj
 0001:00002380       ??1?$vector@U?$tvec3@M$0A@@glm@@V?$allocator@U?$tvec3@M$0A@@glm@@@std@@@std@@QEAA@XZ 0000000140003380 f i objloader.obj
 0001:000023a0       ??1bad_cast@std@@UEAA@XZ   00000001400033a0 f i shader.obj
 0001:000023a0       ??1bad_alloc@std@@UEAA@XZ  00000001400033a0 f i objloader.obj
 0001:000023c0       ??1bad_array_new_length@std@@UEAA@XZ 00000001400033c0 f i objloader.obj
 0001:000023e0       ??1exception@std@@UEAA@XZ  00000001400033e0 f i objloader.obj
 0001:00002410       ??2@YAPEAX_KPEAX@Z         0000000140003410 f i objloader.obj
 0001:00002420       ??A?$vector@IV?$allocator@I@std@@@std@@QEAAAEAI_K@Z 0000000140003420 f i objloader.obj
 0001:00002450       ??A?$vector@U?$tvec2@M$0A@@glm@@V?$allocator@U?$tvec2@M$0A@@glm@@@std@@@std@@QEAAAEAU?$tvec2@M$0A@@glm@@_K@Z 0000000140003450 f i objloader.obj
 0001:00002480       ??A?$vector@U?$tvec3@M$0A@@glm@@V?$allocator@U?$tvec3@M$0A@@glm@@@std@@@std@@QEAAAEAU?$tvec3@M$0A@@glm@@_K@Z 0000000140003480 f i objloader.obj
 0001:000024b0       ??_Ebad_cast@std@@UEAAPEAXI@Z 00000001400034b0 f i shader.obj
 0001:000024b0       ??_Gbad_cast@std@@UEAAPEAXI@Z 00000001400034b0 f i shader.obj
 0001:000024b0       ??_Ebad_alloc@std@@UEAAPEAXI@Z 00000001400034b0 f i objloader.obj
 0001:000024b0       ??_Gbad_alloc@std@@UEAAPEAXI@Z 00000001400034b0 f i objloader.obj
 0001:000024f0       ??_Ebad_array_new_length@std@@UEAAPEAXI@Z 00000001400034f0 f i objloader.obj
 0001:000024f0       ??_Gbad_array_new_length@std@@UEAAPEAXI@Z 00000001400034f0 f i objloader.obj
 0001:00002530       ??_Gexception@std@@UEAAPEAXI@Z 0000000140003530 f i objloader.obj
 0001:00002530       ??_Eexception@std@@UEAAPEAXI@Z 0000000140003530 f i objloader.obj
 0001:00002570       ?_Allocate@_Default_allocate_traits@std@@SAPEAX_K@Z 0000000140003570 f i objloader.obj
 0001:00002590       ?_Calculate_growth@?$vector@IV?$allocator@I@std@@@std@@AEBA_K_K@Z 0000000140003590 f i objloader.obj
 0001:00002620       ?_Calculate_growth@?$vector@U?$tvec2@M$0A@@glm@@V?$allocator@U?$tvec2@M$0A@@glm@@@std@@@std@@AEBA_K_K@Z 0000000140003620 f i objloader.obj
 0001:000026b0       ?_Calculate_growth@?$vector@U?$tvec3@M$0A@@glm@@V?$allocator@U?$tvec3@M$0A@@glm@@@std@@@std@@AEBA_K_K@Z 00000001400036b0 f i objloader.obj
 0001:00002740       ?_Change_array@?$vector@IV?$allocator@I@std@@@std@@AEAAXQEAI_K1@Z 0000000140003740 f i objloader.obj
 0001:00002840       ?_Change_array@?$vector@U?$tvec2@M$0A@@glm@@V?$allocator@U?$tvec2@M$0A@@glm@@@std@@@std@@AEAAXQEAU?$tvec2@M$0A@@glm@@_K1@Z 0000000140003840 f i objloader.obj
 0001:00002940       ?_Change_array@?$vector@U?$tvec3@M$0A@@glm@@V?$allocator@U?$tvec3@M$0A@@glm@@@std@@@std@@AEAAXQEAU?$tvec3@M$0A@@glm@@_K1@Z 0000000140003940 f i objloader.obj
 0001:00002a40       ?_Large_string_engaged@?$_String_val@U?$_Simple_types@D@std@@@std@@QEBA_NXZ 0000000140003a40 f i objloader.obj
 0001:00002a70       ?_Release@?$_Uninitialized_backout_al@V?$allocator@UAirportObject@@@std@@@std@@QEAAPEAUAirportObject@@XZ 0000000140003a70 f i world.obj
 0001:00002a70       ?_Release@?$_Uninitialized_backout_al@V?$allocator@U?$tvec3@M$0A@@glm@@@std@@@std@@QEAAPEAU?$tvec3@M$0A@@glm@@XZ 0000000140003a70 f i objloader.obj
 0001:00002a70       ?_Release@?$_Uninitialized_backout_al@V?$allocator@UPlaneStats@@@std@@@std@@QEAAPEAUPlaneStats@@XZ 0000000140003a70 f i world.obj
 0001:00002a70       ?_Release@?$_Uninitialized_backout_al@V?$allocator@U?$tvec2@M$0A@@glm@@@std@@@std@@QEAAPEAU?$tvec2@M$0A@@glm@@XZ 0000000140003a70 f i objloader.obj
 0001:00002a70       ?_Release@?$_Uninitialized_backout_al@V?$allocator@UPlaneObject@@@std@@@std@@QEAAPEAUPlaneObject@@XZ 0000000140003a70 f i world.obj
 0001:00002a90       ?_Throw_bad_array_new_length@std@@YAXXZ 0000000140003a90 f i objloader.obj
 0001:00002ac0       ?_Tidy@?$vector@IV?$allocator@I@std@@@std@@AEAAXXZ 0000000140003ac0 f i objloader.obj
 0001:00002b90       ?_Tidy@?$vector@U?$tvec2@M$0A@@glm@@V?$allocator@U?$tvec2@M$0A@@glm@@@std@@@std@@AEAAXXZ 0000000140003b90 f i objloader.obj
 0001:00002c60       ?_Tidy@?$vector@U?$tvec3@M$0A@@glm@@V?$allocator@U?$tvec3@M$0A@@glm@@@std@@@std@@AEAAXXZ 0000000140003c60 f i objloader.obj
 0001:00002d40       ?_Tidy_deallocate@?$basic_string@DU?$char_traits@D@std@@V?$allocator@D@2@@std@@AEAAXXZ 0000000140003d40 f i objloader.obj
 0001:00002e00       ?_Tidy_init@?$basic_string@DU?$char_traits@D@std@@V?$allocator@D@2@@std@@AEAAXXZ 0000000140003e00 f i objloader.obj
 0001:00002e50       ?_Umove@?$vector@IV?$allocator@I@std@@@std@@AEAAPEAIPEAI00@Z 0000000140003e50 f i objloader.obj
 0001:00002e50       ?_Umove_if_noexcept1@?$vector@IV?$allocator@I@std@@@std@@AEAAXPEAI00U?$integral_constant@_N$00@2@@Z 0000000140003e50 f i objloader.obj
 0001:00002e90       ?_Umove_if_noexcept1@?$vector@U?$tvec2@M$0A@@glm@@V?$allocator@U?$tvec2@M$0A@@glm@@@std@@@std@@AEAAXPEAU?$tvec2@M$0A@@glm@@00U?$integral_constant@_N$00@2@@Z 0000000140003e90 f i objloader.obj
 0001:00002e90       ?_Umove@?$vector@U?$tvec2@M$0A@@glm@@V?$allocator@U?$tvec2@M$0A@@glm@@@std@@@std@@AEAAPEAU?$tvec2@M$0A@@glm@@PEAU34@00@Z 0000000140003e90 f i objloader.obj
 0001:00002ed0       ?_Umove_if_noexcept1@?$vector@U?$tvec3@M$0A@@glm@@V?$allocator@U?$tvec3@M$0A@@glm@@@std@@@std@@AEAAXPEAU?$tvec3@M$0A@@glm@@00U?$integral_constant@_N$00@2@@Z 0000000140003ed0 f i objloader.obj
 0001:00002ed0       ?_Umove@?$vector@U?$tvec3@M$0A@@glm@@V?$allocator@U?$tvec3@M$0A@@glm@@@std@@@std@@AEAAPEAU?$tvec3@M$0A@@glm@@PEAU34@00@Z 0000000140003ed0 f i objloader.obj
 0001:00002f10       ?_Umove_if_noexcept@?$vector@IV?$allocator@I@std@@@std@@AEAAXPEAI00@Z 0000000140003f10 f i objloader.obj
 0001:00002f70       ?_Umove_if_noexcept@?$vector@U?$tvec2@M$0A@@glm@@V?$allocator@U?$tvec2@M$0A@@glm@@@std@@@std@@AEAAXPEAU?$tvec2@M$0A@@glm@@00@Z 0000000140003f70 f i objloader.obj
 0001:00002fd0       ?_Umove_if_noexcept@?$vector@U?$tvec3@M$0A@@glm@@V?$allocator@U?$tvec3@M$0A@@glm@@@std@@@std@@AEAAXPEAU?$tvec3@M$0A@@glm@@00@Z 0000000140003fd0 f i objloader.obj
 0001:00003030       ?_Xlength@?$vector@GV?$allocator@G@std@@@std@@CAXXZ 0000000140004030 f i vboindexer.obj
 0001:00003030       ?_Xlength@?$vector@IV?$allocator@I@std@@@std@@CAXXZ 0000000140004030 f i objloader.obj
 0001:00003030       ?_Xlength@?$vector@U?$tvec3@M$0A@@glm@@V?$allocator@U?$tvec3@M$0A@@glm@@@std@@@std@@CAXXZ 0000000140004030 f i objloader.obj
 0001:00003030       ?_Xlength@?$vector@UPlaneObject@@V?$allocator@UPlaneObject@@@std@@@std@@CAXXZ 0000000140004030 f i world.obj
 0001:00003030       ?_Xlength@?$vector@DV?$allocator@D@std@@@std@@CAXXZ 0000000140004030 f i shader.obj
 0001:00003030       ?_Xlength@?$vector@U?$tvec2@M$0A@@glm@@V?$allocator@U?$tvec2@M$0A@@glm@@@std@@@std@@CAXXZ 0000000140004030 f i objloader.obj
 0001:00003030       ?_Xlength@?$vector@UPlaneStats@@V?$allocator@UPlaneStats@@@std@@@std@@CAXXZ 0000000140004030 f i world.obj
 0001:00003030       ?_Xlength@?$vector@UAirportObject@@V?$allocator@UAirportObject@@@std@@@std@@CAXXZ 0000000140004030 f i world.obj
 0001:00003050       ?allocate@?$allocator@I@std@@QEAAPEAI_K@Z 0000000140004050 f i objloader.obj
 0001:00003080       ?allocate@?$allocator@U?$tvec2@M$0A@@glm@@@std@@QEAAPEAU?$tvec2@M$0A@@glm@@_K@Z 0000000140004080 f i objloader.obj
 0001:000030b0       ?allocate@?$allocator@U?$tvec3@M$0A@@glm@@@std@@QEAAPEAU?$tvec3@M$0A@@glm@@_K@Z 00000001400040b0 f i objloader.obj
 0001:000030e0       ?assign@?$_Narrow_char_traits@DH@std@@SAXAEADAEBD@Z 00000001400040e0 f i objloader.obj
 0001:00003100       ?capacity@?$vector@IV?$allocator@I@std@@@std@@QEBA_KXZ 0000000140004100 f i objloader.obj
 0001:00003130       ?capacity@?$vector@U?$tvec2@M$0A@@glm@@V?$allocator@U?$tvec2@M$0A@@glm@@@std@@@std@@QEBA_KXZ 0000000140004130 f i objloader.obj
 0001:00003160       ?capacity@?$vector@U?$tvec3@M$0A@@glm@@V?$allocator@U?$tvec3@M$0A@@glm@@@std@@@std@@QEBA_KXZ 0000000140004160 f i objloader.obj
 0001:000031a0       ?deallocate@?$allocator@D@std@@QEAAXQEAD_K@Z 00000001400041a0 f i objloader.obj
 0001:000031d0       ?deallocate@?$allocator@I@std@@QEAAXQEAI_K@Z 00000001400041d0 f i objloader.obj
 0001:00003200       ?deallocate@?$allocator@U?$tvec2@M$0A@@glm@@@std@@QEAAXQEAU?$tvec2@M$0A@@glm@@_K@Z 0000000140004200 f i objloader.obj
 0001:00003230       ?deallocate@?$allocator@U?$tvec3@M$0A@@glm@@@std@@QEAAXQEAU?$tvec3@M$0A@@glm@@_K@Z 0000000140004230 f i objloader.obj
 0001:00003260       ?max@?$numeric_limits@_J@std@@SA_JXZ 0000000140004260 f i objloader.obj
 0001:00003270       ?max_size@?$_Default_allocator_traits@V?$allocator@I@std@@@std@@SA_KAEBV?$allocator@I@2@@Z 0000000140004270 f i objloader.obj
 0001:00003280       ?max_size@?$_Default_allocator_traits@V?$allocator@U?$tvec2@M$0A@@glm@@@std@@@std@@SA_KAEBV?$allocator@U?$tvec2@M$0A@@glm@@@2@@Z 0000000140004280 f i objloader.obj
 0001:00003290       ?max_size@?$_Default_allocator_traits@V?$allocator@U?$tvec3@M$0A@@glm@@@std@@@std@@SA_KAEBV?$allocator@U?$tvec3@M$0A@@glm@@@2@@Z 0000000140004290 f i objloader.obj
 0001:000032a0       ?max_size@?$vector@IV?$allocator@I@std@@@std@@QEBA_KXZ 00000001400042a0 f i objloader.obj
 0001:000032f0       ?max_size@?$vector@U?$tvec2@M$0A@@glm@@V?$allocator@U?$tvec2@M$0A@@glm@@@std@@@std@@QEBA_KXZ 00000001400042f0 f i objloader.obj
 0001:00003340       ?max_size@?$vector@U?$tvec3@M$0A@@glm@@V?$allocator@U?$tvec3@M$0A@@glm@@@std@@@std@@QEBA_KXZ 0000000140004340 f i objloader.obj
 0001:00003390       ?push_back@?$vector@IV?$allocator@I@std@@@std@@QEAAXAEBI@Z 0000000140004390 f i objloader.obj
 0001:000033c0       ?push_back@?$vector@U?$tvec2@M$0A@@glm@@V?$allocator@U?$tvec2@M$0A@@glm@@@std@@@std@@QEAAXAEBU?$tvec2@M$0A@@glm@@@Z 00000001400043c0 f i objloader.obj
 0001:000033f0       ?push_back@?$vector@U?$tvec3@M$0A@@glm@@V?$allocator@U?$tvec3@M$0A@@glm@@@std@@@std@@QEAAXAEBU?$tvec3@M$0A@@glm@@@Z 00000001400043f0 f i objloader.obj
 0001:00003420       ?size@?$vector@IV?$allocator@I@std@@@std@@QEBA_KXZ 0000000140004420 f i objloader.obj
 0001:00003450       ?what@exception@std@@UEBAPEBDXZ 0000000140004450 f i objloader.obj
 0001:00003490       __local_stdio_printf_options 0000000140004490 f i objloader.obj
 0001:000034a0       __local_stdio_scanf_options 00000001400044a0 f i objloader.obj
 0001:000034b0       _vfprintf_l                00000001400044b0 f i objloader.obj
 0001:00003500       _vfscanf_s_l               0000000140004500 f i objloader.obj
 0001:00003550       fscanf_s                   0000000140004550 f i objloader.obj
 0001:000035a0       printf                     00000001400045a0 f i objloader.obj
 0001:00003600       ?LoadShaders@@YAIPEBD0@Z   0000000140004600 f   shader.obj
 0001:00003c10       ??$?0AEAPEAV_Facet_base@std@@@?$_Compressed_pair@U?$default_delete@V_Facet_base@std@@@std@@PEAV_Facet_base@2@$00@std@@QEAA@U_Zero_then_variadic_args_t@1@AEAPEAV_Facet_base@1@@Z 0000000140004c10 f i shader.obj
 0001:00003c50       ??$?0AEBV?$allocator@D@std@@$$V@?$_Compressed_pair@V?$allocator@D@std@@V?$_Vector_val@U?$_Simple_types@D@std@@@2@$00@std@@QEAA@U_One_then_variadic_args_t@1@AEBV?$allocator@D@1@@Z 0000000140004c50 f i shader.obj
 0001:00003c90       ??$?0U?$default_delete@V_Facet_base@std@@@std@@$0A@@?$unique_ptr@V_Facet_base@std@@U?$default_delete@V_Facet_base@std@@@2@@std@@QEAA@PEAV_Facet_base@1@@Z 0000000140004c90 f i shader.obj
 0001:00003cc0       ??$?0V?$allocator@D@std@@$$V@?$_Compressed_pair@V?$allocator@D@std@@V?$_String_val@U?$_Simple_types@D@std@@@2@$00@std@@QEAA@U_One_then_variadic_args_t@1@$$QEAV?$allocator@D@1@@Z 0000000140004cc0 f i shader.obj
 0001:00003d00       ??$?HDU?$char_traits@D@std@@V?$allocator@D@1@@std@@YA?AV?$basic_string@DU?$char_traits@D@std@@V?$allocator@D@2@@0@QEBDAEBV10@@Z 0000000140004d00 f i shader.obj
 0001:00003dd0       ??$_Construct_in_place@PEADAEBQEAD@std@@YAXAEAPEADAEBQEAD@Z 0000000140004dd0 f i shader.obj
 0001:00003dd0       ??$_Construct_in_place@PEAU?$_Tree_node@U?$pair@$$CBUPackedVertex@@G@std@@PEAX@std@@AEBQEAU12@@std@@YAXAEAPEAU?$_Tree_node@U?$pair@$$CBUPackedVertex@@G@std@@PEAX@0@AEBQEAU10@@Z 0000000140004dd0 f i vboindexer.obj
 0001:00003dd0       ??$_Construct_in_place@PEAU?$_Tree_node@U?$pair@$$CBUPackedVertex@@G@std@@PEAX@std@@AEAPEAU12@@std@@YAXAEAPEAU?$_Tree_node@U?$pair@$$CBUPackedVertex@@G@std@@PEAX@0@0@Z 0000000140004dd0 f i vboindexer.obj
 0001:00003e20       ??$_Construct_n_copies_of_ty@U_Value_init_tag@std@@@?$vector@DV?$allocator@D@std@@@std@@AEAAX_KAEBU_Value_init_tag@1@@Z 0000000140004e20 f i shader.obj
 0001:00003ed0       ??$_Fgetc@D@std@@YA_NAEADPEAU_iobuf@@@Z 0000000140004ed0 f i shader.obj
 0001:00003f10       ??$_Fputc@D@std@@YA_NDPEAU_iobuf@@@Z 0000000140004f10 f i shader.obj
 0001:00003f50       ??$_Get_size_of_n@$00@std@@YA_K_K@Z 0000000140004f50 f i shader.obj
 0001:00003f70       ??$_Max_value@_K@std@@YAAEB_KAEB_K0@Z 0000000140004f70 f i shader.obj
 0001:00003fc0       ??$_Reallocate_for@V<lambda_66f57f934f28d61049862f64df852ff0>@@PEBD@?$basic_string@DU?$char_traits@D@std@@V?$allocator@D@2@@std@@AEAAAEAV01@_KV<lambda_66f57f934f28d61049862f64df852ff0>@@PEBD@Z 0000000140004fc0 f i shader.obj
 0001:000040e0       ??$_Reallocate_grow_by@V<lambda_319d5e083f45f90dcdce5dce53cbb275>@@D@?$basic_string@DU?$char_traits@D@std@@V?$allocator@D@2@@std@@AEAAAEAV01@_KV<lambda_319d5e083f45f90dcdce5dce53cbb275>@@D@Z 00000001400050e0 f i shader.obj
 0001:00004290       ??$_Reallocate_grow_by@V<lambda_65e615be2a453ca0576c979606f46740>@@PEBD_K@?$basic_string@DU?$char_traits@D@std@@V?$allocator@D@2@@std@@AEAAAEAV01@_KV<lambda_65e615be2a453ca0576c979606f46740>@@PEBD_K@Z 0000000140005290 f i shader.obj
 0001:00004460       ??$_Reallocate_grow_by@V<lambda_9013ee9e23efe4882b67eff5b0ecf103>@@$$V@?$basic_string@DU?$char_traits@D@std@@V?$allocator@D@2@@std@@AEAAAEAV01@_KV<lambda_9013ee9e23efe4882b67eff5b0ecf103>@@@Z 0000000140005460 f i shader.obj
 0001:000045f0       ??$_Ungetc@D@std@@YA_NAEBDPEAU_iobuf@@@Z 00000001400055f0 f i shader.obj
 0001:00004640       ??$_Uninitialized_value_construct_n@V?$allocator@D@std@@@std@@YAPEADPEAD_KAEAV?$allocator@D@0@@Z 0000000140005640 f i shader.obj
 0001:000046a0       ??$_Zero_range@PEAD@std@@YAPEADQEAD0@Z 00000001400056a0 f i shader.obj
 0001:000046f0       ??$exchange@PEAU?$_Tree_node@U?$pair@$$CBUPackedVertex@@G@std@@PEAX@std@@AEAPEAU12@@std@@YAPEAU?$_Tree_node@U?$pair@$$CBUPackedVertex@@G@std@@PEAX@0@AEAPEAU10@0@Z 00000001400056f0 f i vboindexer.obj
 0001:000046f0       ??$exchange@PEAV_Facet_base@std@@PEAV12@@std@@YAPEAV_Facet_base@0@AEAPEAV10@$$QEAPEAV10@@Z 00000001400056f0 f i shader.obj
 0001:000046f0       ??$exchange@PEAU?$_Tree_node@U?$pair@$$CBUPackedVertex@@G@std@@PEAX@std@@$$T@std@@YAPEAU?$_Tree_node@U?$pair@$$CBUPackedVertex@@G@std@@PEAX@0@AEAPEAU10@$$QEA$$T@Z 00000001400056f0 f i vboindexer.obj
 0001:00004730       ??$getline@DU?$char_traits@D@std@@V?$allocator@D@2@@std@@YAAEAV?$basic_istream@DU?$char_traits@D@std@@@0@$$QEAV10@AEAV?$basic_string@DU?$char_traits@D@std@@V?$allocator@D@2@@0@D@Z 0000000140005730 f i shader.obj
 0001:00004970       ??$getline@DU?$char_traits@D@std@@V?$allocator@D@2@@std@@YAAEAV?$basic_istream@DU?$char_traits@D@std@@@0@AEAV10@AEAV?$basic_string@DU?$char_traits@D@std@@V?$allocator@D@2@@0@@Z 0000000140005970 f i shader.obj
 0001:000049d0       ??$use_facet@V?$codecvt@DDU_Mbstatet@@@std@@@std@@YAAEBV?$codecvt@DDU_Mbstatet@@@0@AEBVlocale@0@@Z 00000001400059d0 f i shader.obj
 0001:00004ae0       ??0?$basic_filebuf@DU?$char_traits@D@std@@@std@@QEAA@XZ 0000000140005ae0 f i shader.obj
 0001:00004b20       ??0?$basic_ifstream@DU?$char_traits@D@std@@@std@@QEAA@PEBDHH@Z 0000000140005b20 f i shader.obj
 0001:00004c50       ??0?$basic_string@DU?$char_traits@D@std@@V?$allocator@D@2@@std@@QEAA@$$QEAV01@@Z 0000000140005c50 f i shader.obj
 0001:00004cd0       ??0?$basic_string@DU?$char_traits@D@std@@V?$allocator@D@2@@std@@QEAA@QEBD@Z 0000000140005cd0 f i shader.obj
 0001:00004d40       ??0?$fpos@U_Mbstatet@@@std@@QEAA@U_Mbstatet@@_J@Z 0000000140005d40 f i shader.obj
 0001:00004d80       ??0?$fpos@U_Mbstatet@@@std@@QEAA@_J@Z 0000000140005d80 f i shader.obj
 0001:00004dd0       ??0?$vector@DV?$allocator@D@std@@@std@@QEAA@_KAEBV?$allocator@D@1@@Z 0000000140005dd0 f i shader.obj
 0001:00004e30       ??0_Fake_proxy_ptr_impl@std@@QEAA@AEBU_Fake_allocator@1@AEBU_Container_base0@1@@Z 0000000140005e30 f i shader.obj
 0001:00004e50       ??0_Sentry_base@?$basic_istream@DU?$char_traits@D@std@@@std@@QEAA@AEAV12@@Z 0000000140005e50 f i shader.obj
 0001:00004ec0       ??0bad_cast@std@@QEAA@AEBV01@@Z 0000000140005ec0 f i shader.obj
 0001:00004f00       ??0bad_cast@std@@QEAA@XZ   0000000140005f00 f i shader.obj
 0001:00004f40       ??0sentry@?$basic_istream@DU?$char_traits@D@std@@@std@@QEAA@AEAV12@_N@Z 0000000140005f40 f i shader.obj
 0001:00004f90       ??1?$_Tidy_guard@V?$vector@DV?$allocator@D@std@@@std@@@std@@QEAA@XZ 0000000140005f90 f i shader.obj
 0001:00004fc0       ??1?$basic_filebuf@DU?$char_traits@D@std@@@std@@UEAA@XZ 0000000140005fc0 f i shader.obj
 0001:00005020       ??1?$basic_ifstream@DU?$char_traits@D@std@@@std@@UEAA@XZ 0000000140006020 f i shader.obj
 0001:000050b0       ??1?$unique_ptr@V_Facet_base@std@@U?$default_delete@V_Facet_base@std@@@2@@std@@QEAA@XZ 00000001400060b0 f i shader.obj
 0001:000050f0       ??1?$vector@DV?$allocator@D@std@@@std@@QEAA@XZ 00000001400060f0 f i shader.obj
 0001:00005110       ??1_Sentry_base@?$basic_istream@DU?$char_traits@D@std@@@std@@QEAA@XZ 0000000140006110 f i shader.obj
 0001:00005170       ??1locale@std@@QEAA@XZ     0000000140006170 f i shader.obj
 0001:000051e0       ??1sentry@?$basic_istream@DU?$char_traits@D@std@@@std@@QEAA@XZ 00000001400061e0 f i shader.obj
 0001:00005200       ??A?$vector@DV?$allocator@D@std@@@std@@QEAAAEAD_K@Z 0000000140006200 f i shader.obj
 0001:00005230       ??B?$fpos@U_Mbstatet@@@std@@QEBA_JXZ 0000000140006230 f i shader.obj
 0001:00005250       ??Bsentry@?$basic_istream@DU?$char_traits@D@std@@@std@@QEBA_NXZ 0000000140006250 f i shader.obj
 0001:00005260       ??R<lambda_319d5e083f45f90dcdce5dce53cbb275>@@QEBAXQEADQEBD_KD@Z 0000000140006260 f i shader.obj
 0001:000052d0       ??R<lambda_65e615be2a453ca0576c979606f46740>@@QEBAXQEADQEBD_K12@Z 00000001400062d0 f i shader.obj
 0001:00005350       ??R<lambda_66f57f934f28d61049862f64df852ff0>@@QEBAXQEAD_KQEBD@Z 0000000140006350 f i shader.obj
 0001:000053b0       ??R<lambda_9013ee9e23efe4882b67eff5b0ecf103>@@QEBAXQEADQEBD_K@Z 00000001400063b0 f i shader.obj
 0001:000053f0       ??R?$default_delete@V_Facet_base@std@@@std@@QEBAXPEAV_Facet_base@1@@Z 00000001400063f0 f i shader.obj
 0001:00005440       ??Y?$basic_string@DU?$char_traits@D@std@@V?$allocator@D@2@@std@@QEAAAEAV01@AEBV01@@Z 0000000140006440 f i shader.obj
 0001:00005470       ??Y?$basic_string@DU?$char_traits@D@std@@V?$allocator@D@2@@std@@QEAAAEAV01@D@Z 0000000140006470 f i shader.obj
 0001:000054a0       ??Y?$basic_string@DU?$char_traits@D@std@@V?$allocator@D@2@@std@@QEAAAEAV01@QEBD@Z 00000001400064a0 f i shader.obj
 0001:000054d0       ??_D?$basic_ifstream@DU?$char_traits@D@std@@@std@@QEAAXXZ 00000001400064d0 f i shader.obj
 0001:00005508       ??_E?$basic_ifstream@DU?$char_traits@D@std@@@std@@$4PPPPPPPM@A@EAAPEAXI@Z 0000000140006508 f i shader.obj
 0001:00005520       ??_G?$basic_filebuf@DU?$char_traits@D@std@@@std@@UEAAPEAXI@Z 0000000140006520 f i shader.obj
 0001:00005520       ??_E?$basic_filebuf@DU?$char_traits@D@std@@@std@@UEAAPEAXI@Z 0000000140006520 f i shader.obj
 0001:00005560       ??_E?$basic_ifstream@DU?$char_traits@D@std@@@std@@UEAAPEAXI@Z 0000000140006560 f i shader.obj
 0001:00005560       ??_G?$basic_ifstream@DU?$char_traits@D@std@@@std@@UEAAPEAXI@Z 0000000140006560 f i shader.obj
 0001:000055c0       ?_Become_small@?$basic_string@DU?$char_traits@D@std@@V?$allocator@D@2@@std@@AEAAXXZ 00000001400065c0 f i shader.obj
 0001:00005660       ?_Buy_nonzero@?$vector@DV?$allocator@D@std@@@std@@AEAAX_K@Z 0000000140006660 f i shader.obj
 0001:000056a0       ?_Buy_raw@?$vector@DV?$allocator@D@std@@@std@@AEAAX_K@Z 00000001400066a0 f i shader.obj
 0001:00005740       ?_Calculate_growth@?$basic_string@DU?$char_traits@D@std@@V?$allocator@D@2@@std@@AEBA_K_K@Z 0000000140006740 f i shader.obj
 0001:00005780       ?_Calculate_growth@?$basic_string@DU?$char_traits@D@std@@V?$allocator@D@2@@std@@CA_K_K00@Z 0000000140006780 f i shader.obj
 0001:00005820       ?_Check_offset@?$_String_val@U?$_Simple_types@D@std@@@std@@QEBAX_K@Z 0000000140006820 f i shader.obj
 0001:00005850       ?_Clamp_suffix_size@?$_String_val@U?$_Simple_types@D@std@@@std@@QEBA_K_K0@Z 0000000140006850 f i shader.obj
 0001:00005890       ?_Endwrite@?$basic_filebuf@DU?$char_traits@D@std@@@std@@IEAA_NXZ 0000000140006890 f i shader.obj
 0001:00005a40       ?_Eos@?$basic_string@DU?$char_traits@D@std@@V?$allocator@D@2@@std@@AEAAX_K@Z 0000000140006a40 f i shader.obj
 0001:00005a90       ?_Getfacet@locale@std@@QEBAPEBVfacet@12@_K@Z 0000000140006a90 f i shader.obj
 0001:00005b40       ?_Init@?$basic_filebuf@DU?$char_traits@D@std@@@std@@IEAAXPEAU_iobuf@@W4_Initfl@12@@Z 0000000140006b40 f i shader.obj
 0001:00005c70       ?_Initcvt@?$basic_filebuf@DU?$char_traits@D@std@@@std@@IEAAXAEBV?$codecvt@DDU_Mbstatet@@@2@@Z 0000000140006c70 f i shader.obj
 0001:00005cd0       ?_Lock@?$basic_filebuf@DU?$char_traits@D@std@@@std@@UEAAXXZ 0000000140006cd0 f i shader.obj
 0001:00005d00       ?_Memcpy_val_from@?$basic_string@DU?$char_traits@D@std@@V?$allocator@D@2@@std@@AEAAXAEBV12@@Z 0000000140006d00 f i shader.obj
 0001:00005d50       ?_Myptr@?$_String_val@U?$_Simple_types@D@std@@@std@@QEBAPEBDXZ 0000000140006d50 f i shader.obj
 0001:00005d50       ?_Myptr@?$_String_val@U?$_Simple_types@D@std@@@std@@QEAAPEADXZ 0000000140006d50 f i shader.obj
 0001:00005d90       ?_Reset_back@?$basic_filebuf@DU?$char_traits@D@std@@@std@@AEAAXXZ 0000000140006d90 f i shader.obj
 0001:00005df0       ?_Set_back@?$basic_filebuf@DU?$char_traits@D@std@@@std@@AEAAXXZ 0000000140006df0 f i shader.obj
 0001:00005e80       ?_Take_contents@?$basic_string@DU?$char_traits@D@std@@V?$allocator@D@2@@std@@AEAAXAEAV12@U?$integral_constant@_N$00@2@@Z 0000000140006e80 f i shader.obj
 0001:00005ec0       ?_Throw_bad_cast@std@@YAXXZ 0000000140006ec0 f i shader.obj
 0001:00005ef0       ?_Tidy@?$vector@DV?$allocator@D@std@@@std@@AEAAXXZ 0000000140006ef0 f i shader.obj
 0001:00005fc0       ?_Ufill@?$vector@DV?$allocator@D@std@@@std@@AEAAPEADPEAD_KU_Value_init_tag@2@@Z 0000000140006fc0 f i shader.obj
 0001:00006000       ?_Unlock@?$basic_filebuf@DU?$char_traits@D@std@@@std@@UEAAXXZ 0000000140007000 f i shader.obj
 0001:00006030       ?_Xlen@?$basic_string@DU?$char_traits@D@std@@V?$allocator@D@2@@std@@CAXXZ 0000000140007030 f i shader.obj
 0001:00006050       ?_Xran@?$_String_val@U?$_Simple_types@D@std@@@std@@SAXXZ 0000000140007050 f i shader.obj
 0001:00006070       ?allocate@?$allocator@D@std@@QEAAPEAD_K@Z 0000000140007070 f i shader.obj
 0001:000060a0       ?append@?$basic_string@DU?$char_traits@D@std@@V?$allocator@D@2@@std@@QEAAAEAV12@AEBV12@@Z 00000001400070a0 f i shader.obj
 0001:000060e0       ?append@?$basic_string@DU?$char_traits@D@std@@V?$allocator@D@2@@std@@QEAAAEAV12@QEBD@Z 00000001400070e0 f i shader.obj
 0001:00006120       ?append@?$basic_string@DU?$char_traits@D@std@@V?$allocator@D@2@@std@@QEAAAEAV12@QEBD_K@Z 0000000140007120 f i shader.obj
 0001:00006220       ?assign@?$basic_string@DU?$char_traits@D@std@@V?$allocator@D@2@@std@@QEAAAEAV12@QEBD@Z 0000000140007220 f i shader.obj
 0001:00006260       ?assign@?$basic_string@DU?$char_traits@D@std@@V?$allocator@D@2@@std@@QEAAAEAV12@QEBD_K@Z 0000000140007260 f i shader.obj
 0001:00006320       ?c_str@?$basic_string@DU?$char_traits@D@std@@V?$allocator@D@2@@std@@QEBAPEBDXZ 0000000140007320 f i shader.obj
 0001:00006320       ?data@?$basic_string@DU?$char_traits@D@std@@V?$allocator@D@2@@std@@QEBAPEBDXZ 0000000140007320 f i shader.obj
 0001:00006340       ?close@?$basic_filebuf@DU?$char_traits@D@std@@@std@@QEAAPEAV12@XZ 0000000140007340 f i shader.obj
 0001:000063d0       ?close@?$basic_ifstream@DU?$char_traits@D@std@@@std@@QEAAXXZ 00000001400073d0 f i shader.obj
 0001:00006420       ?copy@?$_Narrow_char_traits@DH@std@@SAPEADQEADQEBD_K@Z 0000000140007420 f i shader.obj
 0001:00006450       ?eof@?$_Narrow_char_traits@DH@std@@SAHXZ 0000000140007450 f i shader.obj
 0001:00006460       ?eq_int_type@?$_Narrow_char_traits@DH@std@@SA_NAEBH0@Z 0000000140007460 f i shader.obj
 0001:000064a0       ?erase@?$basic_string@DU?$char_traits@D@std@@V?$allocator@D@2@@std@@QEAAAEAV12@_K@Z 00000001400074a0 f i shader.obj
 0001:000064e0       ?erase@?$basic_string@DU?$char_traits@D@std@@V?$allocator@D@2@@std@@QEAAAEAV12@_K_K@Z 00000001400074e0 f i shader.obj
 0001:000065c0       ?front@?$basic_string@DU?$char_traits@D@std@@V?$allocator@D@2@@std@@QEAAAEADXZ 00000001400075c0 f i shader.obj
 0001:000065f0       ?imbue@?$basic_filebuf@DU?$char_traits@D@std@@@std@@MEAAXAEBVlocale@2@@Z 00000001400075f0 f i shader.obj
 0001:00006620       ?is_open@?$basic_filebuf@DU?$char_traits@D@std@@@std@@QEBA_NXZ 0000000140007620 f i shader.obj
 0001:00006650       ?is_open@?$basic_ifstream@DU?$char_traits@D@std@@@std@@QEBA_NXZ 0000000140007650 f i shader.obj
 0001:00006670       ?length@?$_Narrow_char_traits@DH@std@@SA_KQEBD@Z 0000000140007670 f i shader.obj
 0001:000066b0       ?max_size@?$_Default_allocator_traits@V?$allocator@D@std@@@std@@SA_KAEBV?$allocator@D@2@@Z 00000001400076b0 f i shader.obj
 0001:000066c0       ?max_size@?$basic_string@DU?$char_traits@D@std@@V?$allocator@D@2@@std@@QEBA_KXZ 00000001400076c0 f i shader.obj
 0001:00006730       ?max_size@?$vector@DV?$allocator@D@std@@@std@@QEBA_KXZ 0000000140007730 f i shader.obj
 0001:00006780       ?move@?$_Narrow_char_traits@DH@std@@SAPEADQEADQEBD_K@Z 0000000140007780 f i shader.obj
 0001:000067b0       ?not_eof@?$_Narrow_char_traits@DH@std@@SAHAEBH@Z 00000001400077b0 f i shader.obj
 0001:00006800       ?open@?$basic_filebuf@DU?$char_traits@D@std@@@std@@QEAAPEAV12@PEBDHH@Z 0000000140007800 f i shader.obj
 0001:000068b0       ?overflow@?$basic_filebuf@DU?$char_traits@D@std@@@std@@MEAAHH@Z 00000001400078b0 f i shader.obj
 0001:00006b70       ?pbackfail@?$basic_filebuf@DU?$char_traits@D@std@@@std@@MEAAHH@Z 0000000140007b70 f i shader.obj
 0001:00006cf0       ?push_back@?$basic_string@DU?$char_traits@D@std@@V?$allocator@D@2@@std@@QEAAXD@Z 0000000140007cf0 f i shader.obj
 0001:00006dc0       ?release@?$unique_ptr@V_Facet_base@std@@U?$default_delete@V_Facet_base@std@@@2@@std@@QEAAPEAV_Facet_base@2@XZ 0000000140007dc0 f i shader.obj
 0001:00006df0       ?reserve@?$basic_string@DU?$char_traits@D@std@@V?$allocator@D@2@@std@@QEAAX_K@Z 0000000140007df0 f i shader.obj
 0001:00006ec0       ?seekoff@?$basic_filebuf@DU?$char_traits@D@std@@@std@@MEAA?AV?$fpos@U_Mbstatet@@@2@_JHH@Z 0000000140007ec0 f i shader.obj
 0001:00006fc0       ?seekpos@?$basic_filebuf@DU?$char_traits@D@std@@@std@@MEAA?AV?$fpos@U_Mbstatet@@@2@V32@H@Z 0000000140007fc0 f i shader.obj
 0001:00007090       ?setbuf@?$basic_filebuf@DU?$char_traits@D@std@@@std@@MEAAPEAV?$basic_streambuf@DU?$char_traits@D@std@@@2@PEAD_J@Z 0000000140008090 f i shader.obj
 0001:00007130       ?size@?$basic_string@DU?$char_traits@D@std@@V?$allocator@D@2@@std@@QEBA_KXZ 0000000140008130 f i shader.obj
 0001:00007140       ?state@?$fpos@U_Mbstatet@@@std@@QEBA?AU_Mbstatet@@XZ 0000000140008140 f i shader.obj
 0001:00007170       ?sync@?$basic_filebuf@DU?$char_traits@D@std@@@std@@MEAAHXZ 0000000140008170 f i shader.obj
 0001:000071f0       ?to_char_type@?$_Narrow_char_traits@DH@std@@SADAEBH@Z 00000001400081f0 f i shader.obj
 0001:000071f0       ?to_int_type@?$_Narrow_char_traits@DH@std@@SAHAEBD@Z 00000001400081f0 f i shader.obj
 0001:00007200       ?uflow@?$basic_filebuf@DU?$char_traits@D@std@@@std@@MEAAHXZ 0000000140008200 f i shader.obj
 0001:00007570       ?underflow@?$basic_filebuf@DU?$char_traits@D@std@@@std@@MEAAHXZ 0000000140008570 f i shader.obj
 0001:00007620       ?xsgetn@?$basic_filebuf@DU?$char_traits@D@std@@@std@@MEAA_JPEAD_J@Z 0000000140008620 f i shader.obj
 0001:000077f0       ?xsputn@?$basic_filebuf@DU?$char_traits@D@std@@@std@@MEAA_JPEBD_J@Z 00000001400087f0 f i shader.obj
 0001:00007920       ?indexVBO@@YAXAEAV?$vector@U?$tvec3@M$0A@@glm@@V?$allocator@U?$tvec3@M$0A@@glm@@@std@@@std@@AEAV?$vector@U?$tvec2@M$0A@@glm@@V?$allocator@U?$tvec2@M$0A@@glm@@@std@@@2@0AEAV?$vector@GV?$allocator@G@std@@@2@010@Z 0000000140008920 f   vboindexer.obj
 0001:00007ae0       ?indexVBO_TBN@@YAXAEAV?$vector@U?$tvec3@M$0A@@glm@@V?$allocator@U?$tvec3@M$0A@@glm@@@std@@@std@@AEAV?$vector@U?$tvec2@M$0A@@glm@@V?$allocator@U?$tvec2@M$0A@@glm@@@std@@@2@000AEAV?$vector@GV?$allocator@G@std@@@2@01000@Z 0000000140008ae0 f   vboindexer.obj
 0001:00007d50       ?is_near@@YA_NMM@Z         0000000140008d50 f   vboindexer.obj
 0001:00007da0       ?getSimilarVertexIndex@@YA_NAEAU?$tvec3@M$0A@@glm@@AEAU?$tvec2@M$0A@@2@0AEAV?$vector@U?$tvec3@M$0A@@glm@@V?$allocator@U?$tvec3@M$0A@@glm@@@std@@@std@@AEAV?$vector@U?$tvec2@M$0A@@glm@@V?$allocator@U?$tvec2@M$0A@@glm@@@std@@@5@2AEAG@Z 0000000140008da0 f   vboindexer.obj
 0001:00007f80       ?indexVBO_slow@@YAXAEAV?$vector@U?$tvec3@M$0A@@glm@@V?$allocator@U?$tvec3@M$0A@@glm@@@std@@@std@@AEAV?$vector@U?$tvec2@M$0A@@glm@@V?$allocator@U?$tvec2@M$0A@@glm@@@std@@@2@0AEAV?$vector@GV?$allocator@G@std@@@2@010@Z 0000000140008f80 f   vboindexer.obj
 0001:00008120       ?getSimilarVertexIndex_fast@@YA_NAEAUPackedVertex@@AEAV?$map@UPackedVertex@@GU?$less@UPackedVertex@@@std@@V?$allocator@U?$pair@$$CBUPackedVertex@@G@std@@@3@@std@@AEAG@Z 0000000140009120 f   vboindexer.obj
 0001:00008190       ??$?0$$V@?$_Compressed_pair@V?$allocator@U?$_Tree_node@U?$pair@$$CBUPackedVertex@@G@std@@PEAX@std@@@std@@V?$_Tree_val@U?$_Tree_simple_types@U?$pair@$$CBUPackedVertex@@G@std@@@std@@@2@$00@std@@QEAA@U_Zero_then_variadic_args_t@1@@Z 0000000140009190 f i vboindexer.obj
 0001:000081c0       ??$?0PEAU?$_Tree_node@U?$pair@$$CBUPackedVertex@@G@std@@PEAX@std@@_N$0A@@?$pair@PEAU?$_Tree_node@U?$pair@$$CBUPackedVertex@@G@std@@PEAX@std@@_N@std@@QEAA@$$QEAPEAU?$_Tree_node@U?$pair@$$CBUPackedVertex@@G@std@@PEAX@1@$$QEA_N@Z 00000001400091c0 f i vboindexer.obj
 0001:000081c0       ??$?0AEBQEAU?$_Tree_node@U?$pair@$$CBUPackedVertex@@G@std@@PEAX@std@@_N$0A@@?$pair@PEAU?$_Tree_node@U?$pair@$$CBUPackedVertex@@G@std@@PEAX@std@@_N@std@@QEAA@AEBQEAU?$_Tree_node@U?$pair@$$CBUPackedVertex@@G@std@@PEAX@1@$$QEA_N@Z 00000001400091c0 f i vboindexer.obj
 0001:00008210       ??$?0AEBU?$less@UPackedVertex@@@std@@U_Zero_then_variadic_args_t@1@@?$_Compressed_pair@U?$less@UPackedVertex@@@std@@V?$_Compressed_pair@V?$allocator@U?$_Tree_node@U?$pair@$$CBUPackedVertex@@G@std@@PEAX@std@@@std@@V?$_Tree_val@U?$_Tree_simple_types@U?$pair@$$CBUPackedVertex@@G@std@@@std@@@2@$00@2@$00@std@@QEAA@U_One_then_variadic_args_t@1@AEBU?$less@UPackedVertex@@@1@$$QEAU_Zero_then_variadic_args_t@1@@Z 0000000140009210 f i vboindexer.obj
 0001:00008260       ??$?0AEBUPackedVertex@@$$Z$$V@?$pair@$$CBUPackedVertex@@G@std@@QEAA@Upiecewise_construct_t@1@V?$tuple@AEBUPackedVertex@@@1@V?$tuple@$$V@1@@Z 0000000140009260 f i vboindexer.obj
 0001:000082b0       ??$?0AEBUPackedVertex@@$0A@@?$tuple@AEBUPackedVertex@@@std@@QEAA@AEBUPackedVertex@@@Z 00000001400092b0 f i vboindexer.obj
 0001:000082f0       ??$?0AEBUPackedVertex@@@?$_Tuple_val@AEBUPackedVertex@@@std@@QEAA@AEBUPackedVertex@@@Z 00000001400092f0 f i vboindexer.obj
 0001:00008320       ??$?0AEBUpiecewise_construct_t@std@@V?$tuple@AEBUPackedVertex@@@1@V?$tuple@$$V@1@@?$_Tree_temp_node@V?$allocator@U?$_Tree_node@U?$pair@$$CBUPackedVertex@@G@std@@PEAX@std@@@std@@@std@@QEAA@AEAV?$allocator@U?$_Tree_node@U?$pair@$$CBUPackedVertex@@G@std@@PEAX@std@@@1@PEAU?$_Tree_node@U?$pair@$$CBUPackedVertex@@G@std@@PEAX@1@AEBUpiecewise_construct_t@1@$$QEAV?$tuple@AEBUPackedVertex@@@1@$$QEAV?$tuple@$$V@1@@Z 0000000140009320 f i vboindexer.obj
 0001:00008430       ??$?0U_Exact_args_t@std@@$0A@@?$tuple@$$V@std@@QEAA@U_Exact_args_t@1@@Z 0000000140009430 f i vboindexer.obj
 0001:00008440       ??$?0U_Exact_args_t@std@@AEBUPackedVertex@@$$V$0A@@?$tuple@AEBUPackedVertex@@@std@@QEAA@U_Exact_args_t@1@AEBUPackedVertex@@@Z 0000000140009440 f i vboindexer.obj
 0001:000084a0       ??$?0V?$tuple@AEBUPackedVertex@@@std@@V?$tuple@$$V@1@$0A@$$Z$S@?$pair@$$CBUPackedVertex@@G@std@@QEAA@AEAV?$tuple@AEBUPackedVertex@@@1@AEAV?$tuple@$$V@1@U?$integer_sequence@_K$0A@@1@U?$integer_sequence@_K$S@1@@Z 00000001400094a0 f i vboindexer.obj
 0001:00008500       ??$?YM@?$tvec3@M$0A@@glm@@QEAAAEAU01@AEBU01@@Z 0000000140009500 f i vboindexer.obj
 0001:00008570       ??$_Buyheadnode@V?$allocator@U?$_Tree_node@U?$pair@$$CBUPackedVertex@@G@std@@PEAX@std@@@std@@@?$_Tree_node@U?$pair@$$CBUPackedVertex@@G@std@@PEAX@std@@SAPEAU01@AEAV?$allocator@U?$_Tree_node@U?$pair@$$CBUPackedVertex@@G@std@@PEAX@std@@@1@@Z 0000000140009570 f i vboindexer.obj
 0001:000085f0       ??$_Emplace_back_with_unused_capacity@AEBG@?$vector@GV?$allocator@G@std@@@std@@AEAAXAEBG@Z 00000001400095f0 f i vboindexer.obj
 0001:000085f0       ??$_Emplace_back_with_unused_capacity@G@?$vector@GV?$allocator@G@std@@@std@@AEAAX$$QEAG@Z 00000001400095f0 f i vboindexer.obj
 0001:000086a0       ??$_Emplace_reallocate@G@?$vector@GV?$allocator@G@std@@@std@@QEAAPEAGQEAG$$QEAG@Z 00000001400096a0 f i vboindexer.obj
 0001:000086a0       ??$_Emplace_reallocate@AEBG@?$vector@GV?$allocator@G@std@@@std@@QEAAPEAGQEAGAEBG@Z 00000001400096a0 f i vboindexer.obj
 0001:000088b0       ??$_Erase_head@V?$allocator@U?$_Tree_node@U?$pair@$$CBUPackedVertex@@G@std@@PEAX@std@@@std@@@?$_Tree_val@U?$_Tree_simple_types@U?$pair@$$CBUPackedVertex@@G@std@@@std@@@std@@QEAAXAEAV?$allocator@U?$_Tree_node@U?$pair@$$CBUPackedVertex@@G@std@@PEAX@std@@@1@@Z 00000001400098b0 f i vboindexer.obj
 0001:00008900       ??$_Erase_tree@V?$allocator@U?$_Tree_node@U?$pair@$$CBUPackedVertex@@G@std@@PEAX@std@@@std@@@?$_Tree_val@U?$_Tree_simple_types@U?$pair@$$CBUPackedVertex@@G@std@@@std@@@std@@QEAAXAEAV?$allocator@U?$_Tree_node@U?$pair@$$CBUPackedVertex@@G@std@@PEAX@std@@@1@PEAU?$_Tree_node@U?$pair@$$CBUPackedVertex@@G@std@@PEAX@1@@Z 0000000140009900 f i vboindexer.obj
 0001:00008960       ??$_Find@UPackedVertex@@@?$_Tree@V?$_Tmap_traits@UPackedVertex@@GU?$less@UPackedVertex@@@std@@V?$allocator@U?$pair@$$CBUPackedVertex@@G@std@@@3@$0A@@std@@@std@@AEBAPEAU?$_Tree_node@U?$pair@$$CBUPackedVertex@@G@std@@PEAX@1@AEBUPackedVertex@@@Z 0000000140009960 f i vboindexer.obj
 0001:000089c0       ??$_Find_lower_bound@UPackedVertex@@@?$_Tree@V?$_Tmap_traits@UPackedVertex@@GU?$less@UPackedVertex@@@std@@V?$allocator@U?$pair@$$CBUPackedVertex@@G@std@@@3@$0A@@std@@@std@@IEBA?AU?$_Tree_find_result@PEAU?$_Tree_node@U?$pair@$$CBUPackedVertex@@G@std@@PEAX@std@@@1@AEBUPackedVertex@@@Z 00000001400099c0 f i vboindexer.obj
 0001:00008ad0       ??$_Freenode0@V?$allocator@U?$_Tree_node@U?$pair@$$CBUPackedVertex@@G@std@@PEAX@std@@@std@@@?$_Tree_node@U?$pair@$$CBUPackedVertex@@G@std@@PEAX@std@@SAXAEAV?$allocator@U?$_Tree_node@U?$pair@$$CBUPackedVertex@@G@std@@PEAX@std@@@1@PEAU01@@Z 0000000140009ad0 f i vboindexer.obj
 0001:00008b30       ??$_Freenode@V?$allocator@U?$_Tree_node@U?$pair@$$CBUPackedVertex@@G@std@@PEAX@std@@@std@@@?$_Tree_node@U?$pair@$$CBUPackedVertex@@G@std@@PEAX@std@@SAXAEAV?$allocator@U?$_Tree_node@U?$pair@$$CBUPackedVertex@@G@std@@PEAX@std@@@1@PEAU01@@Z 0000000140009b30 f i vboindexer.obj
 0001:00008b80       ??$_Get_size_of_n@$01@std@@YA_K_K@Z 0000000140009b80 f i vboindexer.obj
 0001:00008bc0       ??$_Get_size_of_n@$0EA@@std@@YA_K_K@Z 0000000140009bc0 f i vboindexer.obj
 0001:00008c00       ??$_Lower_bound_duplicate@UPackedVertex@@@?$_Tree@V?$_Tmap_traits@UPackedVertex@@GU?$less@UPackedVertex@@@std@@V?$allocator@U?$pair@$$CBUPackedVertex@@G@std@@@3@$0A@@std@@@std@@IEBA_NQEAU?$_Tree_node@U?$pair@$$CBUPackedVertex@@G@std@@PEAX@1@AEBUPackedVertex@@@Z 0000000140009c00 f i vboindexer.obj
 0001:00008c80       ??$_Try_emplace@AEBUPackedVertex@@$$V@?$map@UPackedVertex@@GU?$less@UPackedVertex@@@std@@V?$allocator@U?$pair@$$CBUPackedVertex@@G@std@@@3@@std@@AEAA?AU?$pair@PEAU?$_Tree_node@U?$pair@$$CBUPackedVertex@@G@std@@PEAX@std@@_N@1@AEBUPackedVertex@@@Z 0000000140009c80 f i vboindexer.obj
 0001:00008e20       ??$_Uninitialized_move@PEAGV?$allocator@G@std@@@std@@YAPEAGQEAG0PEAGAEAV?$allocator@G@0@@Z 0000000140009e20 f i vboindexer.obj
 0001:00008ea0       ??$construct@GAEBG@?$_Default_allocator_traits@V?$allocator@G@std@@@std@@SAXAEAV?$allocator@G@1@QEAGAEBG@Z 0000000140009ea0 f i vboindexer.obj
 0001:00008ea0       ??$construct@GG@?$_Default_allocator_traits@V?$allocator@G@std@@@std@@SAXAEAV?$allocator@G@1@QEAG$$QEAG@Z 0000000140009ea0 f i vboindexer.obj
 0001:00008ef0       ??$construct@U?$pair@$$CBUPackedVertex@@G@std@@AEBUpiecewise_construct_t@2@V?$tuple@AEBUPackedVertex@@@2@V?$tuple@$$V@2@@?$_Default_allocator_traits@V?$allocator@U?$_Tree_node@U?$pair@$$CBUPackedVertex@@G@std@@PEAX@std@@@std@@@std@@SAXAEAV?$allocator@U?$_Tree_node@U?$pair@$$CBUPackedVertex@@G@std@@PEAX@std@@@1@QEAU?$pair@$$CBUPackedVertex@@G@1@AEBUpiecewise_construct_t@1@$$QEAV?$tuple@AEBUPackedVertex@@@1@$$QEAV?$tuple@$$V@1@@Z 0000000140009ef0 f i vboindexer.obj
 0001:00008fa0       ??$emplace_back@AEBG@?$vector@GV?$allocator@G@std@@@std@@QEAAXAEBG@Z 0000000140009fa0 f i vboindexer.obj
 0001:00008fa0       ??$emplace_back@G@?$vector@GV?$allocator@G@std@@@std@@QEAAX$$QEAG@Z 0000000140009fa0 f i vboindexer.obj
 0001:00009020       ??$forward_as_tuple@$$V@std@@YA?AV?$tuple@$$V@0@XZ 000000014000a020 f i vboindexer.obj
 0001:00009040       ??$forward_as_tuple@AEBUPackedVertex@@@std@@YA?AV?$tuple@AEBUPackedVertex@@@0@AEBUPackedVertex@@@Z 000000014000a040 f i vboindexer.obj
 0001:00009070       ??0?$_Alloc_construct_ptr@V?$allocator@U?$_Tree_node@U?$pair@$$CBUPackedVertex@@G@std@@PEAX@std@@@std@@@std@@QEAA@AEAV?$allocator@U?$_Tree_node@U?$pair@$$CBUPackedVertex@@G@std@@PEAX@std@@@1@@Z 000000014000a070 f i vboindexer.obj
 0001:000090a0       ??0?$_Tree@V?$_Tmap_traits@UPackedVertex@@GU?$less@UPackedVertex@@@std@@V?$allocator@U?$pair@$$CBUPackedVertex@@G@std@@@3@$0A@@std@@@std@@QEAA@AEBU?$less@UPackedVertex@@@1@@Z 000000014000a0a0 f i vboindexer.obj
 0001:000090e0       ??0?$_Tree_const_iterator@V?$_Tree_val@U?$_Tree_simple_types@U?$pair@$$CBUPackedVertex@@G@std@@@std@@@std@@@std@@QEAA@PEAU?$_Tree_node@U?$pair@$$CBUPackedVertex@@G@std@@PEAX@1@PEBV?$_Tree_val@U?$_Tree_simple_types@U?$pair@$$CBUPackedVertex@@G@std@@@std@@@1@@Z 000000014000a0e0 f i vboindexer.obj
 0001:00009120       ??0?$_Tree_iterator@V?$_Tree_val@U?$_Tree_simple_types@U?$pair@$$CBUPackedVertex@@G@std@@@std@@@std@@@std@@QEAA@PEAU?$_Tree_node@U?$pair@$$CBUPackedVertex@@G@std@@PEAX@1@PEBV?$_Tree_val@U?$_Tree_simple_types@U?$pair@$$CBUPackedVertex@@G@std@@@std@@@1@@Z 000000014000a120 f i vboindexer.obj
 0001:00009160       ??0?$_Tree_temp_node_alloc@V?$allocator@U?$_Tree_node@U?$pair@$$CBUPackedVertex@@G@std@@PEAX@std@@@std@@@std@@QEAA@AEAV?$allocator@U?$_Tree_node@U?$pair@$$CBUPackedVertex@@G@std@@PEAX@std@@@1@@Z 000000014000a160 f i vboindexer.obj
 0001:000091a0       ??0?$_Tree_unchecked_const_iterator@V?$_Tree_val@U?$_Tree_simple_types@U?$pair@$$CBUPackedVertex@@G@std@@@std@@@std@@U_Iterator_base0@2@@std@@QEAA@PEAU?$_Tree_node@U?$pair@$$CBUPackedVertex@@G@std@@PEAX@1@PEBV?$_Tree_val@U?$_Tree_simple_types@U?$pair@$$CBUPackedVertex@@G@std@@@std@@@1@@Z 000000014000a1a0 f i vboindexer.obj
 0001:000091e0       ??0?$map@UPackedVertex@@GU?$less@UPackedVertex@@@std@@V?$allocator@U?$pair@$$CBUPackedVertex@@G@std@@@3@@std@@QEAA@XZ 000000014000a1e0 f i vboindexer.obj
 0001:00009210       ??0?$tuple@$$V@std@@QEAA@AEBV01@@Z 000000014000a210 f i vboindexer.obj
 0001:00009220       ??0?$tuple@AEBUPackedVertex@@@std@@QEAA@$$QEAV01@@Z 000000014000a220 f i vboindexer.obj
 0001:00009260       ??1?$_Alloc_construct_ptr@V?$allocator@U?$_Tree_node@U?$pair@$$CBUPackedVertex@@G@std@@PEAX@std@@@std@@@std@@QEAA@XZ 000000014000a260 f i vboindexer.obj
 0001:000092a0       ??1?$_Tree@V?$_Tmap_traits@UPackedVertex@@GU?$less@UPackedVertex@@@std@@V?$allocator@U?$pair@$$CBUPackedVertex@@G@std@@@3@$0A@@std@@@std@@QEAA@XZ 000000014000a2a0 f i vboindexer.obj
 0001:000092e0       ??1?$_Tree_temp_node@V?$allocator@U?$_Tree_node@U?$pair@$$CBUPackedVertex@@G@std@@PEAX@std@@@std@@@std@@QEAA@XZ 000000014000a2e0 f i vboindexer.obj
 0001:00009370       ??1?$_Tree_temp_node_alloc@V?$allocator@U?$_Tree_node@U?$pair@$$CBUPackedVertex@@G@std@@PEAX@std@@@std@@@std@@QEAA@XZ 000000014000a370 f i vboindexer.obj
 0001:00009390       ??1?$map@UPackedVertex@@GU?$less@UPackedVertex@@@std@@V?$allocator@U?$pair@$$CBUPackedVertex@@G@std@@@3@@std@@QEAA@XZ 000000014000a390 f i vboindexer.obj
 0001:000093b0       ??8?$_Tree_const_iterator@V?$_Tree_val@U?$_Tree_simple_types@U?$pair@$$CBUPackedVertex@@G@std@@@std@@@std@@@std@@QEBA_NAEBV01@@Z 000000014000a3b0 f i vboindexer.obj
 0001:000093f0       ??A?$map@UPackedVertex@@GU?$less@UPackedVertex@@@std@@V?$allocator@U?$pair@$$CBUPackedVertex@@G@std@@@3@@std@@QEAAAEAGAEBUPackedVertex@@@Z 000000014000a3f0 f i vboindexer.obj
 0001:00009420       ??C?$_Tree_iterator@V?$_Tree_val@U?$_Tree_simple_types@U?$pair@$$CBUPackedVertex@@G@std@@@std@@@std@@@std@@QEBAPEAU?$pair@$$CBUPackedVertex@@G@1@XZ 000000014000a420 f i vboindexer.obj
 0001:00009440       ??D?$_Tree_const_iterator@V?$_Tree_val@U?$_Tree_simple_types@U?$pair@$$CBUPackedVertex@@G@std@@@std@@@std@@@std@@QEBAAEBU?$pair@$$CBUPackedVertex@@G@1@XZ 000000014000a440 f i vboindexer.obj
 0001:00009460       ??D?$_Tree_iterator@V?$_Tree_val@U?$_Tree_simple_types@U?$pair@$$CBUPackedVertex@@G@std@@@std@@@std@@@std@@QEBAAEAU?$pair@$$CBUPackedVertex@@G@1@XZ 000000014000a460 f i vboindexer.obj
 0001:00009480       ??MPackedVertex@@QEBA_NU0@@Z 000000014000a480 f i vboindexer.obj
 0001:000094d0       ??R?$less@UPackedVertex@@@std@@QEBA_NAEBUPackedVertex@@0@Z 000000014000a4d0 f i vboindexer.obj
 0001:00009510       ?_Alloc_sentinel_and_proxy@?$_Tree@V?$_Tmap_traits@UPackedVertex@@GU?$less@UPackedVertex@@@std@@V?$allocator@U?$pair@$$CBUPackedVertex@@G@std@@@3@$0A@@std@@@std@@IEAAXXZ 000000014000a510 f i vboindexer.obj
 0001:00009570       ?_Allocate@?$_Alloc_construct_ptr@V?$allocator@U?$_Tree_node@U?$pair@$$CBUPackedVertex@@G@std@@PEAX@std@@@std@@@std@@QEAAXXZ 000000014000a570 f i vboindexer.obj
 0001:000095b0       ?_Calculate_growth@?$vector@GV?$allocator@G@std@@@std@@AEBA_K_K@Z 000000014000a5b0 f i vboindexer.obj
 0001:00009640       ?_Change_array@?$vector@GV?$allocator@G@std@@@std@@AEAAXQEAG_K1@Z 000000014000a640 f i vboindexer.obj
 0001:00009740       ?_Check_grow_by_1@?$_Tree@V?$_Tmap_traits@UPackedVertex@@GU?$less@UPackedVertex@@@std@@V?$allocator@U?$pair@$$CBUPackedVertex@@G@std@@@3@$0A@@std@@@std@@IEAAXXZ 000000014000a740 f i vboindexer.obj
 0001:00009780       ?_Insert_node@?$_Tree_val@U?$_Tree_simple_types@U?$pair@$$CBUPackedVertex@@G@std@@@std@@@std@@QEAAPEAU?$_Tree_node@U?$pair@$$CBUPackedVertex@@G@std@@PEAX@2@U?$_Tree_id@PEAU?$_Tree_node@U?$pair@$$CBUPackedVertex@@G@std@@PEAX@std@@@2@QEAU32@@Z 000000014000a780 f i vboindexer.obj
 0001:00009a70       ?_Lrotate@?$_Tree_val@U?$_Tree_simple_types@U?$pair@$$CBUPackedVertex@@G@std@@@std@@@std@@QEAAXPEAU?$_Tree_node@U?$pair@$$CBUPackedVertex@@G@std@@PEAX@2@@Z 000000014000aa70 f i vboindexer.obj
 0001:00009b50       ?_Release@?$_Alloc_construct_ptr@V?$allocator@U?$_Tree_node@U?$pair@$$CBUPackedVertex@@G@std@@PEAX@std@@@std@@@std@@QEAAPEAU?$_Tree_node@U?$pair@$$CBUPackedVertex@@G@std@@PEAX@2@XZ 000000014000ab50 f i vboindexer.obj
 0001:00009b80       ?_Rrotate@?$_Tree_val@U?$_Tree_simple_types@U?$pair@$$CBUPackedVertex@@G@std@@@std@@@std@@QEAAXPEAU?$_Tree_node@U?$pair@$$CBUPackedVertex@@G@std@@PEAX@2@@Z 000000014000ab80 f i vboindexer.obj
 0001:00009c60       ?_Throw_tree_length_error@std@@YAXXZ 000000014000ac60 f i vboindexer.obj
 0001:00009c80       ?_Umove_if_noexcept1@?$vector@GV?$allocator@G@std@@@std@@AEAAXPEAG00U?$integral_constant@_N$00@2@@Z 000000014000ac80 f i vboindexer.obj
 0001:00009c80       ?_Umove@?$vector@GV?$allocator@G@std@@@std@@AEAAPEAGPEAG00@Z 000000014000ac80 f i vboindexer.obj
 0001:00009cc0       ?_Umove_if_noexcept@?$vector@GV?$allocator@G@std@@@std@@AEAAXPEAG00@Z 000000014000acc0 f i vboindexer.obj
 0001:00009d20       ?allocate@?$allocator@G@std@@QEAAPEAG_K@Z 000000014000ad20 f i vboindexer.obj
 0001:00009d50       ?allocate@?$allocator@UPlaneObject@@@std@@QEAAPEAUPlaneObject@@_K@Z 000000014000ad50 f i world.obj
 0001:00009d50       ?allocate@?$allocator@UPlaneStats@@@std@@QEAAPEAUPlaneStats@@_K@Z 000000014000ad50 f i world.obj
 0001:00009d50       ?allocate@?$allocator@U?$_Tree_node@U?$pair@$$CBUPackedVertex@@G@std@@PEAX@std@@@std@@QEAAPEAU?$_Tree_node@U?$pair@$$CBUPackedVertex@@G@std@@PEAX@2@_K@Z 000000014000ad50 f i vboindexer.obj
 0001:00009d80       ?capacity@?$vector@GV?$allocator@G@std@@@std@@QEBA_KXZ 000000014000ad80 f i vboindexer.obj
 0001:00009db0       ?deallocate@?$allocator@G@std@@QEAAXQEAG_K@Z 000000014000adb0 f i vboindexer.obj
 0001:00009de0       ?end@?$_Tree@V?$_Tmap_traits@UPackedVertex@@GU?$less@UPackedVertex@@@std@@V?$allocator@U?$pair@$$CBUPackedVertex@@G@std@@@3@$0A@@std@@@std@@QEAA?AV?$_Tree_iterator@V?$_Tree_val@U?$_Tree_simple_types@U?$pair@$$CBUPackedVertex@@G@std@@@std@@@std@@@2@XZ 000000014000ade0 f i vboindexer.obj
 0001:00009e20       ?fabs@@YAMM@Z              000000014000ae20 f i vboindexer.obj
 0001:00009e40       ?find@?$_Tree@V?$_Tmap_traits@UPackedVertex@@GU?$less@UPackedVertex@@@std@@V?$allocator@U?$pair@$$CBUPackedVertex@@G@std@@@3@$0A@@std@@@std@@QEAA?AV?$_Tree_iterator@V?$_Tree_val@U?$_Tree_simple_types@U?$pair@$$CBUPackedVertex@@G@std@@@std@@@std@@@2@AEBUPackedVertex@@@Z 000000014000ae40 f i vboindexer.obj
 0001:00009e90       ?max_size@?$_Default_allocator_traits@V?$allocator@G@std@@@std@@SA_KAEBV?$allocator@G@2@@Z 000000014000ae90 f i vboindexer.obj
 0001:00009ea0       ?max_size@?$_Default_allocator_traits@V?$allocator@U?$_Tree_node@U?$pair@$$CBUPackedVertex@@G@std@@PEAX@std@@@std@@@std@@SA_KAEBV?$allocator@U?$_Tree_node@U?$pair@$$CBUPackedVertex@@G@std@@PEAX@std@@@2@@Z 000000014000aea0 f i vboindexer.obj
 0001:00009ea0       ?max_size@?$_Default_allocator_traits@V?$allocator@UPlaneStats@@@std@@@std@@SA_KAEBV?$allocator@UPlaneStats@@@2@@Z 000000014000aea0 f i world.obj
 0001:00009ea0       ?max_size@?$_Default_allocator_traits@V?$allocator@UPlaneObject@@@std@@@std@@SA_KAEBV?$allocator@UPlaneObject@@@2@@Z 000000014000aea0 f i world.obj
 0001:00009eb0       ?max_size@?$vector@UPlaneObject@@V?$allocator@UPlaneObject@@@std@@@std@@QEBA_KXZ 000000014000aeb0 f i world.obj
 0001:00009eb0       ?max_size@?$vector@UPlaneStats@@V?$allocator@UPlaneStats@@@std@@@std@@QEBA_KXZ 000000014000aeb0 f i world.obj
 0001:00009eb0       ?max_size@?$_Tree@V?$_Tmap_traits@UPackedVertex@@GU?$less@UPackedVertex@@@std@@V?$allocator@U?$pair@$$CBUPackedVertex@@G@std@@@3@$0A@@std@@@std@@QEBA_KXZ 000000014000aeb0 f i vboindexer.obj
 0001:00009f00       ?max_size@?$vector@GV?$allocator@G@std@@@std@@QEBA_KXZ 000000014000af00 f i vboindexer.obj
 0001:00009f50       ?pointer_to@?$pointer_traits@PEAU?$pair@$$CBUPackedVertex@@G@std@@@std@@SAPEAU?$pair@$$CBUPackedVertex@@G@2@AEAU32@@Z 000000014000af50 f i vboindexer.obj
 0001:00009f70       ?push_back@?$vector@GV?$allocator@G@std@@@std@@QEAAX$$QEAG@Z 000000014000af70 f i vboindexer.obj
 0001:00009fa0       ?push_back@?$vector@GV?$allocator@G@std@@@std@@QEAAXAEBG@Z 000000014000afa0 f i vboindexer.obj
 0001:00009fd0       ?size@?$vector@U?$tvec3@M$0A@@glm@@V?$allocator@U?$tvec3@M$0A@@glm@@@std@@@std@@QEBA_KXZ 000000014000afd0 f i vboindexer.obj
 0001:0000a010       fabsf                      000000014000b010 f i vboindexer.obj
 0001:0000a030       ?InitPlatformAndWindow@Platform@@YAXXZ 000000014000b030 f   winplatform.obj
 0001:0000a640       ?UpdateInput@Platform@@YAXAEAUInputState@@@Z 000000014000b640 f   winplatform.obj
 0001:0000a6f0       ?UpdateRender@Platform@@YAXXZ 000000014000b6f0 f   winplatform.obj
 0001:0000ab80       ?Shutdown@Platform@@YAXXZ  000000014000bb80 f   winplatform.obj
 0001:0000ac00       ?SetShouldShutdown@Platform@@YAXXZ 000000014000bc00 f   winplatform.obj
 0001:0000ac20       ?ShouldShutdown@Platform@@YA_NXZ 000000014000bc20 f   winplatform.obj
 0001:0000ac60       ?GetTime@Platform@@YANXZ   000000014000bc60 f   winplatform.obj
 0001:0000ac80       stbi_load_from_memory      000000014000bc80 f   winplatform.obj
 0001:0000ad20       stbi_load_from_callbacks   000000014000bd20 f   winplatform.obj
 0001:0000adc0       stbi_load                  000000014000bdc0 f   winplatform.obj
 0001:0000ae70       stbi_load_from_file        000000014000be70 f   winplatform.obj
 0001:0000af40       stbi_load_gif_from_memory  000000014000bf40 f   winplatform.obj
 0001:0000b090       stbi_load_16_from_memory   000000014000c090 f   winplatform.obj
 0001:0000b130       stbi_load_16_from_callbacks 000000014000c130 f   winplatform.obj
 0001:0000b1d0       stbi_load_16               000000014000c1d0 f   winplatform.obj
 0001:0000b280       stbi_load_from_file_16     000000014000c280 f   winplatform.obj
 0001:0000b350       stbi_loadf_from_memory     000000014000c350 f   winplatform.obj
 0001:0000b3f0       stbi_loadf_from_callbacks  000000014000c3f0 f   winplatform.obj
 0001:0000b490       stbi_loadf                 000000014000c490 f   winplatform.obj
 0001:0000b540       stbi_loadf_from_file       000000014000c540 f   winplatform.obj
 0001:0000b5d0       stbi_hdr_to_ldr_gamma      000000014000c5d0 f   winplatform.obj
 0001:0000b600       stbi_hdr_to_ldr_scale      000000014000c600 f   winplatform.obj
 0001:0000b630       stbi_ldr_to_hdr_gamma      000000014000c630 f   winplatform.obj
 0001:0000b650       stbi_ldr_to_hdr_scale      000000014000c650 f   winplatform.obj
 0001:0000b670       stbi_is_hdr_from_callbacks 000000014000c670 f   winplatform.obj
 0001:0000b6e0       stbi_is_hdr_from_memory    000000014000c6e0 f   winplatform.obj
 0001:0000b750       stbi_is_hdr                000000014000c750 f   winplatform.obj
 0001:0000b7b0       stbi_is_hdr_from_file      000000014000c7b0 f   winplatform.obj
 0001:0000b840       stbi_failure_reason        000000014000c840 f   winplatform.obj
 0001:0000b870       stbi_image_free            000000014000c870 f   winplatform.obj
 0001:0000b890       stbi_info_from_memory      000000014000c890 f   winplatform.obj
 0001:0000b920       stbi_info_from_callbacks   000000014000c920 f   winplatform.obj
 0001:0000b9b0       stbi_is_16_bit_from_memory 000000014000c9b0 f   winplatform.obj
 0001:0000ba20       stbi_is_16_bit_from_callbacks 000000014000ca20 f   winplatform.obj
 0001:0000ba90       stbi_info                  000000014000ca90 f   winplatform.obj
 0001:0000bb10       stbi_info_from_file        000000014000cb10 f   winplatform.obj
 0001:0000bbc0       stbi_is_16_bit             000000014000cbc0 f   winplatform.obj
 0001:0000bc20       stbi_is_16_bit_from_file   000000014000cc20 f   winplatform.obj
 0001:0000bcb0       stbi_set_unpremultiply_on_load 000000014000ccb0 f   winplatform.obj
 0001:0000bcd0       stbi_convert_iphone_png_to_rgb 000000014000ccd0 f   winplatform.obj
 0001:0000bcf0       stbi_set_flip_vertically_on_load 000000014000ccf0 f   winplatform.obj
 0001:0000bd10       stbi_set_flip_vertically_on_load_thread 000000014000cd10 f   winplatform.obj
 0001:0000bd60       stbi_zlib_decode_malloc_guesssize 000000014000cd60 f   winplatform.obj
 0001:0000be60       stbi_zlib_decode_malloc_guesssize_headerflag 000000014000ce60 f   winplatform.obj
 0001:0000bf70       stbi_zlib_decode_malloc    000000014000cf70 f   winplatform.obj
 0001:0000bfb0       stbi_zlib_decode_buffer    000000014000cfb0 f   winplatform.obj
 0001:0000c070       stbi_zlib_decode_noheader_malloc 000000014000d070 f   winplatform.obj
 0001:0000c170       stbi_zlib_decode_noheader_buffer 000000014000d170 f   winplatform.obj
 0001:00025110       ?getGLFWKeyForInput@Platform@@YAHW4e_InputKey@@@Z 0000000140026110 f   winplatform.obj
 0001:000251a0       ??$?0HHH@?$tvec3@M$0A@@glm@@QEAA@AEBH00@Z 00000001400261a0 f i winplatform.obj
 0001:00025200       ??$?0HHHH@?$tvec4@M$0A@@glm@@QEAA@HHHH@Z 0000000140026200 f i winplatform.obj
 0001:00025260       ??$?0HHHM@?$tvec4@M$0A@@glm@@QEAA@HHHM@Z 0000000140026260 f i winplatform.obj
 0001:000252c0       ??$?0HHMH@?$tvec4@M$0A@@glm@@QEAA@HHMH@Z 00000001400262c0 f i winplatform.obj
 0001:00025320       ??$?0HMHH@?$tvec4@M$0A@@glm@@QEAA@HMHH@Z 0000000140026320 f i winplatform.obj
 0001:00025380       ??$?0MHHH@?$tvec4@M$0A@@glm@@QEAA@MHHH@Z 0000000140026380 f i winplatform.obj
 0001:000253e0       ??$?DM$0A@@glm@@YA?AU?$tmat4x4@M$0A@@0@AEBU10@0@Z 00000001400263e0 f i winplatform.obj
 0001:00025a30       ??$?DM$0A@@glm@@YA?AU?$tvec3@M$0A@@0@AEBMAEBU10@@Z 0000000140026a30 f i winplatform.obj
 0001:00025ab0       ??$?DM$0A@@glm@@YA?AU?$tvec3@M$0A@@0@AEBU10@0@Z 0000000140026ab0 f i winplatform.obj
 0001:00025b40       ??$?DM$0A@@glm@@YA?AU?$tvec3@M$0A@@0@AEBU10@AEBM@Z 0000000140026b40 f i winplatform.obj
 0001:00025bc0       ??$?DM$0A@@glm@@YA?AU?$tvec4@M$0A@@0@AEBU10@M@Z 0000000140026bc0 f i winplatform.obj
 0001:00025c40       ??$?GM$0A@@glm@@YA?AU?$tvec3@M$0A@@0@AEBU10@0@Z 0000000140026c40 f i winplatform.obj
 0001:00025cd0       ??$?HM$0A@@glm@@YA?AU?$tvec4@M$0A@@0@AEBU10@0@Z 0000000140026cd0 f i winplatform.obj
 0001:00025d60       ??$abs@M@glm@@YAMM@Z       0000000140026d60 f i winplatform.obj
 0001:00025d80       ??$component_count@U?$tvec3@M$0A@@glm@@@detail@glm@@YAHAEBU?$tvec3@M$0A@@1@@Z 0000000140026d80 f i winplatform.obj
 0001:00025da0       ??$component_count@U?$tvec4@M$0A@@glm@@@detail@glm@@YAHAEBU?$tvec4@M$0A@@1@@Z 0000000140026da0 f i winplatform.obj
 0001:00025dc0       ??$cross@M$0A@@glm@@YA?AU?$tvec3@M$0A@@0@AEBU10@0@Z 0000000140026dc0 f i winplatform.obj
 0001:00025e90       ??$dot@M$0A@Utvec3@glm@@@glm@@YAMAEBU?$tvec3@M$0A@@0@0@Z 0000000140026e90 f i winplatform.obj
 0001:00025ec0       ??$inversesqrt@M@glm@@YAMM@Z 0000000140026ec0 f i winplatform.obj
 0001:00025ef0       ??$lookAt@M$0A@@glm@@YA?AU?$tmat4x4@M$0A@@0@AEBU?$tvec3@M$0A@@0@00@Z 0000000140026ef0 f i winplatform.obj
 0001:00025f30       ??$lookAtRH@M$0A@@glm@@YA?AU?$tmat4x4@M$0A@@0@AEBU?$tvec3@M$0A@@0@00@Z 0000000140026f30 f i winplatform.obj
 0001:00026280       ??$normalize@M$0A@Utvec3@glm@@@glm@@YA?AU?$tvec3@M$0A@@0@AEBU10@@Z 0000000140027280 f i winplatform.obj
 0001:000262d0       ??$perspective@M@glm@@YA?AU?$tmat4x4@M$0A@@0@MMMM@Z 00000001400272d0 f i winplatform.obj
 0001:00026320       ??$perspectiveRH@M@glm@@YA?AU?$tmat4x4@M$0A@@0@MMMM@Z 0000000140027320 f i winplatform.obj
 0001:00026570       ??$radians@M@glm@@YAMM@Z   0000000140027570 f i winplatform.obj
 0001:00026590       ??$rotate@M$0A@@glm@@YA?AU?$tmat4x4@M$0A@@0@AEBU10@MAEBU?$tvec3@M$0A@@0@@Z 0000000140027590 f i winplatform.obj
 0001:00026ff0       ??0?$tmat4x4@M$0A@@glm@@QEAA@AEBM@Z 0000000140027ff0 f i winplatform.obj
 0001:00027140       ??0?$tmat4x4@M$0A@@glm@@QEAA@W4ctor@1@@Z 0000000140028140 f i winplatform.obj
 0001:00027180       ??0?$tmat4x4@M$0A@@glm@@QEAA@XZ 0000000140028180 f i winplatform.obj
 0001:000272b0       ??0?$tvec3@M$0A@@glm@@QEAA@AEBM00@Z 00000001400282b0 f i winplatform.obj
 0001:00027310       ??0?$tvec4@M$0A@@glm@@QEAA@MMMM@Z 0000000140028310 f i winplatform.obj
 0001:00027370       ??0?$tvec4@M$0A@@glm@@QEAA@XZ 0000000140028370 f i winplatform.obj
 0001:000273b0       ??1?$vector@GV?$allocator@G@std@@@std@@QEAA@XZ 00000001400283b0 f i winplatform.obj
 0001:000273d0       ??A?$tmat4x4@M$0A@@glm@@QEAAAEAU?$tvec4@M$0A@@1@H@Z 00000001400283d0 f i winplatform.obj
 0001:00027430       ??A?$tmat4x4@M$0A@@glm@@QEBAAEBU?$tvec4@M$0A@@1@H@Z 0000000140028430 f i winplatform.obj
 0001:00027490       ??A?$tvec3@M$0A@@glm@@QEAAAEAMH@Z 0000000140028490 f i winplatform.obj
 0001:000274f0       ??A?$tvec4@M$0A@@glm@@QEAAAEAMH@Z 00000001400284f0 f i winplatform.obj
 0001:00027550       ??A?$tvec4@M$0A@@glm@@QEBAAEBMH@Z 0000000140028550 f i winplatform.obj
 0001:000275b0       ??A?$vector@GV?$allocator@G@std@@@std@@QEAAAEAG_K@Z 00000001400285b0 f i winplatform.obj
 0001:000275e0       ??_H@YAXPEAX_K1P6APEAX0@Z@Z 00000001400285e0 f i winplatform.obj
 0001:00027640       ?_Tidy@?$vector@GV?$allocator@G@std@@@std@@AEAAXXZ 0000000140028640 f i winplatform.obj
 0001:00027710       ?call@?$compute_abs@M$00@detail@glm@@SAMM@Z 0000000140028710 f i winplatform.obj
 0001:00027760       ?call@?$compute_dot@Utvec3@glm@@M$0A@@detail@glm@@SAMAEBU?$tvec3@M$0A@@3@0@Z 0000000140028760 f i winplatform.obj
 0001:000277a0       ?cos@@YAMM@Z               00000001400287a0 f i winplatform.obj
 0001:000277c0       ?epsilon@?$numeric_limits@M@std@@SAMXZ 00000001400287c0 f i winplatform.obj
 0001:000277d0       ?ldexp@@YAMMH@Z            00000001400287d0 f i winplatform.obj
 0001:00027800       ?length@?$tmat4x4@M$0A@@glm@@QEBAHXZ 0000000140028800 f i winplatform.obj
 0001:00027800       ?length@?$tvec4@M$0A@@glm@@QEBAHXZ 0000000140028800 f i winplatform.obj
 0001:00027810       ?length@?$tvec3@M$0A@@glm@@QEBAHXZ 0000000140028810 f i winplatform.obj
 0001:00027820       ?pow@@YAMMM@Z              0000000140028820 f i winplatform.obj
 0001:00027850       ?sin@@YAMM@Z               0000000140028850 f i winplatform.obj
 0001:00027870       ?size@?$vector@GV?$allocator@G@std@@@std@@QEBA_KXZ 0000000140028870 f i winplatform.obj
 0001:000278a0       ?size@?$vector@U?$tvec2@M$0A@@glm@@V?$allocator@U?$tvec2@M$0A@@glm@@@std@@@std@@QEBA_KXZ 00000001400288a0 f i winplatform.obj
 0001:000278d0       ?sqrt@@YAMM@Z              00000001400288d0 f i winplatform.obj
 0001:000278f0       ?tan@@YAMM@Z               00000001400288f0 f i winplatform.obj
 0001:00027910       fprintf                    0000000140028910 f i winplatform.obj
 0001:00027960       ldexpf                     0000000140028960 f i winplatform.obj
 0001:00027990       ?Generate@GameWorld@@QEAA_NXZ 0000000140028990 f   world.obj
 0001:000279d0       ?Update@GameWorld@@QEAAXN@Z 00000001400289d0 f   world.obj
 0001:00027e80       ?ClearGameWorld@@YAXAEAVGameWorld@@@Z 0000000140028e80 f   world.obj
 0001:00027ec0       ??$_Emplace_back@UAirportObject@@@?$_Uninitialized_backout_al@V?$allocator@UAirportObject@@@std@@@std@@QEAAX$$QEAUAirportObject@@@Z 0000000140028ec0 f i world.obj
 0001:00027f20       ??$_Emplace_back@UPlaneObject@@@?$_Uninitialized_backout_al@V?$allocator@UPlaneObject@@@std@@@std@@QEAAX$$QEAUPlaneObject@@@Z 0000000140028f20 f i world.obj
 0001:00027f20       ??$_Emplace_back@UPlaneStats@@@?$_Uninitialized_backout_al@V?$allocator@UPlaneStats@@@std@@@std@@QEAAX$$QEAUPlaneStats@@@Z 0000000140028f20 f i world.obj
 0001:00027f80       ??$_Emplace_back_with_unused_capacity@AEBUAirportObject@@@?$vector@UAirportObject@@V?$allocator@UAirportObject@@@std@@@std@@AEAAXAEBUAirportObject@@@Z 0000000140028f80 f i world.obj
 0001:00028030       ??$_Emplace_back_with_unused_capacity@AEBUPlaneObject@@@?$vector@UPlaneObject@@V?$allocator@UPlaneObject@@@std@@@std@@AEAAXAEBUPlaneObject@@@Z 0000000140029030 f i world.obj
 0001:00028030       ??$_Emplace_back_with_unused_capacity@AEBUPlaneStats@@@?$vector@UPlaneStats@@V?$allocator@UPlaneStats@@@std@@@std@@AEAAXAEBUPlaneStats@@@Z 0000000140029030 f i world.obj
 0001:000280e0       ??$_Emplace_reallocate@AEBUAirportObject@@@?$vector@UAirportObject@@V?$allocator@UAirportObject@@@std@@@std@@QEAAPEAUAirportObject@@QEAU2@AEBU2@@Z 00000001400290e0 f i world.obj
 0001:00028300       ??$_Emplace_reallocate@AEBUPlaneObject@@@?$vector@UPlaneObject@@V?$allocator@UPlaneObject@@@std@@@std@@QEAAPEAUPlaneObject@@QEAU2@AEBU2@@Z 0000000140029300 f i world.obj
 0001:00028300       ??$_Emplace_reallocate@AEBUPlaneStats@@@?$vector@UPlaneStats@@V?$allocator@UPlaneStats@@@std@@@std@@QEAAPEAUPlaneStats@@QEAU2@AEBU2@@Z 0000000140029300 f i world.obj
 0001:00028520       ??$_Get_size_of_n@$0CA@@std@@YA_K_K@Z 0000000140029520 f i world.obj
 0001:00028560       ??$_Uninitialized_move@PEAUAirportObject@@V?$allocator@UAirportObject@@@std@@@std@@YAPEAUAirportObject@@QEAU1@0PEAU1@AEAV?$allocator@UAirportObject@@@0@@Z 0000000140029560 f i world.obj
 0001:00028610       ??$_Uninitialized_move@PEAUPlaneStats@@V?$allocator@UPlaneStats@@@std@@@std@@YAPEAUPlaneStats@@QEAU1@0PEAU1@AEAV?$allocator@UPlaneStats@@@0@@Z 0000000140029610 f i world.obj
 0001:00028610       ??$_Uninitialized_move@PEAUPlaneObject@@V?$allocator@UPlaneObject@@@std@@@std@@YAPEAUPlaneObject@@QEAU1@0PEAU1@AEAV?$allocator@UPlaneObject@@@0@@Z 0000000140029610 f i world.obj
 0001:000286c0       ??$construct@UAirportObject@@U1@@?$_Default_allocator_traits@V?$allocator@UAirportObject@@@std@@@std@@SAXAEAV?$allocator@UAirportObject@@@1@QEAUAirportObject@@$$QEAU3@@Z 00000001400296c0 f i world.obj
 0001:000286c0       ??$construct@UAirportObject@@AEBU1@@?$_Default_allocator_traits@V?$allocator@UAirportObject@@@std@@@std@@SAXAEAV?$allocator@UAirportObject@@@1@QEAUAirportObject@@AEBU3@@Z 00000001400296c0 f i world.obj
 0001:00028710       ??$construct@UPlaneStats@@U1@@?$_Default_allocator_traits@V?$allocator@UPlaneStats@@@std@@@std@@SAXAEAV?$allocator@UPlaneStats@@@1@QEAUPlaneStats@@$$QEAU3@@Z 0000000140029710 f i world.obj
 0001:00028710       ??$construct@UPlaneStats@@AEBU1@@?$_Default_allocator_traits@V?$allocator@UPlaneStats@@@std@@@std@@SAXAEAV?$allocator@UPlaneStats@@@1@QEAUPlaneStats@@AEBU3@@Z 0000000140029710 f i world.obj
 0001:00028710       ??$construct@UPlaneObject@@U1@@?$_Default_allocator_traits@V?$allocator@UPlaneObject@@@std@@@std@@SAXAEAV?$allocator@UPlaneObject@@@1@QEAUPlaneObject@@$$QEAU3@@Z 0000000140029710 f i world.obj
 0001:00028710       ??$construct@UPlaneObject@@AEBU1@@?$_Default_allocator_traits@V?$allocator@UPlaneObject@@@std@@@std@@SAXAEAV?$allocator@UPlaneObject@@@1@QEAUPlaneObject@@AEBU3@@Z 0000000140029710 f i world.obj
 0001:00028760       ??$emplace_back@AEBUAirportObject@@@?$vector@UAirportObject@@V?$allocator@UAirportObject@@@std@@@std@@QEAAXAEBUAirportObject@@@Z 0000000140029760 f i world.obj
 0001:000287e0       ??$emplace_back@AEBUPlaneObject@@@?$vector@UPlaneObject@@V?$allocator@UPlaneObject@@@std@@@std@@QEAAXAEBUPlaneObject@@@Z 00000001400297e0 f i world.obj
 0001:000287e0       ??$emplace_back@AEBUPlaneStats@@@?$vector@UPlaneStats@@V?$allocator@UPlaneStats@@@std@@@std@@QEAAXAEBUPlaneStats@@@Z 00000001400297e0 f i world.obj
 0001:00028860       ??0AirportObject@@QEAA@XZ  0000000140029860 f i world.obj
 0001:000288d0       ??0PlaneObject@@QEAA@XZ    00000001400298d0 f i world.obj
 0001:00028970       ??0PlaneStats@@QEAA@PEBD0@Z 0000000140029970 f i world.obj
 0001:00028a30       ??A?$vector@UAirportObject@@V?$allocator@UAirportObject@@@std@@@std@@QEAAAEAUAirportObject@@_K@Z 0000000140029a30 f i world.obj
 0001:00028a60       ??A?$vector@UPlaneStats@@V?$allocator@UPlaneStats@@@std@@@std@@QEAAAEAUPlaneStats@@_K@Z 0000000140029a60 f i world.obj
 0001:00028a90       ?_Calculate_growth@?$vector@UAirportObject@@V?$allocator@UAirportObject@@@std@@@std@@AEBA_K_K@Z 0000000140029a90 f i world.obj
 0001:00028b20       ?_Calculate_growth@?$vector@UPlaneStats@@V?$allocator@UPlaneStats@@@std@@@std@@AEBA_K_K@Z 0000000140029b20 f i world.obj
 0001:00028b20       ?_Calculate_growth@?$vector@UPlaneObject@@V?$allocator@UPlaneObject@@@std@@@std@@AEBA_K_K@Z 0000000140029b20 f i world.obj
 0001:00028bb0       ?_Change_array@?$vector@UAirportObject@@V?$allocator@UAirportObject@@@std@@@std@@AEAAXQEAUAirportObject@@_K1@Z 0000000140029bb0 f i world.obj
 0001:00028cb0       ?_Change_array@?$vector@UPlaneObject@@V?$allocator@UPlaneObject@@@std@@@std@@AEAAXQEAUPlaneObject@@_K1@Z 0000000140029cb0 f i world.obj
 0001:00028cb0       ?_Change_array@?$vector@UPlaneStats@@V?$allocator@UPlaneStats@@@std@@@std@@AEAAXQEAUPlaneStats@@_K1@Z 0000000140029cb0 f i world.obj
 0001:00028db0       ?_Umove@?$vector@UAirportObject@@V?$allocator@UAirportObject@@@std@@@std@@AEAAPEAUAirportObject@@PEAU3@00@Z 0000000140029db0 f i world.obj
 0001:00028db0       ?_Umove_if_noexcept1@?$vector@UAirportObject@@V?$allocator@UAirportObject@@@std@@@std@@AEAAXPEAUAirportObject@@00U?$integral_constant@_N$00@2@@Z 0000000140029db0 f i world.obj
 0001:00028df0       ?_Umove@?$vector@UPlaneObject@@V?$allocator@UPlaneObject@@@std@@@std@@AEAAPEAUPlaneObject@@PEAU3@00@Z 0000000140029df0 f i world.obj
 0001:00028df0       ?_Umove@?$vector@UPlaneStats@@V?$allocator@UPlaneStats@@@std@@@std@@AEAAPEAUPlaneStats@@PEAU3@00@Z 0000000140029df0 f i world.obj
 0001:00028df0       ?_Umove_if_noexcept1@?$vector@UPlaneStats@@V?$allocator@UPlaneStats@@@std@@@std@@AEAAXPEAUPlaneStats@@00U?$integral_constant@_N$00@2@@Z 0000000140029df0 f i world.obj
 0001:00028df0       ?_Umove_if_noexcept1@?$vector@UPlaneObject@@V?$allocator@UPlaneObject@@@std@@@std@@AEAAXPEAUPlaneObject@@00U?$integral_constant@_N$00@2@@Z 0000000140029df0 f i world.obj
 0001:00028e30       ?_Umove_if_noexcept@?$vector@UAirportObject@@V?$allocator@UAirportObject@@@std@@@std@@AEAAXPEAUAirportObject@@00@Z 0000000140029e30 f i world.obj
 0001:00028e90       ?_Umove_if_noexcept@?$vector@UPlaneStats@@V?$allocator@UPlaneStats@@@std@@@std@@AEAAXPEAUPlaneStats@@00@Z 0000000140029e90 f i world.obj
 0001:00028e90       ?_Umove_if_noexcept@?$vector@UPlaneObject@@V?$allocator@UPlaneObject@@@std@@@std@@AEAAXPEAUPlaneObject@@00@Z 0000000140029e90 f i world.obj
 0001:00028ef0       ?allocate@?$allocator@UAirportObject@@@std@@QEAAPEAUAirportObject@@_K@Z 0000000140029ef0 f i world.obj
 0001:00028f20       ?capacity@?$vector@UAirportObject@@V?$allocator@UAirportObject@@@std@@@std@@QEBA_KXZ 0000000140029f20 f i world.obj
 0001:00028f50       ?capacity@?$vector@UPlaneObject@@V?$allocator@UPlaneObject@@@std@@@std@@QEBA_KXZ 0000000140029f50 f i world.obj
 0001:00028f50       ?capacity@?$vector@UPlaneStats@@V?$allocator@UPlaneStats@@@std@@@std@@QEBA_KXZ 0000000140029f50 f i world.obj
 0001:00028f80       ?clear@?$vector@UPlaneObject@@V?$allocator@UPlaneObject@@@std@@@std@@QEAAXXZ 0000000140029f80 f i world.obj
 0001:00028f80       ?clear@?$vector@UAirportObject@@V?$allocator@UAirportObject@@@std@@@std@@QEAAXXZ 0000000140029f80 f i world.obj
 0001:00028f80       ?clear@?$vector@UPlaneStats@@V?$allocator@UPlaneStats@@@std@@@std@@QEAAXXZ 0000000140029f80 f i world.obj
 0001:00028ff0       ?max_size@?$_Default_allocator_traits@V?$allocator@UAirportObject@@@std@@@std@@SA_KAEBV?$allocator@UAirportObject@@@2@@Z 0000000140029ff0 f i world.obj
 0001:00029000       ?max_size@?$vector@UAirportObject@@V?$allocator@UAirportObject@@@std@@@std@@QEBA_KXZ 000000014002a000 f i world.obj
 0001:00029050       ?push_back@?$vector@UAirportObject@@V?$allocator@UAirportObject@@@std@@@std@@QEAAXAEBUAirportObject@@@Z 000000014002a050 f i world.obj
 0001:00029080       ?push_back@?$vector@UPlaneStats@@V?$allocator@UPlaneStats@@@std@@@std@@QEAAXAEBUPlaneStats@@@Z 000000014002a080 f i world.obj
 0001:00029080       ?push_back@?$vector@UPlaneObject@@V?$allocator@UPlaneObject@@@std@@@std@@QEAAXAEBUPlaneObject@@@Z 000000014002a080 f i world.obj
 0001:000290b0       ?size@?$vector@UAirportObject@@V?$allocator@UAirportObject@@@std@@@std@@QEBA_KXZ 000000014002a0b0 f i world.obj
 0001:000290e0       _vsprintf_s_l              000000014002a0e0 f i world.obj
 0001:00029150       sprintf_s                  000000014002a150 f i world.obj
 0001:000291b0       glewInit                   000000014002a1b0 f   GLEW_1130_DEBUG:glew.obj
 0001:000291f0       glewIsSupported            000000014002a1f0 f   GLEW_1130_DEBUG:glew.obj
 0001:00030c20       glewGetExtension           0000000140031c20 f   GLEW_1130_DEBUG:glew.obj
 0001:00030ca0       glewGetErrorString         0000000140031ca0 f   GLEW_1130_DEBUG:glew.obj
 0001:00030d00       glewGetString              0000000140031d00 f   GLEW_1130_DEBUG:glew.obj
 0001:00030d60       wglewInit                  0000000140031d60 f   GLEW_1130_DEBUG:glew.obj
 0001:00031d60       wglewIsSupported           0000000140032d60 f   GLEW_1130_DEBUG:glew.obj
 0001:00032a40       wglewGetExtension          0000000140033a40 f   GLEW_1130_DEBUG:glew.obj
 0001:00069b10       glfwInit                   000000014006ab10 f   glfw3_DEBUG:init.obj
 0001:00069b90       glfwTerminate              000000014006ab90 f   glfw3_DEBUG:init.obj
 0001:00069cb0       glfwGetVersion             000000014006acb0 f   glfw3_DEBUG:init.obj
 0001:00069d10       glfwGetVersionString       000000014006ad10 f   glfw3_DEBUG:init.obj
 0001:00069d40       glfwSetErrorCallback       000000014006ad40 f   glfw3_DEBUG:init.obj
 0001:00069d90       _glfwInputError            000000014006ad90 f   glfw3_DEBUG:init.obj
 0001:00069fb0       vsnprintf                  000000014006afb0 f i glfw3_DEBUG:init.obj
 0001:0006a040       glfwDefaultWindowHints     000000014006b040 f   glfw3_DEBUG:window.obj
 0001:0006a130       glfwWindowHint             000000014006b130 f   glfw3_DEBUG:window.obj
 0001:0006a5a0       glfwCreateWindow           000000014006b5a0 f   glfw3_DEBUG:window.obj
 0001:0006aa10       glfwDestroyWindow          000000014006ba10 f   glfw3_DEBUG:window.obj
 0001:0006ab10       glfwWindowShouldClose      000000014006bb10 f   glfw3_DEBUG:window.obj
 0001:0006ab70       glfwSetWindowShouldClose   000000014006bb70 f   glfw3_DEBUG:window.obj
 0001:0006abd0       glfwSetWindowTitle         000000014006bbd0 f   glfw3_DEBUG:window.obj
 0001:0006ac40       glfwGetWindowPos           000000014006bc40 f   glfw3_DEBUG:window.obj
 0001:0006ace0       glfwSetWindowPos           000000014006bce0 f   glfw3_DEBUG:window.obj
 0001:0006ad70       glfwGetWindowSize          000000014006bd70 f   glfw3_DEBUG:window.obj
 0001:0006ae10       glfwSetWindowSize          000000014006be10 f   glfw3_DEBUG:window.obj
 0001:0006aea0       glfwGetFramebufferSize     000000014006bea0 f   glfw3_DEBUG:window.obj
 0001:0006af40       glfwGetWindowFrameSize     000000014006bf40 f   glfw3_DEBUG:window.obj
 0001:0006b010       glfwIconifyWindow          000000014006c010 f   glfw3_DEBUG:window.obj
 0001:0006b070       glfwRestoreWindow          000000014006c070 f   glfw3_DEBUG:window.obj
 0001:0006b0d0       glfwShowWindow             000000014006c0d0 f   glfw3_DEBUG:window.obj
 0001:0006b140       glfwHideWindow             000000014006c140 f   glfw3_DEBUG:window.obj
 0001:0006b1b0       glfwGetWindowMonitor       000000014006c1b0 f   glfw3_DEBUG:window.obj
 0001:0006b210       glfwGetWindowAttrib        000000014006c210 f   glfw3_DEBUG:window.obj
 0001:0006b410       glfwSetWindowUserPointer   000000014006c410 f   glfw3_DEBUG:window.obj
 0001:0006b470       glfwGetWindowUserPointer   000000014006c470 f   glfw3_DEBUG:window.obj
 0001:0006b4d0       glfwSetWindowPosCallback   000000014006c4d0 f   glfw3_DEBUG:window.obj
 0001:0006b560       glfwSetWindowSizeCallback  000000014006c560 f   glfw3_DEBUG:window.obj
 0001:0006b5f0       glfwSetWindowCloseCallback 000000014006c5f0 f   glfw3_DEBUG:window.obj
 0001:0006b680       glfwSetWindowRefreshCallback 000000014006c680 f   glfw3_DEBUG:window.obj
 0001:0006b710       glfwSetWindowFocusCallback 000000014006c710 f   glfw3_DEBUG:window.obj
 0001:0006b7a0       glfwSetWindowIconifyCallback 000000014006c7a0 f   glfw3_DEBUG:window.obj
 0001:0006b830       glfwSetFramebufferSizeCallback 000000014006c830 f   glfw3_DEBUG:window.obj
 0001:0006b8c0       glfwPollEvents             000000014006c8c0 f   glfw3_DEBUG:window.obj
 0001:0006b900       glfwWaitEvents             000000014006c900 f   glfw3_DEBUG:window.obj
 0001:0006b950       glfwPostEmptyEvent         000000014006c950 f   glfw3_DEBUG:window.obj
 0001:0006b9a0       _glfwInputWindowFocus      000000014006c9a0 f   glfw3_DEBUG:window.obj
 0001:0006bae0       _glfwInputWindowPos        000000014006cae0 f   glfw3_DEBUG:window.obj
 0001:0006bb40       _glfwInputWindowSize       000000014006cb40 f   glfw3_DEBUG:window.obj
 0001:0006bba0       _glfwInputFramebufferSize  000000014006cba0 f   glfw3_DEBUG:window.obj
 0001:0006bc00       _glfwInputWindowIconify    000000014006cc00 f   glfw3_DEBUG:window.obj
 0001:0006bc60       _glfwInputWindowDamage     000000014006cc60 f   glfw3_DEBUG:window.obj
 0001:0006bcb0       _glfwInputWindowCloseRequest 000000014006ccb0 f   glfw3_DEBUG:window.obj
 0001:0006bd00       glfwGetInputMode           000000014006cd00 f   glfw3_DEBUG:input.obj
 0001:0006bdb0       glfwSetInputMode           000000014006cdb0 f   glfw3_DEBUG:input.obj
 0001:0006beb0       glfwGetKey                 000000014006ceb0 f   glfw3_DEBUG:input.obj
 0001:0006bf70       glfwGetMouseButton         000000014006cf70 f   glfw3_DEBUG:input.obj
 0001:0006c020       glfwGetCursorPos           000000014006d020 f   glfw3_DEBUG:input.obj
 0001:0006c100       glfwSetCursorPos           000000014006d100 f   glfw3_DEBUG:input.obj
 0001:0006c1b0       glfwCreateCursor           000000014006d1b0 f   glfw3_DEBUG:input.obj
 0001:0006c260       glfwCreateStandardCursor   000000014006d260 f   glfw3_DEBUG:input.obj
 0001:0006c350       glfwDestroyCursor          000000014006d350 f   glfw3_DEBUG:input.obj
 0001:0006c440       glfwSetCursor              000000014006d440 f   glfw3_DEBUG:input.obj
 0001:0006c4c0       glfwSetKeyCallback         000000014006d4c0 f   glfw3_DEBUG:input.obj
 0001:0006c550       glfwSetCharCallback        000000014006d550 f   glfw3_DEBUG:input.obj
 0001:0006c5e0       glfwSetCharModsCallback    000000014006d5e0 f   glfw3_DEBUG:input.obj
 0001:0006c670       glfwSetMouseButtonCallback 000000014006d670 f   glfw3_DEBUG:input.obj
 0001:0006c700       glfwSetCursorPosCallback   000000014006d700 f   glfw3_DEBUG:input.obj
 0001:0006c790       glfwSetCursorEnterCallback 000000014006d790 f   glfw3_DEBUG:input.obj
 0001:0006c820       glfwSetScrollCallback      000000014006d820 f   glfw3_DEBUG:input.obj
 0001:0006c8b0       glfwSetDropCallback        000000014006d8b0 f   glfw3_DEBUG:input.obj
 0001:0006c940       glfwJoystickPresent        000000014006d940 f   glfw3_DEBUG:input.obj
 0001:0006c9b0       glfwGetJoystickAxes        000000014006d9b0 f   glfw3_DEBUG:input.obj
 0001:0006ca40       glfwGetJoystickButtons     000000014006da40 f   glfw3_DEBUG:input.obj
 0001:0006cad0       glfwGetJoystickName        000000014006dad0 f   glfw3_DEBUG:input.obj
 0001:0006cb40       glfwSetClipboardString     000000014006db40 f   glfw3_DEBUG:input.obj
 0001:0006cbb0       glfwGetClipboardString     000000014006dbb0 f   glfw3_DEBUG:input.obj
 0001:0006cc10       glfwGetTime                000000014006dc10 f   glfw3_DEBUG:input.obj
 0001:0006cc60       glfwSetTime                000000014006dc60 f   glfw3_DEBUG:input.obj
 0001:0006ccf0       _glfwInputKey              000000014006dcf0 f   glfw3_DEBUG:input.obj
 0001:0006ce10       _glfwInputChar             000000014006de10 f   glfw3_DEBUG:input.obj
 0001:0006cec0       _glfwInputScroll           000000014006dec0 f   glfw3_DEBUG:input.obj
 0001:0006cf30       _glfwInputMouseClick       000000014006df30 f   glfw3_DEBUG:input.obj
 0001:0006cfe0       _glfwInputCursorMotion     000000014006dfe0 f   glfw3_DEBUG:input.obj
 0001:0006d0d0       _glfwInputCursorEnter      000000014006e0d0 f   glfw3_DEBUG:input.obj
 0001:0006d130       _glfwInputDrop             000000014006e130 f   glfw3_DEBUG:input.obj
 0001:0006d450       glfwMakeContextCurrent     000000014006e450 f   glfw3_DEBUG:context.obj
 0001:0006d4b0       glfwGetCurrentContext      000000014006e4b0 f   glfw3_DEBUG:context.obj
 0001:0006d500       glfwSwapBuffers            000000014006e500 f   glfw3_DEBUG:context.obj
 0001:0006d560       glfwSwapInterval           000000014006e560 f   glfw3_DEBUG:context.obj
 0001:0006d5d0       glfwExtensionSupported     000000014006e5d0 f   glfw3_DEBUG:context.obj
 0001:0006d770       glfwGetProcAddress         000000014006e770 f   glfw3_DEBUG:context.obj
 0001:0006d7e0       _glfwStringInExtensionString 000000014006e7e0 f   glfw3_DEBUG:context.obj
 0001:0006d8a0       _glfwChooseFBConfig        000000014006e8a0 f   glfw3_DEBUG:context.obj
 0001:0006dd70       _glfwRefreshContextAttribs 000000014006ed70 f   glfw3_DEBUG:context.obj
 0001:0006e100       _glfwIsValidContextConfig  000000014006f100 f   glfw3_DEBUG:context.obj
 0001:0006e390       _glfwIsValidContext        000000014006f390 f   glfw3_DEBUG:context.obj
 0001:0006e5e0       _vsscanf_l                 000000014006f5e0 f i glfw3_DEBUG:context.obj
 0001:0006e650       sscanf                     000000014006f650 f i glfw3_DEBUG:context.obj
 0001:0006e6d0       _glfwIsCompositionEnabled  000000014006f6d0 f   glfw3_DEBUG:win32_init.obj
 0001:0006e730       _glfwCreateWideStringFromUTF8 000000014006f730 f   glfw3_DEBUG:win32_init.obj
 0001:0006e7f0       _glfwCreateUTF8FromWideString 000000014006f7f0 f   glfw3_DEBUG:win32_init.obj
 0001:0006e8d0       _glfwPlatformInit          000000014006f8d0 f   glfw3_DEBUG:win32_init.obj
 0001:0006e980       _glfwPlatformTerminate     000000014006f980 f   glfw3_DEBUG:win32_init.obj
 0001:0006e9f0       _glfwPlatformGetVersionString 000000014006f9f0 f   glfw3_DEBUG:win32_init.obj
 0001:0006f810       UIntToPtr                  0000000140070810 f i glfw3_DEBUG:win32_init.obj
 0001:0006f820       _glfwSetVideoMode          0000000140070820 f   glfw3_DEBUG:win32_monitor.obj
 0001:0006f9c0       _glfwRestoreVideoMode      00000001400709c0 f   glfw3_DEBUG:win32_monitor.obj
 0001:0006fa30       _glfwPlatformGetMonitors   0000000140070a30 f   glfw3_DEBUG:win32_monitor.obj
 0001:0006fde0       _glfwPlatformIsSameMonitor 0000000140070de0 f   glfw3_DEBUG:win32_monitor.obj
 0001:0006fe50       _glfwPlatformGetMonitorPos 0000000140070e50 f   glfw3_DEBUG:win32_monitor.obj
 0001:0006ff40       _glfwPlatformGetVideoModes 0000000140070f40 f   glfw3_DEBUG:win32_monitor.obj
 0001:000701c0       _glfwPlatformGetVideoMode  00000001400711c0 f   glfw3_DEBUG:win32_monitor.obj
 0001:000702d0       _glfwPlatformGetGammaRamp  00000001400712d0 f   glfw3_DEBUG:win32_monitor.obj
 0001:000703f0       _glfwPlatformSetGammaRamp  00000001400713f0 f   glfw3_DEBUG:win32_monitor.obj
 0001:00070530       glfwGetWin32Adapter        0000000140071530 f   glfw3_DEBUG:win32_monitor.obj
 0001:00070590       glfwGetWin32Monitor        0000000140071590 f   glfw3_DEBUG:win32_monitor.obj
 0001:000705f0       glfwGetMonitors            00000001400715f0 f   glfw3_DEBUG:monitor.obj
 0001:00070660       glfwGetPrimaryMonitor      0000000140071660 f   glfw3_DEBUG:monitor.obj
 0001:000706c0       glfwGetMonitorPos          00000001400716c0 f   glfw3_DEBUG:monitor.obj
 0001:00070760       glfwGetMonitorPhysicalSize 0000000140071760 f   glfw3_DEBUG:monitor.obj
 0001:00070810       glfwGetMonitorName         0000000140071810 f   glfw3_DEBUG:monitor.obj
 0001:00070870       glfwSetMonitorCallback     0000000140071870 f   glfw3_DEBUG:monitor.obj
 0001:000708e0       glfwGetVideoModes          00000001400718e0 f   glfw3_DEBUG:monitor.obj
 0001:00070970       glfwGetVideoMode           0000000140071970 f   glfw3_DEBUG:monitor.obj
 0001:000709e0       glfwSetGamma               00000001400719e0 f   glfw3_DEBUG:monitor.obj
 0001:00070bb0       glfwGetGammaRamp           0000000140071bb0 f   glfw3_DEBUG:monitor.obj
 0001:00070c30       glfwSetGammaRamp           0000000140071c30 f   glfw3_DEBUG:monitor.obj
 0001:00070cc0       _glfwInputMonitorChange    0000000140071cc0 f   glfw3_DEBUG:monitor.obj
 0001:00070f60       _glfwChooseVideoMode       0000000140071f60 f   glfw3_DEBUG:monitor.obj
 0001:000711a0       _glfwCompareVideoModes     00000001400721a0 f   glfw3_DEBUG:monitor.obj
 0001:000711e0       _glfwSplitBPP              00000001400721e0 f   glfw3_DEBUG:monitor.obj
 0001:000712a0       _glfwAllocGammaArrays      00000001400722a0 f   glfw3_DEBUG:monitor.obj
 0001:00071330       _glfwFreeGammaArrays       0000000140072330 f   glfw3_DEBUG:monitor.obj
 0001:000713a0       _glfwAllocMonitor          00000001400723a0 f   glfw3_DEBUG:monitor.obj
 0001:00071420       _glfwFreeMonitor           0000000140072420 f   glfw3_DEBUG:monitor.obj
 0001:000714a0       _glfwFreeMonitors          00000001400724a0 f   glfw3_DEBUG:monitor.obj
 0001:000716c0       _glfwRegisterWindowClass   00000001400726c0 f   glfw3_DEBUG:win32_window.obj
 0001:000717c0       _glfwUnregisterWindowClass 00000001400727c0 f   glfw3_DEBUG:win32_window.obj
 0001:00071800       _glfwPlatformGetCursorPos  0000000140072800 f   glfw3_DEBUG:win32_window.obj
 0001:000718a0       _glfwPlatformSetCursorPos  00000001400728a0 f   glfw3_DEBUG:win32_window.obj
 0001:00071940       _glfwPlatformApplyCursorMode 0000000140072940 f   glfw3_DEBUG:win32_window.obj
 0001:000719c0       _glfwPlatformSetClipboardString 00000001400729c0 f   glfw3_DEBUG:win32_window.obj
 0001:00071b00       _glfwPlatformGetClipboardString 0000000140072b00 f   glfw3_DEBUG:win32_window.obj
 0001:00071bf0       _glfwPlatformCreateWindow  0000000140072bf0 f   glfw3_DEBUG:win32_window.obj
 0001:00071ce0       _glfwPlatformDestroyWindow 0000000140072ce0 f   glfw3_DEBUG:win32_window.obj
 0001:00071d30       _glfwPlatformSetWindowTitle 0000000140072d30 f   glfw3_DEBUG:win32_window.obj
 0001:00071db0       _glfwPlatformGetWindowPos  0000000140072db0 f   glfw3_DEBUG:win32_window.obj
 0001:00071e40       _glfwPlatformSetWindowPos  0000000140072e40 f   glfw3_DEBUG:win32_window.obj
 0001:00071f50       _glfwPlatformGetWindowSize 0000000140072f50 f   glfw3_DEBUG:win32_window.obj
 0001:00072000       _glfwPlatformSetWindowSize 0000000140073000 f   glfw3_DEBUG:win32_window.obj
 0001:000720d0       _glfwPlatformGetFramebufferSize 00000001400730d0 f   glfw3_DEBUG:win32_window.obj
 0001:00072120       _glfwPlatformGetWindowFrameSize 0000000140073120 f   glfw3_DEBUG:win32_window.obj
 0001:00072290       _glfwPlatformIconifyWindow 0000000140073290 f   glfw3_DEBUG:win32_window.obj
 0001:000722e0       _glfwPlatformRestoreWindow 00000001400732e0 f   glfw3_DEBUG:win32_window.obj
 0001:00072330       _glfwPlatformShowWindow    0000000140073330 f   glfw3_DEBUG:win32_window.obj
 0001:000723b0       _glfwPlatformUnhideWindow  00000001400733b0 f   glfw3_DEBUG:win32_window.obj
 0001:00072400       _glfwPlatformHideWindow    0000000140073400 f   glfw3_DEBUG:win32_window.obj
 0001:00072440       _glfwPlatformWindowFocused 0000000140073440 f   glfw3_DEBUG:win32_window.obj
 0001:000724a0       _glfwPlatformWindowIconified 00000001400734a0 f   glfw3_DEBUG:win32_window.obj
 0001:000724e0       _glfwPlatformWindowVisible 00000001400734e0 f   glfw3_DEBUG:win32_window.obj
 0001:00072520       _glfwPlatformPollEvents    0000000140073520 f   glfw3_DEBUG:win32_window.obj
 0001:00072750       _glfwPlatformWaitEvents    0000000140073750 f   glfw3_DEBUG:win32_window.obj
 0001:00072780       _glfwPlatformPostEmptyEvent 0000000140073780 f   glfw3_DEBUG:win32_window.obj
 0001:000727d0       _glfwPlatformCreateCursor  00000001400737d0 f   glfw3_DEBUG:win32_window.obj
 0001:00072b10       _glfwPlatformCreateStandardCursor 0000000140073b10 f   glfw3_DEBUG:win32_window.obj
 0001:00072b90       _glfwPlatformDestroyCursor 0000000140073b90 f   glfw3_DEBUG:win32_window.obj
 0001:00072be0       _glfwPlatformSetCursor     0000000140073be0 f   glfw3_DEBUG:win32_window.obj
 0001:000747f0       glfwGetWin32Window         00000001400757f0 f   glfw3_DEBUG:win32_window.obj
 0001:00074850       _glfwInitContextAPI        0000000140075850 f   glfw3_DEBUG:wgl_context.obj
 0001:00074990       _glfwTerminateContextAPI   0000000140075990 f   glfw3_DEBUG:wgl_context.obj
 0001:000749d0       _glfwCreateContext         00000001400759d0 f   glfw3_DEBUG:wgl_context.obj
 0001:00075230       _glfwDestroyContext        0000000140076230 f   glfw3_DEBUG:wgl_context.obj
 0001:000752d0       _glfwAnalyzeContext        00000001400762d0 f   glfw3_DEBUG:wgl_context.obj
 0001:000754e0       _glfwPlatformMakeContextCurrent 00000001400764e0 f   glfw3_DEBUG:wgl_context.obj
 0001:00075550       _glfwPlatformSwapBuffers   0000000140076550 f   glfw3_DEBUG:wgl_context.obj
 0001:000755e0       _glfwPlatformSwapInterval  00000001400765e0 f   glfw3_DEBUG:wgl_context.obj
 0001:00075660       _glfwPlatformExtensionSupported 0000000140076660 f   glfw3_DEBUG:wgl_context.obj
 0001:00075730       _glfwPlatformGetProcAddress 0000000140076730 f   glfw3_DEBUG:wgl_context.obj
 0001:00075fd0       glfwGetWGLContext          0000000140076fd0 f   glfw3_DEBUG:wgl_context.obj
 0001:00076030       _glfwCreateContextTLS      0000000140077030 f   glfw3_DEBUG:win32_tls.obj
 0001:00076090       _glfwDestroyContextTLS     0000000140077090 f   glfw3_DEBUG:win32_tls.obj
 0001:000760d0       _glfwSetContextTLS         00000001400770d0 f   glfw3_DEBUG:win32_tls.obj
 0001:00076110       _glfwPlatformGetCurrentContext 0000000140077110 f   glfw3_DEBUG:win32_tls.obj
 0001:00076140       _glfwInitJoysticks         0000000140077140 f   glfw3_DEBUG:winmm_joystick.obj
 0001:00076150       _glfwTerminateJoysticks    0000000140077150 f   glfw3_DEBUG:winmm_joystick.obj
 0001:000761b0       _glfwPlatformJoystickPresent 00000001400771b0 f   glfw3_DEBUG:winmm_joystick.obj
 0001:00076230       _glfwPlatformGetJoystickAxes 0000000140077230 f   glfw3_DEBUG:winmm_joystick.obj
 0001:00076510       _glfwPlatformGetJoystickButtons 0000000140077510 f   glfw3_DEBUG:winmm_joystick.obj
 0001:00076810       _glfwPlatformGetJoystickName 0000000140077810 f   glfw3_DEBUG:winmm_joystick.obj
 0001:00076980       _glfwInitTimer             0000000140077980 f   glfw3_DEBUG:win32_time.obj
 0001:00076a20       _glfwPlatformGetTime       0000000140077a20 f   glfw3_DEBUG:win32_time.obj
 0001:00076a70       _glfwPlatformSetTime       0000000140077a70 f   glfw3_DEBUG:win32_time.obj
 0001:00076b47       ?_Xlength_error@std@@YAXPEBD@Z 0000000140077b47 f   msvcprt:MSVCP140.dll
 0001:00076b4d       ?_Xout_of_range@std@@YAXPEBD@Z 0000000140077b4d f   msvcprt:MSVCP140.dll
 0001:00076b54       ?_Facet_Register@std@@YAXPEAV_Facet_base@1@@Z 0000000140077b54 f   msvcprt:locale0_implib.obj
 0001:00076b8c       ?_Getgloballocale@locale@std@@CAPEAV_Locimp@12@XZ 0000000140077b8c f   msvcprt:MSVCP140.dll
 0001:00076b92       ?_Fiopen@std@@YAPEAU_iobuf@@PEBDHH@Z 0000000140077b92 f   msvcprt:MSVCP140.dll
 0001:00076b98       ?showmanyc@?$basic_streambuf@DU?$char_traits@D@std@@@std@@MEAA_JXZ 0000000140077b98 f   msvcprt:MSVCP140.dll
 0001:00076ba0       ??3@YAXPEAX_K@Z            0000000140077ba0 f   MSVCRT:delete_scalar_size.obj
 0001:00076ba8       __GSHandlerCheck_EH4       0000000140077ba8 f   MSVCRT:gshandlereh4.obj
 0001:00076c40       __security_check_cookie    0000000140077c40 f   MSVCRT:amdsecgs.obj
 0001:00076c64       ??2@YAPEAX_K@Z             0000000140077c64 f   MSVCRT:new_scalar.obj
 0001:00076ca0       ??_Etype_info@@UEAAPEAXI@Z 0000000140077ca0 f i MSVCRT:std_type_info_static.obj
 0001:00076ca0       ??_Gtype_info@@UEAAPEAXI@Z 0000000140077ca0 f i MSVCRT:std_type_info_static.obj
 0001:00076ccc       __GSHandlerCheck           0000000140077ccc f   MSVCRT:gshandler.obj
 0001:00076cec       __GSHandlerCheckCommon     0000000140077cec f   MSVCRT:gshandler.obj
 0001:00076d48       __scrt_acquire_startup_lock 0000000140077d48 f   MSVCRT:utility.obj
 0001:00076d84       __scrt_initialize_crt      0000000140077d84 f   MSVCRT:utility.obj
 0001:00076dd0       __scrt_initialize_onexit_tables 0000000140077dd0 f   MSVCRT:utility.obj
 0001:00076e5c       __scrt_is_nonwritable_in_current_image 0000000140077e5c f   MSVCRT:utility.obj
 0001:00076ef4       __scrt_release_startup_lock 0000000140077ef4 f   MSVCRT:utility.obj
 0001:00076f18       __scrt_uninitialize_crt    0000000140077f18 f   MSVCRT:utility.obj
 0001:00076f44       _onexit                    0000000140077f44 f   MSVCRT:utility.obj
 0001:00076f80       atexit                     0000000140077f80 f   MSVCRT:utility.obj
 0001:00076fb0       __chkstk                   0000000140077fb0 f   MSVCRT:chkstk.obj
 0001:00076fb0       _alloca_probe              0000000140077fb0 f   MSVCRT:chkstk.obj
 0001:00077264       mainCRTStartup             0000000140078264 f   MSVCRT:exe_main.obj
 0001:00077278       _RTC_CheckStackVars        0000000140078278 f   MSVCRT:stack.obj
 0001:000772ec       __raise_securityfailure    00000001400782ec f   MSVCRT:gs_report.obj
 0001:00077320       __report_gsfailure         0000000140078320 f   MSVCRT:gs_report.obj
 0001:000773f4       __report_rangecheckfailure 00000001400783f4 f   MSVCRT:gs_report.obj
 0001:00077408       __report_securityfailure   0000000140078408 f   MSVCRT:gs_report.obj
 0001:00077588       _guard_check_icall_nop     0000000140078588 f i MSVCRT:guard_support.obj
 0001:00077588       _initialize_denormal_control 0000000140078588 f i MSVCRT:denormal_control.obj
 0001:00077588       _initialize_invalid_parameter_handler 0000000140078588 f i MSVCRT:invalid_parameter_handler.obj
 0001:0007758c       ??3@YAXPEAX@Z              000000014007858c f   MSVCRT:delete_scalar.obj
 0001:00077594       ??0bad_alloc@std@@QEAA@XZ  0000000140078594 f i MSVCRT:throw_bad_alloc.obj
 0001:000775b4       ?__scrt_throw_std_bad_alloc@@YAXXZ 00000001400785b4 f   MSVCRT:throw_bad_alloc.obj
 0001:000775d4       ?__scrt_throw_std_bad_array_new_length@@YAXXZ 00000001400785d4 f   MSVCRT:throw_bad_alloc.obj
 0001:000775f4       __isa_available_init       00000001400785f4 f   MSVCRT:cpu_disp.obj
 0001:00077798       _get_startup_argv_mode     0000000140078798 f   MSVCRT:argv_mode.obj
 0001:000777a0       __scrt_is_ucrt_dll_in_use  00000001400787a0 f   MSVCRT:ucrt_detection.obj
 0001:000777ac       __crt_debugger_hook        00000001400787ac f   MSVCRT:utility_desktop.obj
 0001:000777b4       __scrt_fastfail            00000001400787b4 f   MSVCRT:utility_desktop.obj
 0001:00077900       __scrt_initialize_mta      0000000140078900 f   MSVCRT:utility_desktop.obj
 0001:00077908       _get_startup_thread_locale_mode 0000000140078908 f   MSVCRT:thread_locale.obj
 0001:00077908       _get_startup_commit_mode   0000000140078908 f   MSVCRT:commit_mode.obj
 0001:00077908       _matherr                   0000000140078908 f   MSVCRT:matherr.obj
 0001:00077908       __scrt_exe_initialize_mta  0000000140078908 f   MSVCRT:utility_desktop.obj
 0001:00077908       __scrt_stub_for_initialize_mta 0000000140078908 f   MSVCRT:utility_desktop.obj
 0001:00077908       _get_startup_new_mode      0000000140078908 f   MSVCRT:new_mode.obj
 0001:00077908       __scrt_initialize_winrt    0000000140078908 f   MSVCRT:utility_desktop.obj
 0001:0007790c       __scrt_is_managed_app      000000014007890c f   MSVCRT:utility_desktop.obj
 0001:00077960       __scrt_set_unhandled_exception_filter 0000000140078960 f   MSVCRT:utility_desktop.obj
 0001:00077970       __scrt_unhandled_exception_filter 0000000140078970 f   MSVCRT:utility_desktop.obj
 0001:000779cc       __security_init_cookie     00000001400789cc f   MSVCRT:gs_support.obj
 0001:00077a78       _get_startup_file_mode     0000000140078a78 f   MSVCRT:file_mode.obj
 0001:00077a80       ?__scrt_initialize_type_info@@YAXXZ 0000000140078a80 f   MSVCRT:tncleanup.obj
 0001:00077a90       _should_initialize_environment 0000000140078a90 f   MSVCRT:env_mode.obj
 0001:00077a90       __vcrt_uninitialize        0000000140078a90 f   MSVCRT:ucrt_stubs.obj
 0001:00077a90       __scrt_stub_for_acrt_initialize 0000000140078a90 f   MSVCRT:ucrt_stubs.obj
 0001:00077a90       __scrt_stub_for_acrt_uninitialize 0000000140078a90 f   MSVCRT:ucrt_stubs.obj
 0001:00077a90       __acrt_uninitialize        0000000140078a90 f   MSVCRT:ucrt_stubs.obj
 0001:00077a90       __vcrt_initialize          0000000140078a90 f   MSVCRT:ucrt_stubs.obj
 0001:00077a90       __acrt_initialize          0000000140078a90 f   MSVCRT:ucrt_stubs.obj
 0001:00077a94       __scrt_initialize_default_local_stdio_options 0000000140078a94 f   MSVCRT:default_local_stdio_options.obj
 0001:00077ab0       __scrt_is_user_matherr_present 0000000140078ab0 f   MSVCRT:matherr_detection.obj
 0001:00077abc       __scrt_get_dyn_tls_init_callback 0000000140078abc f   MSVCRT:dyn_tls_init.obj
 0001:00077ac4       __scrt_get_dyn_tls_dtor_callback 0000000140078ac4 f   MSVCRT:dyn_tls_dtor.obj
 0001:00077acc       _RTC_Initialize            0000000140078acc f   MSVCRT:initsect.obj
 0001:00077b08       _RTC_Terminate             0000000140078b08 f   MSVCRT:initsect.obj
 0001:00077b44       ?_RTC_StackFailure@@YAXPEAXPEBD@Z 0000000140078b44 f   MSVCRT:error.obj
 0001:00077ec8       ?_RTC_GetErrorFunc@@YAP6AHHPEBDH00ZZPEBX@Z 0000000140078ec8 f   MSVCRT:userapi.obj
 0001:00077ed0       ?_RTC_GetErrorFuncW@@YAP6AHHPEB_WH00ZZPEBX@Z 0000000140078ed0 f   MSVCRT:userapi.obj
 0001:00078160       ?_RTC_GetSrcLine@@YAHPEAEPEA_WKPEAH1K@Z 0000000140079160 f   MSVCRT:pdblkup.obj
 0001:00078519       IsProcessorFeaturePresent  0000000140079519 f   kernel32:KERNEL32.dll
 0001:0007851f       __CxxFrameHandler4         000000014007951f f   vcruntime:VCRUNTIME140_1.dll
 0001:00078525       __std_exception_copy       0000000140079525 f   vcruntime:VCRUNTIME140.dll
 0001:0007852b       __std_exception_destroy    000000014007952b f   vcruntime:VCRUNTIME140.dll
 0001:00078531       _CxxThrowException         0000000140079531 f   vcruntime:VCRUNTIME140.dll
 0001:00078537       memmove                    0000000140079537 f   vcruntime:VCRUNTIME140.dll
 0001:0007853d       memcmp                     000000014007953d f   vcruntime:VCRUNTIME140.dll
 0001:00078543       memset                     0000000140079543 f   vcruntime:VCRUNTIME140.dll
 0001:00078549       memcpy                     0000000140079549 f   vcruntime:VCRUNTIME140.dll
 0001:0007854f       __C_specific_handler       000000014007954f f   vcruntime:VCRUNTIME140.dll
 0001:00078555       __current_exception        0000000140079555 f   vcruntime:VCRUNTIME140.dll
 0001:0007855b       __current_exception_context 000000014007955b f   vcruntime:VCRUNTIME140.dll
 0001:00078561       __C_specific_handler_noexcept 0000000140079561 f   vcruntime:VCRUNTIME140.dll
 0001:00078567       __vcrt_GetModuleFileNameW  0000000140079567 f   vcruntime:VCRUNTIME140.dll
 0001:0007856d       __vcrt_LoadLibraryExW      000000014007956d f   vcruntime:VCRUNTIME140.dll
 0001:00078573       free                       0000000140079573 f   ucrt:api-ms-win-crt-heap-l1-1-0.dll
 0001:00078579       malloc                     0000000140079579 f   ucrt:api-ms-win-crt-heap-l1-1-0.dll
 0001:0007857f       cosf                       000000014007957f f   ucrt:api-ms-win-crt-math-l1-1-0.dll
 0001:00078585       powf                       0000000140079585 f   ucrt:api-ms-win-crt-math-l1-1-0.dll
 0001:0007858b       sinf                       000000014007958b f   ucrt:api-ms-win-crt-math-l1-1-0.dll
 0001:00078591       sqrtf                      0000000140079591 f   ucrt:api-ms-win-crt-math-l1-1-0.dll
 0001:00078597       tanf                       0000000140079597 f   ucrt:api-ms-win-crt-math-l1-1-0.dll
 0001:0007859d       strcmp                     000000014007959d f   ucrt:api-ms-win-crt-string-l1-1-0.dll
 0001:000785a3       strlen                     00000001400795a3 f   ucrt:api-ms-win-crt-string-l1-1-0.dll
 0001:000785a9       abs                        00000001400795a9 f   ucrt:api-ms-win-crt-utility-l1-1-0.dll
 0001:000785af       pow                        00000001400795af f   ucrt:api-ms-win-crt-math-l1-1-0.dll
 0001:000785b5       _callnewh                  00000001400795b5 f   ucrt:api-ms-win-crt-heap-l1-1-0.dll
 0001:000785bb       _configure_narrow_argv     00000001400795bb f   ucrt:api-ms-win-crt-runtime-l1-1-0.dll
 0001:000785c1       _initialize_narrow_environment 00000001400795c1 f   ucrt:api-ms-win-crt-runtime-l1-1-0.dll
 0001:000785c7       _initialize_onexit_table   00000001400795c7 f   ucrt:api-ms-win-crt-runtime-l1-1-0.dll
 0001:000785cd       _register_onexit_function  00000001400795cd f   ucrt:api-ms-win-crt-runtime-l1-1-0.dll
 0001:000785d3       _crt_atexit                00000001400795d3 f   ucrt:api-ms-win-crt-runtime-l1-1-0.dll
 0001:000785d9       _cexit                     00000001400795d9 f   ucrt:api-ms-win-crt-runtime-l1-1-0.dll
 0001:000785df       _seh_filter_exe            00000001400795df f   ucrt:api-ms-win-crt-runtime-l1-1-0.dll
 0001:000785e5       _set_app_type              00000001400795e5 f   ucrt:api-ms-win-crt-runtime-l1-1-0.dll
 0001:000785eb       __setusermatherr           00000001400795eb f   ucrt:api-ms-win-crt-math-l1-1-0.dll
 0001:000785f1       _get_initial_narrow_environment 00000001400795f1 f   ucrt:api-ms-win-crt-runtime-l1-1-0.dll
 0001:000785f7       _initterm                  00000001400795f7 f   ucrt:api-ms-win-crt-runtime-l1-1-0.dll
 0001:000785fd       _initterm_e                00000001400795fd f   ucrt:api-ms-win-crt-runtime-l1-1-0.dll
 0001:00078603       exit                       0000000140079603 f   ucrt:api-ms-win-crt-runtime-l1-1-0.dll
 0001:00078609       _exit                      0000000140079609 f   ucrt:api-ms-win-crt-runtime-l1-1-0.dll
 0001:0007860f       _set_fmode                 000000014007960f f   ucrt:api-ms-win-crt-stdio-l1-1-0.dll
 0001:00078615       __p___argc                 0000000140079615 f   ucrt:api-ms-win-crt-runtime-l1-1-0.dll
 0001:0007861b       __p___argv                 000000014007961b f   ucrt:api-ms-win-crt-runtime-l1-1-0.dll
 0001:00078621       _c_exit                    0000000140079621 f   ucrt:api-ms-win-crt-runtime-l1-1-0.dll
 0001:00078627       _register_thread_local_exe_atexit_callback 0000000140079627 f   ucrt:api-ms-win-crt-runtime-l1-1-0.dll
 0001:0007862d       _configthreadlocale        000000014007962d f   ucrt:api-ms-win-crt-locale-l1-1-0.dll
 0001:00078633       _set_new_mode              0000000140079633 f   ucrt:api-ms-win-crt-heap-l1-1-0.dll
 0001:00078639       __p__commode               0000000140079639 f   ucrt:api-ms-win-crt-stdio-l1-1-0.dll
 0001:0007863f       terminate                  000000014007963f f   ucrt:api-ms-win-crt-runtime-l1-1-0.dll
 0001:00078645       strcpy_s                   0000000140079645 f   ucrt:api-ms-win-crt-string-l1-1-0.dll
 0001:0007864b       strcat_s                   000000014007964b f   ucrt:api-ms-win-crt-string-l1-1-0.dll
 0001:00078670       _guard_dispatch_icall_nop  0000000140079670 f   MSVCRT:guard_dispatch.obj
 0002:00000000       __imp_CreateDCW            000000014007a000     Gdi32:GDI32.dll
 0002:00000008       __imp_DeleteDC             000000014007a008     Gdi32:GDI32.dll
 0002:00000010       __imp_GetDeviceCaps        000000014007a010     Gdi32:GDI32.dll
 0002:00000018       __imp_GetDeviceGammaRamp   000000014007a018     Gdi32:GDI32.dll
 0002:00000020       __imp_SetDeviceGammaRamp   000000014007a020     Gdi32:GDI32.dll
 0002:00000028       __imp_CreateBitmap         000000014007a028     Gdi32:GDI32.dll
 0002:00000030       __imp_DeleteObject         000000014007a030     Gdi32:GDI32.dll
 0002:00000038       __imp_CreateDIBSection     000000014007a038     Gdi32:GDI32.dll
 0002:00000040       __imp_DescribePixelFormat  000000014007a040     Gdi32:GDI32.dll
 0002:00000048       __imp_SetPixelFormat       000000014007a048     Gdi32:GDI32.dll
 0002:00000050       __imp_SwapBuffers          000000014007a050     Gdi32:GDI32.dll
 0002:00000058       \177GDI32_NULL_THUNK_DATA  000000014007a058     Gdi32:GDI32.dll
 0002:00000060       __imp_HeapFree             000000014007a060     kernel32:KERNEL32.dll
 0002:00000068       __imp_HeapAlloc            000000014007a068     kernel32:KERNEL32.dll
 0002:00000070       __imp_GetLastError         000000014007a070     kernel32:KERNEL32.dll
 0002:00000078       __imp_RaiseException       000000014007a078     kernel32:KERNEL32.dll
 0002:00000080       __imp_InitializeSListHead  000000014007a080     kernel32:KERNEL32.dll
 0002:00000088       __imp_GetSystemTimeAsFileTime 000000014007a088     kernel32:KERNEL32.dll
 0002:00000090       __imp_GetCurrentThreadId   000000014007a090     kernel32:KERNEL32.dll
 0002:00000098       __imp_GetCurrentProcessId  000000014007a098     kernel32:KERNEL32.dll
 0002:000000a0       __imp_IsDebuggerPresent    000000014007a0a0     kernel32:KERNEL32.dll
 0002:000000a8       __imp_IsProcessorFeaturePresent 000000014007a0a8     kernel32:KERNEL32.dll
 0002:000000b0       __imp_TerminateProcess     000000014007a0b0     kernel32:KERNEL32.dll
 0002:000000b8       __imp_GetCurrentProcess    000000014007a0b8     kernel32:KERNEL32.dll
 0002:000000c0       __imp_SetUnhandledExceptionFilter 000000014007a0c0     kernel32:KERNEL32.dll
 0002:000000c8       __imp_UnhandledExceptionFilter 000000014007a0c8     kernel32:KERNEL32.dll
 0002:000000d0       __imp_RtlVirtualUnwind     000000014007a0d0     kernel32:KERNEL32.dll
 0002:000000d8       __imp_RtlLookupFunctionEntry 000000014007a0d8     kernel32:KERNEL32.dll
 0002:000000e0       __imp_RtlCaptureContext    000000014007a0e0     kernel32:KERNEL32.dll
 0002:000000e8       __imp_QueryPerformanceFrequency 000000014007a0e8     kernel32:KERNEL32.dll
 0002:000000f0       __imp_QueryPerformanceCounter 000000014007a0f0     kernel32:KERNEL32.dll
 0002:000000f8       __imp_TlsFree              000000014007a0f8     kernel32:KERNEL32.dll
 0002:00000100       __imp_TlsSetValue          000000014007a100     kernel32:KERNEL32.dll
 0002:00000108       __imp_TlsGetValue          000000014007a108     kernel32:KERNEL32.dll
 0002:00000110       __imp_TlsAlloc             000000014007a110     kernel32:KERNEL32.dll
 0002:00000118       __imp_GlobalFree           000000014007a118     kernel32:KERNEL32.dll
 0002:00000120       __imp_GlobalLock           000000014007a120     kernel32:KERNEL32.dll
 0002:00000128       __imp_GlobalUnlock         000000014007a128     kernel32:KERNEL32.dll
 0002:00000130       __imp_GlobalAlloc          000000014007a130     kernel32:KERNEL32.dll
 0002:00000138       __imp_GetModuleHandleW     000000014007a138     kernel32:KERNEL32.dll
 0002:00000140       __imp_WideCharToMultiByte  000000014007a140     kernel32:KERNEL32.dll
 0002:00000148       __imp_MultiByteToWideChar  000000014007a148     kernel32:KERNEL32.dll
 0002:00000150       __imp_LoadLibraryW         000000014007a150     kernel32:KERNEL32.dll
 0002:00000158       __imp_GetProcAddress       000000014007a158     kernel32:KERNEL32.dll
 0002:00000160       __imp_FreeLibrary          000000014007a160     kernel32:KERNEL32.dll
 0002:00000168       __imp_VirtualQuery         000000014007a168     kernel32:KERNEL32.dll
 0002:00000170       __imp_GetProcessHeap       000000014007a170     kernel32:KERNEL32.dll
 0002:00000178       \177KERNEL32_NULL_THUNK_DATA 000000014007a178     kernel32:KERNEL32.dll
 0002:00000180       __imp_?setstate@?$basic_ios@DU?$char_traits@D@std@@@std@@QEAAXH_N@Z 000000014007a180     msvcprt:MSVCP140.dll
 0002:00000188       __imp_?rdbuf@?$basic_ios@DU?$char_traits@D@std@@@std@@QEBAPEAV?$basic_streambuf@DU?$char_traits@D@std@@@2@XZ 000000014007a188     msvcprt:MSVCP140.dll
 0002:00000190       __imp_?widen@?$basic_ios@DU?$char_traits@D@std@@@std@@QEBADD@Z 000000014007a190     msvcprt:MSVCP140.dll
 0002:00000198       __imp_??0?$basic_ios@DU?$char_traits@D@std@@@std@@IEAA@XZ 000000014007a198     msvcprt:MSVCP140.dll
 0002:000001a0       __imp_??0?$basic_istream@DU?$char_traits@D@std@@@std@@QEAA@PEAV?$basic_streambuf@DU?$char_traits@D@std@@@1@_N@Z 000000014007a1a0     msvcprt:MSVCP140.dll
 0002:000001a8       __imp_??1?$basic_istream@DU?$char_traits@D@std@@@std@@UEAA@XZ 000000014007a1a8     msvcprt:MSVCP140.dll
 0002:000001b0       __imp_?_Ipfx@?$basic_istream@DU?$char_traits@D@std@@@std@@QEAA_N_N@Z 000000014007a1b0     msvcprt:MSVCP140.dll
 0002:000001b8       __imp_?_Fiopen@std@@YAPEAU_iobuf@@PEBDHH@Z 000000014007a1b8     msvcprt:MSVCP140.dll
 0002:000001c0       __imp_?showmanyc@?$basic_streambuf@DU?$char_traits@D@std@@@std@@MEAA_JXZ 000000014007a1c0     msvcprt:MSVCP140.dll
 0002:000001c8       __imp_?id@?$codecvt@DDU_Mbstatet@@@std@@2V0locale@2@A 000000014007a1c8     msvcprt:MSVCP140.dll
 0002:000001d0       __imp_?xsgetn@?$basic_streambuf@DU?$char_traits@D@std@@@std@@MEAA_JPEAD_J@Z 000000014007a1d0     msvcprt:MSVCP140.dll
 0002:000001d8       __imp_?_Init@?$basic_streambuf@DU?$char_traits@D@std@@@std@@IEAAXPEAPEAD0PEAH001@Z 000000014007a1d8     msvcprt:MSVCP140.dll
 0002:000001e0       __imp_?_Init@?$basic_streambuf@DU?$char_traits@D@std@@@std@@IEAAXXZ 000000014007a1e0     msvcprt:MSVCP140.dll
 0002:000001e8       __imp_?_Pnavail@?$basic_streambuf@DU?$char_traits@D@std@@@std@@IEBA_JXZ 000000014007a1e8     msvcprt:MSVCP140.dll
 0002:000001f0       __imp_?_Pninc@?$basic_streambuf@DU?$char_traits@D@std@@@std@@IEAAPEADXZ 000000014007a1f0     msvcprt:MSVCP140.dll
 0002:000001f8       __imp_?pbump@?$basic_streambuf@DU?$char_traits@D@std@@@std@@IEAAXH@Z 000000014007a1f8     msvcprt:MSVCP140.dll
 0002:00000200       __imp_?_Gnavail@?$basic_streambuf@DU?$char_traits@D@std@@@std@@IEBA_JXZ 000000014007a200     msvcprt:MSVCP140.dll
 0002:00000208       __imp_?_Gninc@?$basic_streambuf@DU?$char_traits@D@std@@@std@@IEAAPEADXZ 000000014007a208     msvcprt:MSVCP140.dll
 0002:00000210       __imp_?_Gndec@?$basic_streambuf@DU?$char_traits@D@std@@@std@@IEAAPEADXZ 000000014007a210     msvcprt:MSVCP140.dll
 0002:00000218       __imp_?epptr@?$basic_streambuf@DU?$char_traits@D@std@@@std@@IEBAPEADXZ 000000014007a218     msvcprt:MSVCP140.dll
 0002:00000220       __imp_?setg@?$basic_streambuf@DU?$char_traits@D@std@@@std@@IEAAXPEAD00@Z 000000014007a220     msvcprt:MSVCP140.dll
 0002:00000228       __imp_?gbump@?$basic_streambuf@DU?$char_traits@D@std@@@std@@IEAAXH@Z 000000014007a228     msvcprt:MSVCP140.dll
 0002:00000230       __imp_?egptr@?$basic_streambuf@DU?$char_traits@D@std@@@std@@IEBAPEADXZ 000000014007a230     msvcprt:MSVCP140.dll
 0002:00000238       __imp_?pptr@?$basic_streambuf@DU?$char_traits@D@std@@@std@@IEBAPEADXZ 000000014007a238     msvcprt:MSVCP140.dll
 0002:00000240       __imp_?gptr@?$basic_streambuf@DU?$char_traits@D@std@@@std@@IEBAPEADXZ 000000014007a240     msvcprt:MSVCP140.dll
 0002:00000248       __imp_?eback@?$basic_streambuf@DU?$char_traits@D@std@@@std@@IEBAPEADXZ 000000014007a248     msvcprt:MSVCP140.dll
 0002:00000250       __imp_?snextc@?$basic_streambuf@DU?$char_traits@D@std@@@std@@QEAAHXZ 000000014007a250     msvcprt:MSVCP140.dll
 0002:00000258       __imp_?sgetc@?$basic_streambuf@DU?$char_traits@D@std@@@std@@QEAAHXZ 000000014007a258     msvcprt:MSVCP140.dll
 0002:00000260       __imp_?sbumpc@?$basic_streambuf@DU?$char_traits@D@std@@@std@@QEAAHXZ 000000014007a260     msvcprt:MSVCP140.dll
 0002:00000268       __imp_?getloc@?$basic_streambuf@DU?$char_traits@D@std@@@std@@QEBA?AVlocale@2@XZ 000000014007a268     msvcprt:MSVCP140.dll
 0002:00000270       __imp_??1?$basic_streambuf@DU?$char_traits@D@std@@@std@@UEAA@XZ 000000014007a270     msvcprt:MSVCP140.dll
 0002:00000278       __imp_??0?$basic_streambuf@DU?$char_traits@D@std@@@std@@IEAA@XZ 000000014007a278     msvcprt:MSVCP140.dll
 0002:00000280       __imp_??Bios_base@std@@QEBA_NXZ 000000014007a280     msvcprt:MSVCP140.dll
 0002:00000288       __imp_?_Getcat@?$codecvt@DDU_Mbstatet@@@std@@SA_KPEAPEBVfacet@locale@2@PEBV42@@Z 000000014007a288     msvcprt:MSVCP140.dll
 0002:00000290       __imp_?unshift@?$codecvt@DDU_Mbstatet@@@std@@QEBAHAEAU_Mbstatet@@PEAD1AEAPEAD@Z 000000014007a290     msvcprt:MSVCP140.dll
 0002:00000298       __imp_?out@?$codecvt@DDU_Mbstatet@@@std@@QEBAHAEAU_Mbstatet@@PEBD1AEAPEBDPEAD3AEAPEAD@Z 000000014007a298     msvcprt:MSVCP140.dll
 0002:000002a0       __imp_?in@?$codecvt@DDU_Mbstatet@@@std@@QEBAHAEAU_Mbstatet@@PEBD1AEAPEBDPEAD3AEAPEAD@Z 000000014007a2a0     msvcprt:MSVCP140.dll
 0002:000002a8       __imp_?always_noconv@codecvt_base@std@@QEBA_NXZ 000000014007a2a8     msvcprt:MSVCP140.dll
 0002:000002b0       __imp_?_Getgloballocale@locale@std@@CAPEAV_Locimp@12@XZ 000000014007a2b0     msvcprt:MSVCP140.dll
 0002:000002b8       __imp_??Bid@locale@std@@QEAA_KXZ 000000014007a2b8     msvcprt:MSVCP140.dll
 0002:000002c0       __imp_?_Xout_of_range@std@@YAXPEBD@Z 000000014007a2c0     msvcprt:MSVCP140.dll
 0002:000002c8       __imp_??1_Lockit@std@@QEAA@XZ 000000014007a2c8     msvcprt:MSVCP140.dll
 0002:000002d0       __imp_??0_Lockit@std@@QEAA@H@Z 000000014007a2d0     msvcprt:MSVCP140.dll
 0002:000002d8       __imp_?_Xlength_error@std@@YAXPEBD@Z 000000014007a2d8     msvcprt:MSVCP140.dll
 0002:000002e0       __imp_??1?$basic_ios@DU?$char_traits@D@std@@@std@@UEAA@XZ 000000014007a2e0     msvcprt:MSVCP140.dll
 0002:000002e8       __imp_?xsputn@?$basic_streambuf@DU?$char_traits@D@std@@@std@@MEAA_JPEBD_J@Z 000000014007a2e8     msvcprt:MSVCP140.dll
 0002:000002f0       \177MSVCP140_NULL_THUNK_DATA 000000014007a2f0     msvcprt:MSVCP140.dll
 0002:000002f8       __imp_glClear              000000014007a2f8     opengl32:OPENGL32.dll
 0002:00000300       __imp_glClearColor         000000014007a300     opengl32:OPENGL32.dll
 0002:00000308       __imp_glDepthFunc          000000014007a308     opengl32:OPENGL32.dll
 0002:00000310       __imp_glDrawElements       000000014007a310     opengl32:OPENGL32.dll
 0002:00000318       __imp_glEnable             000000014007a318     opengl32:OPENGL32.dll
 0002:00000320       __imp_wglGetProcAddress    000000014007a320     opengl32:OPENGL32.dll
 0002:00000328       __imp_wglGetCurrentDC      000000014007a328     opengl32:OPENGL32.dll
 0002:00000330       __imp_glGetString          000000014007a330     opengl32:OPENGL32.dll
 0002:00000338       __imp_glTexParameteri      000000014007a338     opengl32:OPENGL32.dll
 0002:00000340       __imp_glTexImage2D         000000014007a340     opengl32:OPENGL32.dll
 0002:00000348       __imp_glGenTextures        000000014007a348     opengl32:OPENGL32.dll
 0002:00000350       __imp_glBindTexture        000000014007a350     opengl32:OPENGL32.dll
 0002:00000358       \177OPENGL32_NULL_THUNK_DATA 000000014007a358     opengl32:OPENGL32.dll
 0002:00000360       __imp_DragAcceptFiles      000000014007a360     shell32:SHELL32.dll
 0002:00000368       __imp_DragFinish           000000014007a368     shell32:SHELL32.dll
 0002:00000370       __imp_DragQueryPoint       000000014007a370     shell32:SHELL32.dll
 0002:00000378       __imp_DragQueryFileW       000000014007a378     shell32:SHELL32.dll
 0002:00000380       \177SHELL32_NULL_THUNK_DATA 000000014007a380     shell32:SHELL32.dll
 0002:00000388       __imp_GetAsyncKeyState     000000014007a388     user32:USER32.dll
 0002:00000390       __imp_GetKeyState          000000014007a390     user32:USER32.dll
 0002:00000398       __imp_GetActiveWindow      000000014007a398     user32:USER32.dll
 0002:000003a0       __imp_GetClientRect        000000014007a3a0     user32:USER32.dll
 0002:000003a8       __imp_ReleaseDC            000000014007a3a8     user32:USER32.dll
 0002:000003b0       __imp_GetDC                000000014007a3b0     user32:USER32.dll
 0002:000003b8       __imp_SetForegroundWindow  000000014007a3b8     user32:USER32.dll
 0002:000003c0       __imp_ReleaseCapture       000000014007a3c0     user32:USER32.dll
 0002:000003c8       __imp_SetCapture           000000014007a3c8     user32:USER32.dll
 0002:000003d0       __imp_SystemParametersInfoW 000000014007a3d0     user32:USER32.dll
 0002:000003d8       __imp_ChangeDisplaySettingsExW 000000014007a3d8     user32:USER32.dll
 0002:000003e0       __imp_EnumDisplaySettingsW 000000014007a3e0     user32:USER32.dll
 0002:000003e8       __imp_EnumDisplaySettingsExW 000000014007a3e8     user32:USER32.dll
 0002:000003f0       __imp_EnumDisplayDevicesW  000000014007a3f0     user32:USER32.dll
 0002:000003f8       __imp_TrackMouseEvent      000000014007a3f8     user32:USER32.dll
 0002:00000400       __imp_TranslateMessage     000000014007a400     user32:USER32.dll
 0002:00000408       __imp_DispatchMessageW     000000014007a408     user32:USER32.dll
 0002:00000410       __imp_PeekMessageW         000000014007a410     user32:USER32.dll
 0002:00000418       __imp_GetMessageTime       000000014007a418     user32:USER32.dll
 0002:00000420       __imp_CopyIcon             000000014007a420     user32:USER32.dll
 0002:00000428       __imp_SetFocus             000000014007a428     user32:USER32.dll
 0002:00000430       __imp_EmptyClipboard       000000014007a430     user32:USER32.dll
 0002:00000438       __imp_CreateIconIndirect   000000014007a438     user32:USER32.dll
 0002:00000440       __imp_GetClipboardData     000000014007a440     user32:USER32.dll
 0002:00000448       __imp_DestroyIcon          000000014007a448     user32:USER32.dll
 0002:00000450       __imp_SetClipboardData     000000014007a450     user32:USER32.dll
 0002:00000458       __imp_CloseClipboard       000000014007a458     user32:USER32.dll
 0002:00000460       __imp_OpenClipboard        000000014007a460     user32:USER32.dll
 0002:00000468       __imp_BringWindowToTop     000000014007a468     user32:USER32.dll
 0002:00000470       __imp_IsIconic             000000014007a470     user32:USER32.dll
 0002:00000478       __imp_LoadIconW            000000014007a478     user32:USER32.dll
 0002:00000480       __imp_IsWindowVisible      000000014007a480     user32:USER32.dll
 0002:00000488       __imp_SetWindowPos         000000014007a488     user32:USER32.dll
 0002:00000490       __imp_ShowWindow           000000014007a490     user32:USER32.dll
 0002:00000498       __imp_DestroyWindow        000000014007a498     user32:USER32.dll
 0002:000004a0       __imp_CreateWindowExW      000000014007a4a0     user32:USER32.dll
 0002:000004a8       __imp_UnregisterClassW     000000014007a4a8     user32:USER32.dll
 0002:000004b0       __imp_LoadCursorW          000000014007a4b0     user32:USER32.dll
 0002:000004b8       __imp_SetWindowLongPtrW    000000014007a4b8     user32:USER32.dll
 0002:000004c0       __imp_GetWindowLongPtrW    000000014007a4c0     user32:USER32.dll
 0002:000004c8       __imp_RegisterClassW       000000014007a4c8     user32:USER32.dll
 0002:000004d0       __imp_SetRect              000000014007a4d0     user32:USER32.dll
 0002:000004d8       __imp_ClipCursor           000000014007a4d8     user32:USER32.dll
 0002:000004e0       __imp_WindowFromPoint      000000014007a4e0     user32:USER32.dll
 0002:000004e8       __imp_ScreenToClient       000000014007a4e8     user32:USER32.dll
 0002:000004f0       __imp_ClientToScreen       000000014007a4f0     user32:USER32.dll
 0002:000004f8       __imp_GetCursorPos         000000014007a4f8     user32:USER32.dll
 0002:00000500       __imp_SetCursor            000000014007a500     user32:USER32.dll
 0002:00000508       __imp_DefWindowProcW       000000014007a508     user32:USER32.dll
 0002:00000510       __imp_SetCursorPos         000000014007a510     user32:USER32.dll
 0002:00000518       __imp_AdjustWindowRectEx   000000014007a518     user32:USER32.dll
 0002:00000520       __imp_WaitMessage          000000014007a520     user32:USER32.dll
 0002:00000528       __imp_PostMessageW         000000014007a528     user32:USER32.dll
 0002:00000530       __imp_SetWindowTextW       000000014007a530     user32:USER32.dll
 0002:00000538       \177USER32_NULL_THUNK_DATA 000000014007a538     user32:USER32.dll
 0002:00000540       __imp___vcrt_GetModuleFileNameW 000000014007a540     vcruntime:VCRUNTIME140.dll
 0002:00000548       __imp___C_specific_handler_noexcept 000000014007a548     vcruntime:VCRUNTIME140.dll
 0002:00000550       __imp___current_exception_context 000000014007a550     vcruntime:VCRUNTIME140.dll
 0002:00000558       __imp___current_exception  000000014007a558     vcruntime:VCRUNTIME140.dll
 0002:00000560       __imp___std_exception_copy 000000014007a560     vcruntime:VCRUNTIME140.dll
 0002:00000568       __imp___C_specific_handler 000000014007a568     vcruntime:VCRUNTIME140.dll
 0002:00000570       __imp___vcrt_LoadLibraryExW 000000014007a570     vcruntime:VCRUNTIME140.dll
 0002:00000578       __imp_strstr               000000014007a578     vcruntime:VCRUNTIME140.dll
 0002:00000580       __imp_memset               000000014007a580     vcruntime:VCRUNTIME140.dll
 0002:00000588       __imp_memcmp               000000014007a588     vcruntime:VCRUNTIME140.dll
 0002:00000590       __imp_memmove              000000014007a590     vcruntime:VCRUNTIME140.dll
 0002:00000598       __imp__CxxThrowException   000000014007a598     vcruntime:VCRUNTIME140.dll
 0002:000005a0       __imp___std_exception_destroy 000000014007a5a0     vcruntime:VCRUNTIME140.dll
 0002:000005a8       __imp_memcpy               000000014007a5a8     vcruntime:VCRUNTIME140.dll
 0002:000005b0       \177VCRUNTIME140_NULL_THUNK_DATA 000000014007a5b0     vcruntime:VCRUNTIME140.dll
 0002:000005b8       __imp___CxxFrameHandler4   000000014007a5b8     vcruntime:VCRUNTIME140_1.dll
 0002:000005c0       \177VCRUNTIME140_1_NULL_THUNK_DATA 000000014007a5c0     vcruntime:VCRUNTIME140_1.dll
 0002:000005c8       __imp_strtol               000000014007a5c8     ucrt:api-ms-win-crt-convert-l1-1-0.dll
 0002:000005d0       \177api-ms-win-crt-convert-l1-1-0_NULL_THUNK_DATA 000000014007a5d0     ucrt:api-ms-win-crt-convert-l1-1-0.dll
 0002:000005d8       __imp__lock_file           000000014007a5d8     ucrt:api-ms-win-crt-filesystem-l1-1-0.dll
 0002:000005e0       __imp__unlock_file         000000014007a5e0     ucrt:api-ms-win-crt-filesystem-l1-1-0.dll
 0002:000005e8       \177api-ms-win-crt-filesystem-l1-1-0_NULL_THUNK_DATA 000000014007a5e8     ucrt:api-ms-win-crt-filesystem-l1-1-0.dll
 0002:000005f0       __imp_calloc               000000014007a5f0     ucrt:api-ms-win-crt-heap-l1-1-0.dll
 0002:000005f8       __imp__callnewh            000000014007a5f8     ucrt:api-ms-win-crt-heap-l1-1-0.dll
 0002:00000600       __imp_malloc               000000014007a600     ucrt:api-ms-win-crt-heap-l1-1-0.dll
 0002:00000608       __imp_realloc              000000014007a608     ucrt:api-ms-win-crt-heap-l1-1-0.dll
 0002:00000610       __imp_free                 000000014007a610     ucrt:api-ms-win-crt-heap-l1-1-0.dll
 0002:00000618       __imp__set_new_mode        000000014007a618     ucrt:api-ms-win-crt-heap-l1-1-0.dll
 0002:00000620       \177api-ms-win-crt-heap-l1-1-0_NULL_THUNK_DATA 000000014007a620     ucrt:api-ms-win-crt-heap-l1-1-0.dll
 0002:00000628       __imp__configthreadlocale  000000014007a628     ucrt:api-ms-win-crt-locale-l1-1-0.dll
 0002:00000630       \177api-ms-win-crt-locale-l1-1-0_NULL_THUNK_DATA 000000014007a630     ucrt:api-ms-win-crt-locale-l1-1-0.dll
 0002:00000638       __imp_sinf                 000000014007a638     ucrt:api-ms-win-crt-math-l1-1-0.dll
 0002:00000640       __imp_powf                 000000014007a640     ucrt:api-ms-win-crt-math-l1-1-0.dll
 0002:00000648       __imp_cosf                 000000014007a648     ucrt:api-ms-win-crt-math-l1-1-0.dll
 0002:00000650       __imp_sqrtf                000000014007a650     ucrt:api-ms-win-crt-math-l1-1-0.dll
 0002:00000658       __imp_tanf                 000000014007a658     ucrt:api-ms-win-crt-math-l1-1-0.dll
 0002:00000660       __imp_pow                  000000014007a660     ucrt:api-ms-win-crt-math-l1-1-0.dll
 0002:00000668       __imp_ldexp                000000014007a668     ucrt:api-ms-win-crt-math-l1-1-0.dll
 0002:00000670       __imp___setusermatherr     000000014007a670     ucrt:api-ms-win-crt-math-l1-1-0.dll
 0002:00000678       \177api-ms-win-crt-math-l1-1-0_NULL_THUNK_DATA 000000014007a678     ucrt:api-ms-win-crt-math-l1-1-0.dll
 0002:00000680       __imp__initialize_onexit_table 000000014007a680     ucrt:api-ms-win-crt-runtime-l1-1-0.dll
 0002:00000688       __imp__crt_atexit          000000014007a688     ucrt:api-ms-win-crt-runtime-l1-1-0.dll
 0002:00000690       __imp__configure_narrow_argv 000000014007a690     ucrt:api-ms-win-crt-runtime-l1-1-0.dll
 0002:00000698       __imp__invalid_parameter_noinfo_noreturn 000000014007a698     ucrt:api-ms-win-crt-runtime-l1-1-0.dll
 0002:000006a0       __imp_exit                 000000014007a6a0     ucrt:api-ms-win-crt-runtime-l1-1-0.dll
 0002:000006a8       __imp__seh_filter_exe      000000014007a6a8     ucrt:api-ms-win-crt-runtime-l1-1-0.dll
 0002:000006b0       __imp__set_app_type        000000014007a6b0     ucrt:api-ms-win-crt-runtime-l1-1-0.dll
 0002:000006b8       __imp__get_initial_narrow_environment 000000014007a6b8     ucrt:api-ms-win-crt-runtime-l1-1-0.dll
 0002:000006c0       __imp__initterm            000000014007a6c0     ucrt:api-ms-win-crt-runtime-l1-1-0.dll
 0002:000006c8       __imp__initterm_e          000000014007a6c8     ucrt:api-ms-win-crt-runtime-l1-1-0.dll
 0002:000006d0       __imp__wassert             000000014007a6d0     ucrt:api-ms-win-crt-runtime-l1-1-0.dll
 0002:000006d8       __imp__initialize_narrow_environment 000000014007a6d8     ucrt:api-ms-win-crt-runtime-l1-1-0.dll
 0002:000006e0       __imp___p___argc           000000014007a6e0     ucrt:api-ms-win-crt-runtime-l1-1-0.dll
 0002:000006e8       __imp__exit                000000014007a6e8     ucrt:api-ms-win-crt-runtime-l1-1-0.dll
 0002:000006f0       __imp__register_onexit_function 000000014007a6f0     ucrt:api-ms-win-crt-runtime-l1-1-0.dll
 0002:000006f8       __imp_terminate            000000014007a6f8     ucrt:api-ms-win-crt-runtime-l1-1-0.dll
 0002:00000700       __imp__register_thread_local_exe_atexit_callback 000000014007a700     ucrt:api-ms-win-crt-runtime-l1-1-0.dll
 0002:00000708       __imp__c_exit              000000014007a708     ucrt:api-ms-win-crt-runtime-l1-1-0.dll
 0002:00000710       __imp___p___argv           000000014007a710     ucrt:api-ms-win-crt-runtime-l1-1-0.dll
 0002:00000718       __imp__cexit               000000014007a718     ucrt:api-ms-win-crt-runtime-l1-1-0.dll
 0002:00000720       \177api-ms-win-crt-runtime-l1-1-0_NULL_THUNK_DATA 000000014007a720     ucrt:api-ms-win-crt-runtime-l1-1-0.dll
 0002:00000728       __imp_ftell                000000014007a728     ucrt:api-ms-win-crt-stdio-l1-1-0.dll
 0002:00000730       __imp___acrt_iob_func      000000014007a730     ucrt:api-ms-win-crt-stdio-l1-1-0.dll
 0002:00000738       __imp_fopen_s              000000014007a738     ucrt:api-ms-win-crt-stdio-l1-1-0.dll
 0002:00000740       __imp_fclose               000000014007a740     ucrt:api-ms-win-crt-stdio-l1-1-0.dll
 0002:00000748       __imp_fgets                000000014007a748     ucrt:api-ms-win-crt-stdio-l1-1-0.dll
 0002:00000750       __imp___p__commode         000000014007a750     ucrt:api-ms-win-crt-stdio-l1-1-0.dll
 0002:00000758       __imp__set_fmode           000000014007a758     ucrt:api-ms-win-crt-stdio-l1-1-0.dll
 0002:00000760       __imp_getchar              000000014007a760     ucrt:api-ms-win-crt-stdio-l1-1-0.dll
 0002:00000768       __imp___stdio_common_vfprintf 000000014007a768     ucrt:api-ms-win-crt-stdio-l1-1-0.dll
 0002:00000770       __imp___stdio_common_vfscanf 000000014007a770     ucrt:api-ms-win-crt-stdio-l1-1-0.dll
 0002:00000778       __imp__get_stream_buffer_pointers 000000014007a778     ucrt:api-ms-win-crt-stdio-l1-1-0.dll
 0002:00000780       __imp_fflush               000000014007a780     ucrt:api-ms-win-crt-stdio-l1-1-0.dll
 0002:00000788       __imp_fgetc                000000014007a788     ucrt:api-ms-win-crt-stdio-l1-1-0.dll
 0002:00000790       __imp___stdio_common_vsscanf 000000014007a790     ucrt:api-ms-win-crt-stdio-l1-1-0.dll
 0002:00000798       __imp_fgetpos              000000014007a798     ucrt:api-ms-win-crt-stdio-l1-1-0.dll
 0002:000007a0       __imp_fputc                000000014007a7a0     ucrt:api-ms-win-crt-stdio-l1-1-0.dll
 0002:000007a8       __imp___stdio_common_vsprintf 000000014007a7a8     ucrt:api-ms-win-crt-stdio-l1-1-0.dll
 0002:000007b0       __imp___stdio_common_vsprintf_s 000000014007a7b0     ucrt:api-ms-win-crt-stdio-l1-1-0.dll
 0002:000007b8       __imp_fread                000000014007a7b8     ucrt:api-ms-win-crt-stdio-l1-1-0.dll
 0002:000007c0       __imp_fsetpos              000000014007a7c0     ucrt:api-ms-win-crt-stdio-l1-1-0.dll
 0002:000007c8       __imp_fseek                000000014007a7c8     ucrt:api-ms-win-crt-stdio-l1-1-0.dll
 0002:000007d0       __imp_feof                 000000014007a7d0     ucrt:api-ms-win-crt-stdio-l1-1-0.dll
 0002:000007d8       __imp_ungetc               000000014007a7d8     ucrt:api-ms-win-crt-stdio-l1-1-0.dll
 0002:000007e0       __imp_setvbuf              000000014007a7e0     ucrt:api-ms-win-crt-stdio-l1-1-0.dll
 0002:000007e8       __imp_fwrite               000000014007a7e8     ucrt:api-ms-win-crt-stdio-l1-1-0.dll
 0002:000007f0       __imp__fseeki64            000000014007a7f0     ucrt:api-ms-win-crt-stdio-l1-1-0.dll
 0002:000007f8       \177api-ms-win-crt-stdio-l1-1-0_NULL_THUNK_DATA 000000014007a7f8     ucrt:api-ms-win-crt-stdio-l1-1-0.dll
 0002:00000800       __imp_strncmp              000000014007a800     ucrt:api-ms-win-crt-string-l1-1-0.dll
 0002:00000808       __imp_strcmp               000000014007a808     ucrt:api-ms-win-crt-string-l1-1-0.dll
 0002:00000810       __imp_strlen               000000014007a810     ucrt:api-ms-win-crt-string-l1-1-0.dll
 0002:00000818       __imp_wcscmp               000000014007a818     ucrt:api-ms-win-crt-string-l1-1-0.dll
 0002:00000820       __imp_wcscpy               000000014007a820     ucrt:api-ms-win-crt-string-l1-1-0.dll
 0002:00000828       __imp__strdup              000000014007a828     ucrt:api-ms-win-crt-string-l1-1-0.dll
 0002:00000830       __imp_wcslen               000000014007a830     ucrt:api-ms-win-crt-string-l1-1-0.dll
 0002:00000838       __imp_strcat_s             000000014007a838     ucrt:api-ms-win-crt-string-l1-1-0.dll
 0002:00000840       __imp_strcpy_s             000000014007a840     ucrt:api-ms-win-crt-string-l1-1-0.dll
 0002:00000848       \177api-ms-win-crt-string-l1-1-0_NULL_THUNK_DATA 000000014007a848     ucrt:api-ms-win-crt-string-l1-1-0.dll
 0002:00000850       __imp_rand                 000000014007a850     ucrt:api-ms-win-crt-utility-l1-1-0.dll
 0002:00000858       __imp_abs                  000000014007a858     ucrt:api-ms-win-crt-utility-l1-1-0.dll
 0002:00000860       __imp_qsort                000000014007a860     ucrt:api-ms-win-crt-utility-l1-1-0.dll
 0002:00000868       \177api-ms-win-crt-utility-l1-1-0_NULL_THUNK_DATA 000000014007a868     ucrt:api-ms-win-crt-utility-l1-1-0.dll
 0002:00000870       __guard_check_icall_fptr   000000014007a870     MSVCRT:guard_support.obj
 0002:00000878       __guard_xfg_check_icall_fptr 000000014007a878     MSVCRT:guard_support.obj
 0002:00000880       __guard_dispatch_icall_fptr 000000014007a880     MSVCRT:guard_support.obj
 0002:00000888       __guard_xfg_dispatch_icall_fptr 000000014007a888     MSVCRT:guard_support.obj
 0002:00000890       __guard_xfg_table_dispatch_icall_fptr 000000014007a890     MSVCRT:guard_support.obj
 0002:00000898       __xc_a                     000000014007a898     MSVCRT:initializers.obj
 0002:000008c0       __xc_z                     000000014007a8c0     MSVCRT:initializers.obj
 0002:000008c8       __xi_a                     000000014007a8c8     MSVCRT:initializers.obj
 0002:000008e0       __xi_z                     000000014007a8e0     MSVCRT:initializers.obj
 0002:000008e8       __xl_a                     000000014007a8e8     MSVCRT:tlssup.obj
 0002:000008f0       __xl_z                     000000014007a8f0     MSVCRT:tlssup.obj
 0002:000008f8       __xp_a                     000000014007a8f8     MSVCRT:initializers.obj
 0002:00000900       __xp_z                     000000014007a900     MSVCRT:initializers.obj
 0002:00000908       __xt_a                     000000014007a908     MSVCRT:initializers.obj
 0002:00000910       __xt_z                     000000014007a910     MSVCRT:initializers.obj
 0002:00000920       __real@408f400000000000    000000014007a920     main.obj
 0002:00000a50       ??_C@_0BC@EOODALEL@Unknown?5exception@ 000000014007aa50     objloader.obj
 0002:00000a68       ??_C@_0BF@KINCDENJ@bad?5array?5new?5length@ 000000014007aa68     objloader.obj
 0002:00000a80       ??_C@_0BA@FOIKENOD@vector?5too?5long@ 000000014007aa80     objloader.obj
 0002:00000a90       __xmm@80000000800000008000000080000000 000000014007aa90     objloader.obj
 0002:00000b58       ??_7bad_cast@std@@6B@      000000014007ab58     shader.obj
 0002:00000b68       ??_C@_08EPJLHIJG@bad?5cast@ 000000014007ab68     shader.obj
 0002:00000b78       ??_7?$basic_filebuf@DU?$char_traits@D@std@@@std@@6B@ 000000014007ab78     shader.obj
 0002:00000bf0       ??_7?$basic_ifstream@DU?$char_traits@D@std@@@std@@6B@ 000000014007abf0     shader.obj
 0002:00000bf8       ??_8?$basic_ifstream@DU?$char_traits@D@std@@@std@@7B@ 000000014007abf8     shader.obj
 0002:00000c00       ??_C@_0BI@CFPLBAOH@invalid?5string?5position@ 000000014007ac00     shader.obj
 0002:00000c18       ??_C@_0BA@JFNIOLAK@string?5too?5long@ 000000014007ac18     shader.obj
 0002:00000c30       ??_C@_0BB@GCADKGJO@map?1set?5too?5long@ 000000014007ac30     vboindexer.obj
 0002:00000c44       __real@3c23d70a            000000014007ac44     vboindexer.obj
 0002:00000c50       __xmm@7fffffffffffffff7fffffffffffffff 000000014007ac50     vboindexer.obj
 0002:00002f40       ??_C@_1KK@MCDPPLFG@?$AAi?$AA?5?$AA?$DO?$AA?$DN?$AA?5?$AA0?$AA?5?$AA?$CG?$AA?$CG?$AA?5?$AAs?$AAt?$AAa?$AAt?$AAi@ 000000014007cf40     winplatform.obj
 0002:00002ff0       ??_C@_1IE@KGKHFOAC@?$AAC?$AA?3?$AA?2?$AAg?$AAi?$AAt?$AA?2?$AAp?$AAr?$AAo?$AAj?$AAe?$AAc?$AAt?$AA?9@ 000000014007cff0     winplatform.obj
 0002:00003080       ??_C@_1II@FCDNGPHK@?$AAC?$AA?3?$AA?2?$AAg?$AAi?$AAt?$AA?2?$AAp?$AAr?$AAo?$AAj?$AAe?$AAc?$AAt?$AA?9@ 000000014007d080     winplatform.obj
 0002:00003108       ??_C@_1CG@KOFHLCJL@?$AAi?$AA?5?$AA?$DM?$AA?5?$AAt?$AAh?$AAi?$AAs?$AA?9?$AA?$DO?$AAl?$AAe?$AAn?$AAg?$AAt@ 000000014007d108     winplatform.obj
 0002:00003130       ??_C@_1IE@NCDPLHIN@?$AAC?$AA?3?$AA?2?$AAg?$AAi?$AAt?$AA?2?$AAp?$AAr?$AAo?$AAj?$AAe?$AAc?$AAt?$AA?9@ 000000014007d130     winplatform.obj
 0002:000031c0       ??_C@_1IM@OHJKEKAK@?$AAC?$AA?3?$AA?2?$AAg?$AAi?$AAt?$AA?2?$AAp?$AAr?$AAo?$AAj?$AAe?$AAc?$AAt?$AA?9@ 000000014007d1c0     winplatform.obj
 0002:00003250       ??_C@_1II@JJEBDBC@?$AAa?$AAb?$AAs?$AA?$CI?$AAa?$AAs?$AAp?$AAe?$AAc?$AAt?$AA?5?$AA?9?$AA?5?$AAs?$AAt@ 000000014007d250     winplatform.obj
 0002:000032d8       __real@00000000            000000014007d2d8     winplatform.obj
 0002:000032dc       __real@34000000            000000014007d2dc     winplatform.obj
 0002:000032e0       __real@3c8efa35            000000014007d2e0     winplatform.obj
 0002:000032e4       __real@3dcccccd            000000014007d2e4     winplatform.obj
 0002:000032e8       __real@3f000000            000000014007d2e8     winplatform.obj
 0002:000032ec       __real@3f800000            000000014007d2ec     winplatform.obj
 0002:000032f0       __real@3faaaaab            000000014007d2f0     winplatform.obj
 0002:000032f4       __real@40000000            000000014007d2f4     winplatform.obj
 0002:000032f8       __real@40400000            000000014007d2f8     winplatform.obj
 0002:000032fc       __real@42340000            000000014007d2fc     winplatform.obj
 0002:00003300       __real@42c80000            000000014007d300     winplatform.obj
 0002:00003304       __real@437f0000            000000014007d304     winplatform.obj
 0002:00003308       __real@477fff00            000000014007d308     winplatform.obj
 0002:0000330c       __real@bf800000            000000014007d30c     winplatform.obj
 0002:00003310       __xmm@00000200000002000000020000000200 000000014007d310     winplatform.obj
 0002:00003320       __xmm@00080008000800080008000800080008 000000014007d320     winplatform.obj
 0002:00003330       __xmm@00ff00ff00ff00ff00ff00ff00ff00ff 000000014007d330     winplatform.obj
 0002:00003340       __xmm@01010000010100000101000001010000 000000014007d340     winplatform.obj
 0002:00003350       __xmm@08a914e808a914e808a914e808a914e8 000000014007d350     winplatform.obj
 0002:00003360       __xmm@11c8e09e11c8e09e11c8e09e11c8e09e 000000014007d360     winplatform.obj
 0002:00003370       __xmm@11c8f9c311c8f9c311c8f9c311c8f9c3 000000014007d370     winplatform.obj
 0002:00003380       __xmm@12d0046b12d0046b12d0046b12d0046b 000000014007d380     winplatform.obj
 0002:00003390       __xmm@166f166f166f166f166f166f166f166f 000000014007d390     winplatform.obj
 0002:000033a0       __xmm@1c5a1c5a1c5a1c5a1c5a1c5a1c5a1c5a 000000014007d3a0     winplatform.obj
 0002:000033b0       __xmm@80808080808080808080808080808080 000000014007d3b0     winplatform.obj
 0002:000033c0       __xmm@e09ee565e09ee565e09ee565e09ee565 000000014007d3c0     winplatform.obj
 0002:000033d0       __xmm@e9cf12d0e9cf12d0e9cf12d0e9cf12d0 000000014007d3d0     winplatform.obj
 0002:000033e0       __xmm@eb1a08a9eb1a08a9eb1a08a9eb1a08a9 000000014007d3e0     winplatform.obj
 0002:000033f0       __xmm@f493f493f493f493f493f493f493f493 000000014007d3f0     winplatform.obj
 0002:00003400       __xmm@f9c31a9df9c31a9df9c31a9df9c31a9d 000000014007d400     winplatform.obj
 0002:00003410       __xmm@fa7efa7efa7efa7efa7efa7efa7efa7e 000000014007d410     winplatform.obj
 0002:00003468       __real@40b7700000000000    000000014007d468     world.obj
 0002:00003470       __real@41d80000            000000014007d470     world.obj
 0002:00003474       __real@42000000            000000014007d474     world.obj
 0002:00003478       __real@42100000            000000014007d478     world.obj
 0002:0000347c       __real@421c0000            000000014007d47c     world.obj
 0002:00003480       __real@430c0000            000000014007d480     world.obj
 0002:00003484       __real@44610000            000000014007d484     world.obj
 0002:00003488       __real@447a0000            000000014007d488     world.obj
 0002:0000348c       __real@44d20000            000000014007d48c     world.obj
 0002:00003490       __real@45dac000            000000014007d490     world.obj
 0002:000038a0       __real@0000000000000000    000000014007d8a0     glfw3_DEBUG:input.obj
 0002:000038a8       __real@42112e0be8240000    000000014007d8a8     glfw3_DEBUG:input.obj
 0002:00004010       __real@3fe0000000000000    000000014007e010     glfw3_DEBUG:monitor.obj
 0002:00004018       __real@3ff0000000000000    000000014007e018     glfw3_DEBUG:monitor.obj
 0002:00004020       __real@406fe00000000000    000000014007e020     glfw3_DEBUG:monitor.obj
 0002:00004028       __real@40efffe000000000    000000014007e028     glfw3_DEBUG:monitor.obj
 0002:00004030       __real@7f7fffff            000000014007e030     glfw3_DEBUG:monitor.obj
 0002:00004b30       __real@405e000000000000    000000014007eb30     glfw3_DEBUG:win32_window.obj
 0002:00004b40       __xmm@80000000000000008000000000000000 000000014007eb40     glfw3_DEBUG:win32_window.obj
 0002:00004ff0       __real@3f50624dd2f1a9fc    000000014007eff0     glfw3_DEBUG:win32_time.obj
 0002:00004ff8       __real@43e0000000000000    000000014007eff8     glfw3_DEBUG:win32_time.obj
 0002:00005000       __real@43f0000000000000    000000014007f000     glfw3_DEBUG:win32_time.obj
 0002:00005018       ??_7type_info@@6B@         000000014007f018     MSVCRT:std_type_info_static.obj
 0002:00005020       __xmm@ffffffffffffffffffffffffffffffff 000000014007f020     MSVCRT:utility.obj
 0002:00005048       ??_7exception@std@@6B@     000000014007f048     MSVCRT:throw_bad_alloc.obj
 0002:00005060       ??_7bad_alloc@std@@6B@     000000014007f060     MSVCRT:throw_bad_alloc.obj
 0002:00005070       ??_C@_0P@GHFPNOJB@bad?5allocation@ 000000014007f070     MSVCRT:throw_bad_alloc.obj
 0002:00005088       ??_7bad_array_new_length@std@@6B@ 000000014007f088     MSVCRT:throw_bad_alloc.obj
 0002:00005160       ??_C@_0NN@JMPELKLB@The?5value?5of?5ESP?5was?5not?5proper@ 000000014007f160     MSVCRT:error.obj
 0002:00005240       ??_C@_0BBN@ELNNILBE@A?5cast?5to?5a?5smaller?5data?5type?5h@ 000000014007f240     MSVCRT:error.obj
 0002:00005360       ??_C@_0BN@BPOGFMJL@Stack?5memory?5was?5corrupted?$AN?6@ 000000014007f360     MSVCRT:error.obj
 0002:00005380       ??_C@_0DG@DAJCDLPN@A?5local?5variable?5was?5used?5befor@ 000000014007f380     MSVCRT:error.obj
 0002:000053b8       ??_C@_0CM@JMIDGKLA@Stack?5memory?5around?5_alloca?5was@ 000000014007f3b8     MSVCRT:error.obj
 0002:000053e8       ??_C@_0BO@CHIONIOI@Unknown?5Runtime?5Check?5Error?$AN?6@ 000000014007f3e8     MSVCRT:error.obj
 0002:00005410       ??_C@_1GM@CNOOJIHC@?$AAR?$AAu?$AAn?$AAt?$AAi?$AAm?$AAe?$AA?5?$AAC?$AAh?$AAe?$AAc?$AAk?$AA?5?$AAE@ 000000014007f410     MSVCRT:error.obj
 0002:00005480       ??_C@_1EA@NFKNIFJP@?$AAR?$AAu?$AAn?$AA?9?$AAT?$AAi?$AAm?$AAe?$AA?5?$AAC?$AAh?$AAe?$AAc?$AAk?$AA?5@ 000000014007f480     MSVCRT:error.obj
 0002:000054c0       ??_C@_0BB@PFFGGCJP@Unknown?5Filename@ 000000014007f4c0     MSVCRT:error.obj
 0002:000054d8       ??_C@_0BE@GNBOBNCK@Unknown?5Module?5Name@ 000000014007f4d8     MSVCRT:error.obj
 0002:000054f0       ??_C@_0CA@IODNCDPG@Run?9Time?5Check?5Failure?5?$CD?$CFd?5?9?5?$CFs@ 000000014007f4f0     MSVCRT:error.obj
 0002:00005510       ??_C@_0CG@IAFNJNEE@Stack?5corrupted?5near?5unknown?5va@ 000000014007f510     MSVCRT:error.obj
 0002:00005560       ??_C@_0BJ@HEGAHDFO@Stack?5pointer?5corruption@ 000000014007f560     MSVCRT:userapi.obj
 0002:00005580       ??_C@_0CK@FEGOIOPB@Cast?5to?5smaller?5type?5causing?5lo@ 000000014007f580     MSVCRT:userapi.obj
 0002:000055b0       ??_C@_0BI@CIGMDCBH@Stack?5memory?5corruption@ 000000014007f5b0     MSVCRT:userapi.obj
 0002:000055c8       ??_C@_0CK@CNLNOEPB@Local?5variable?5used?5before?5init@ 000000014007f5c8     MSVCRT:userapi.obj
 0002:000055f8       ??_C@_0BP@OGBCLIBO@Stack?5around?5_alloca?5corrupted@ 000000014007f5f8     MSVCRT:userapi.obj
 0002:00005650       ??_C@_1EI@MLPKHBGE@?$AAa?$AAp?$AAi?$AA?9?$AAm?$AAs?$AA?9?$AAw?$AAi?$AAn?$AA?9?$AAc?$AAo?$AAr?$AAe@ 000000014007f650     MSVCRT:pdblkup.obj
 0002:00005698       ??_C@_1BK@JHLNAEJL@?$AAa?$AAd?$AAv?$AAa?$AAp?$AAi?$AA3?$AA2?$AA?4?$AAd?$AAl?$AAl@ 000000014007f698     MSVCRT:pdblkup.obj
 0002:000056b8       ??_C@_0O@COHOBMLB@RegOpenKeyExW@ 000000014007f6b8     MSVCRT:pdblkup.obj
 0002:000056c8       ??_C@_0BB@GLNAEDBD@RegQueryValueExW@ 000000014007f6c8     MSVCRT:pdblkup.obj
 0002:000056e0       ??_C@_0M@HLOHPNFA@RegCloseKey@ 000000014007f6e0     MSVCRT:pdblkup.obj
 0002:000056f0       ??_C@_1HE@EBEAGLFB@?$AAS?$AAO?$AAF?$AAT?$AAW?$AAA?$AAR?$AAE?$AA?2?$AAW?$AAo?$AAw?$AA6?$AA4?$AA3@ 000000014007f6f0     MSVCRT:pdblkup.obj
 0002:00005768       ??_C@_1BG@EABPBLLF@?$AAP?$AAr?$AAo?$AAd?$AAu?$AAc?$AAt?$AAD?$AAi?$AAr@ 000000014007f768     MSVCRT:pdblkup.obj
 0002:00005780       ??_C@_0BB@KCIACLNC@PDBOpenValidate5@ 000000014007f780     MSVCRT:pdblkup.obj
 0002:00005794       ??_C@_01KDCPPGHE@r@        000000014007f794     MSVCRT:pdblkup.obj
 0002:000057f0       _load_config_used          000000014007f7f0     MSVCRT:loadcfg.obj
 0002:00005920       _tls_used                  000000014007f920     MSVCRT:tlssup.obj
 0002:00005948       ??_R4type_info@@6B@        000000014007f948     MSVCRT:std_type_info_static.obj
 0002:00005970       ??_R3type_info@@8          000000014007f970     MSVCRT:std_type_info_static.obj
 0002:00005988       ??_R2type_info@@8          000000014007f988     MSVCRT:std_type_info_static.obj
 0002:00005998       ??_R1A@?0A@EA@type_info@@8 000000014007f998     MSVCRT:std_type_info_static.obj
 0002:000059c0       ??_R4exception@std@@6B@    000000014007f9c0     MSVCRT:throw_bad_alloc.obj
 0002:000059e8       ??_R3exception@std@@8      000000014007f9e8     MSVCRT:throw_bad_alloc.obj
 0002:00005a00       ??_R2exception@std@@8      000000014007fa00     MSVCRT:throw_bad_alloc.obj
 0002:00005a10       ??_R1A@?0A@EA@exception@std@@8 000000014007fa10     MSVCRT:throw_bad_alloc.obj
 0002:00005a38       ??_R4bad_alloc@std@@6B@    000000014007fa38     MSVCRT:throw_bad_alloc.obj
 0002:00005a60       ??_R3bad_alloc@std@@8      000000014007fa60     MSVCRT:throw_bad_alloc.obj
 0002:00005a78       ??_R2bad_alloc@std@@8      000000014007fa78     MSVCRT:throw_bad_alloc.obj
 0002:00005a90       ??_R1A@?0A@EA@bad_alloc@std@@8 000000014007fa90     MSVCRT:throw_bad_alloc.obj
 0002:00005ab8       ??_R4bad_array_new_length@std@@6B@ 000000014007fab8     MSVCRT:throw_bad_alloc.obj
 0002:00005ae0       ??_R3bad_array_new_length@std@@8 000000014007fae0     MSVCRT:throw_bad_alloc.obj
 0002:00005af8       ??_R2bad_array_new_length@std@@8 000000014007faf8     MSVCRT:throw_bad_alloc.obj
 0002:00005b18       ??_R1A@?0A@EA@bad_array_new_length@std@@8 000000014007fb18     MSVCRT:throw_bad_alloc.obj
 0002:00005ed0       __rtc_iaa                  000000014007fed0     MSVCRT:initsect.obj
 0002:00005ed8       __rtc_izz                  000000014007fed8     MSVCRT:initsect.obj
 0002:00005ee0       __rtc_taa                  000000014007fee0     MSVCRT:initsect.obj
 0002:00005ee8       __rtc_tzz                  000000014007fee8     MSVCRT:initsect.obj
 0002:00005ef0       _tls_start                 000000014007fef0     MSVCRT:tlssup.obj
 0002:00005f08       _tls_end                   000000014007ff08     MSVCRT:tlssup.obj
 0002:00008488       _TI3?AVbad_array_new_length@std@@ 0000000140082488     objloader.obj
 0002:000084a8       _CTA3?AVbad_array_new_length@std@@ 00000001400824a8     objloader.obj
 0002:000084c8       _CT??_R0?AVbad_array_new_length@std@@@8??0bad_array_new_length@std@@QEAA@AEBV01@@Z24 00000001400824c8     objloader.obj
 0002:000084f0       _CT??_R0?AVbad_alloc@std@@@8??0bad_alloc@std@@QEAA@AEBV01@@Z24 00000001400824f0     objloader.obj
 0002:00008518       _CT??_R0?AVexception@std@@@8??0exception@std@@QEAA@AEBV01@@Z24 0000000140082518     objloader.obj
 0002:00008540       _TI2?AVbad_cast@std@@      0000000140082540     shader.obj
 0002:00008560       _CTA2?AVbad_cast@std@@     0000000140082560     shader.obj
 0002:00008578       _CT??_R0?AVbad_cast@std@@@8??0bad_cast@std@@QEAA@AEBV01@@Z24 0000000140082578     shader.obj
 0002:000085a0       _TI2?AVbad_alloc@std@@     00000001400825a0     MSVCRT:throw_bad_alloc.obj
 0002:000085c0       _CTA2?AVbad_alloc@std@@    00000001400825c0     MSVCRT:throw_bad_alloc.obj
 0002:000085d4       __IMPORT_DESCRIPTOR_OPENGL32 00000001400825d4     opengl32:OPENGL32.dll
 0002:000085e8       __IMPORT_DESCRIPTOR_MSVCP140 00000001400825e8     msvcprt:MSVCP140.dll
 0002:000085fc       __IMPORT_DESCRIPTOR_KERNEL32 00000001400825fc     kernel32:KERNEL32.dll
 0002:00008610       __IMPORT_DESCRIPTOR_VCRUNTIME140_1 0000000140082610     vcruntime:VCRUNTIME140_1.dll
 0002:00008624       __IMPORT_DESCRIPTOR_VCRUNTIME140 0000000140082624     vcruntime:VCRUNTIME140.dll
 0002:00008638       __IMPORT_DESCRIPTOR_api-ms-win-crt-runtime-l1-1-0 0000000140082638     ucrt:api-ms-win-crt-runtime-l1-1-0.dll
 0002:0000864c       __IMPORT_DESCRIPTOR_api-ms-win-crt-stdio-l1-1-0 000000014008264c     ucrt:api-ms-win-crt-stdio-l1-1-0.dll
 0002:00008660       __IMPORT_DESCRIPTOR_api-ms-win-crt-filesystem-l1-1-0 0000000140082660     ucrt:api-ms-win-crt-filesystem-l1-1-0.dll
 0002:00008674       __IMPORT_DESCRIPTOR_api-ms-win-crt-heap-l1-1-0 0000000140082674     ucrt:api-ms-win-crt-heap-l1-1-0.dll
 0002:00008688       __IMPORT_DESCRIPTOR_api-ms-win-crt-convert-l1-1-0 0000000140082688     ucrt:api-ms-win-crt-convert-l1-1-0.dll
 0002:0000869c       __IMPORT_DESCRIPTOR_api-ms-win-crt-math-l1-1-0 000000014008269c     ucrt:api-ms-win-crt-math-l1-1-0.dll
 0002:000086b0       __IMPORT_DESCRIPTOR_api-ms-win-crt-string-l1-1-0 00000001400826b0     ucrt:api-ms-win-crt-string-l1-1-0.dll
 0002:000086c4       __IMPORT_DESCRIPTOR_api-ms-win-crt-utility-l1-1-0 00000001400826c4     ucrt:api-ms-win-crt-utility-l1-1-0.dll
 0002:000086d8       __IMPORT_DESCRIPTOR_api-ms-win-crt-locale-l1-1-0 00000001400826d8     ucrt:api-ms-win-crt-locale-l1-1-0.dll
 0002:000086ec       __IMPORT_DESCRIPTOR_USER32 00000001400826ec     user32:USER32.dll
 0002:00008700       __IMPORT_DESCRIPTOR_GDI32  0000000140082700     Gdi32:GDI32.dll
 0002:00008714       __IMPORT_DESCRIPTOR_SHELL32 0000000140082714     shell32:SHELL32.dll
 0002:00008728       __NULL_IMPORT_DESCRIPTOR   0000000140082728     opengl32:OPENGL32.dll
 0003:000190b0       __security_cookie_complement 000000014009e0b0     MSVCRT:gs_cookie.obj
 0003:000190b8       __security_cookie          000000014009e0b8     MSVCRT:gs_cookie.obj
 0003:000190c0       _fltused                   000000014009e0c0     MSVCRT:fltused.obj
 0003:000190c4       __scrt_native_dllmain_reason 000000014009e0c4     MSVCRT:utility.obj
 0003:000190d0       __isa_available            000000014009e0d0     MSVCRT:cpu_disp.obj
 0003:000190d4       __isa_enabled              000000014009e0d4     MSVCRT:cpu_disp.obj
 0003:000190d8       __memcpy_nt_iters          000000014009e0d8     MSVCRT:cpu_disp.obj
 0003:000190e0       __memset_nt_iters          000000014009e0e0     MSVCRT:cpu_disp.obj
 0003:000190e8       __scrt_default_matherr     000000014009e0e8     MSVCRT:matherr.obj
 0003:000190f0       ?_RTC_ErrorLevels@@3PAHA   000000014009e0f0     MSVCRT:error.obj
 0003:00019110       __scrt_ucrt_dll_is_in_use  000000014009e110     MSVCRT:ucrt_stubs.obj
 0003:00019118       ??_R0?AVbad_array_new_length@std@@@8 000000014009e118     objloader.obj
 0003:00019148       ??_R0?AVbad_alloc@std@@@8  000000014009e148     objloader.obj
 0003:00019170       ??_R0?AVexception@std@@@8  000000014009e170     objloader.obj
 0003:00019198       ??_R0?AVbad_cast@std@@@8   000000014009e198     shader.obj
 0003:000191c0       ??_R0?AVtype_info@@@8      000000014009e1c0     MSVCRT:std_type_info_static.obj
 0003:000191e0       ?_OptionsStorage@?1??__local_stdio_printf_options@@9@4_KA 000000014009e1e0     objloader.obj
 0003:000191e8       ?_OptionsStorage@?1??__local_stdio_scanf_options@@9@4_KA 000000014009e1e8     objloader.obj
 0003:000191f0       ?_Stinit@?1??_Init@?$basic_filebuf@DU?$char_traits@D@std@@@std@@IEAAXPEAU_iobuf@@W4_Initfl@23@@Z@4U_Mbstatet@@A 000000014009e1f0     shader.obj
 0003:000191f8       ?_Psave@?$_Facetptr@V?$codecvt@DDU_Mbstatet@@@std@@@std@@2PEBVfacet@locale@2@EB 000000014009e1f8     shader.obj
 0003:000192a0       __glewStencilThenCoverFillPathNV 000000014009e2a0     GLEW_1130_DEBUG:glew.obj
 0003:000192a8       __glewGetBufferParameterivARB 000000014009e2a8     GLEW_1130_DEBUG:glew.obj
 0003:000192b0       __glewStencilThenCoverStrokePathInstancedNV 000000014009e2b0     GLEW_1130_DEBUG:glew.obj
 0003:000192b8       __glewGetBufferPointervARB 000000014009e2b8     GLEW_1130_DEBUG:glew.obj
 0003:000192c0       __glewStencilThenCoverStrokePathNV 000000014009e2c0     GLEW_1130_DEBUG:glew.obj
 0003:000192c8       __glewGetBufferSubDataARB  000000014009e2c8     GLEW_1130_DEBUG:glew.obj
 0003:000192d0       __glewTransformPathNV      000000014009e2d0     GLEW_1130_DEBUG:glew.obj
 0003:000192d8       __glewIsBufferARB          000000014009e2d8     GLEW_1130_DEBUG:glew.obj
 0003:000192e0       __glewMapBufferARB         000000014009e2e0     GLEW_1130_DEBUG:glew.obj
 0003:000192e8       __glewWeightPathsNV        000000014009e2e8     GLEW_1130_DEBUG:glew.obj
 0003:000192f0       __glewUnmapBufferARB       000000014009e2f0     GLEW_1130_DEBUG:glew.obj
 0003:000192f8       __glewFlushPixelDataRangeNV 000000014009e2f8     GLEW_1130_DEBUG:glew.obj
 0003:00019300       __glewBindProgramARB       000000014009e300     GLEW_1130_DEBUG:glew.obj
 0003:00019308       __glewPixelDataRangeNV     000000014009e308     GLEW_1130_DEBUG:glew.obj
 0003:00019310       __glewDeleteProgramsARB    000000014009e310     GLEW_1130_DEBUG:glew.obj
 0003:00019318       __glewPointParameteriNV    000000014009e318     GLEW_1130_DEBUG:glew.obj
 0003:00019320       __glewDisableVertexAttribArrayARB 000000014009e320     GLEW_1130_DEBUG:glew.obj
 0003:00019328       __glewPointParameterivNV   000000014009e328     GLEW_1130_DEBUG:glew.obj
 0003:00019330       __glewGetVideoi64vNV       000000014009e330     GLEW_1130_DEBUG:glew.obj
 0003:00019338       __glewEnableVertexAttribArrayARB 000000014009e338     GLEW_1130_DEBUG:glew.obj
 0003:00019340       __glewGenProgramsARB       000000014009e340     GLEW_1130_DEBUG:glew.obj
 0003:00019348       __glewGetVideoivNV         000000014009e348     GLEW_1130_DEBUG:glew.obj
 0003:00019350       __glewGetVideoui64vNV      000000014009e350     GLEW_1130_DEBUG:glew.obj
 0003:00019358       __glewGetProgramEnvParameterdvARB 000000014009e358     GLEW_1130_DEBUG:glew.obj
 0003:00019360       __glewGetProgramEnvParameterfvARB 000000014009e360     GLEW_1130_DEBUG:glew.obj
 0003:00019368       __glewGetVideouivNV        000000014009e368     GLEW_1130_DEBUG:glew.obj
 0003:00019370       __glewGetProgramLocalParameterdvARB 000000014009e370     GLEW_1130_DEBUG:glew.obj
 0003:00019378       __glewPresentFrameDualFillNV 000000014009e378     GLEW_1130_DEBUG:glew.obj
 0003:00019380       __glewGetProgramLocalParameterfvARB 000000014009e380     GLEW_1130_DEBUG:glew.obj
 0003:00019388       __glewPresentFrameKeyedNV  000000014009e388     GLEW_1130_DEBUG:glew.obj
 0003:00019390       __glewGetProgramStringARB  000000014009e390     GLEW_1130_DEBUG:glew.obj
 0003:00019398       __glewPrimitiveRestartIndexNV 000000014009e398     GLEW_1130_DEBUG:glew.obj
 0003:000193a0       __glewGetProgramivARB      000000014009e3a0     GLEW_1130_DEBUG:glew.obj
 0003:000193a8       __glewPrimitiveRestartNV   000000014009e3a8     GLEW_1130_DEBUG:glew.obj
 0003:000193b0       __glewCombinerInputNV      000000014009e3b0     GLEW_1130_DEBUG:glew.obj
 0003:000193b8       __glewGetVertexAttribPointervARB 000000014009e3b8     GLEW_1130_DEBUG:glew.obj
 0003:000193c0       __glewCombinerOutputNV     000000014009e3c0     GLEW_1130_DEBUG:glew.obj
 0003:000193c8       __glewGetVertexAttribdvARB 000000014009e3c8     GLEW_1130_DEBUG:glew.obj
 0003:000193d0       __glewCombinerParameterfNV 000000014009e3d0     GLEW_1130_DEBUG:glew.obj
 0003:000193d8       __glewGetVertexAttribfvARB 000000014009e3d8     GLEW_1130_DEBUG:glew.obj
 0003:000193e0       __glewCombinerParameterfvNV 000000014009e3e0     GLEW_1130_DEBUG:glew.obj
 0003:000193e8       __glewGetVertexAttribivARB 000000014009e3e8     GLEW_1130_DEBUG:glew.obj
 0003:000193f0       __glewIsProgramARB         000000014009e3f0     GLEW_1130_DEBUG:glew.obj
 0003:000193f8       __glewCombinerParameteriNV 000000014009e3f8     GLEW_1130_DEBUG:glew.obj
 0003:00019400       __glewCombinerParameterivNV 000000014009e400     GLEW_1130_DEBUG:glew.obj
 0003:00019408       __glewProgramEnvParameter4dARB 000000014009e408     GLEW_1130_DEBUG:glew.obj
 0003:00019410       __glewFinalCombinerInputNV 000000014009e410     GLEW_1130_DEBUG:glew.obj
 0003:00019418       __glewProgramEnvParameter4dvARB 000000014009e418     GLEW_1130_DEBUG:glew.obj
 0003:00019420       __glewProgramEnvParameter4fARB 000000014009e420     GLEW_1130_DEBUG:glew.obj
 0003:00019428       __glewGetCombinerInputParameterfvNV 000000014009e428     GLEW_1130_DEBUG:glew.obj
 0003:00019430       __glewGetCombinerInputParameterivNV 000000014009e430     GLEW_1130_DEBUG:glew.obj
 0003:00019438       __glewProgramEnvParameter4fvARB 000000014009e438     GLEW_1130_DEBUG:glew.obj
 0003:00019440       __glewProgramLocalParameter4dARB 000000014009e440     GLEW_1130_DEBUG:glew.obj
 0003:00019448       __glewGetCombinerOutputParameterfvNV 000000014009e448     GLEW_1130_DEBUG:glew.obj
 0003:00019450       __glewGetCombinerOutputParameterivNV 000000014009e450     GLEW_1130_DEBUG:glew.obj
 0003:00019458       __glewProgramLocalParameter4dvARB 000000014009e458     GLEW_1130_DEBUG:glew.obj
 0003:00019460       __glewGetFinalCombinerInputParameterfvNV 000000014009e460     GLEW_1130_DEBUG:glew.obj
 0003:00019468       __glewProgramLocalParameter4fARB 000000014009e468     GLEW_1130_DEBUG:glew.obj
 0003:00019470       __glewProgramLocalParameter4fvARB 000000014009e470     GLEW_1130_DEBUG:glew.obj
 0003:00019478       __glewGetFinalCombinerInputParameterivNV 000000014009e478     GLEW_1130_DEBUG:glew.obj
 0003:00019480       __glewCombinerStageParameterfvNV 000000014009e480     GLEW_1130_DEBUG:glew.obj
 0003:00019488       __glewProgramStringARB     000000014009e488     GLEW_1130_DEBUG:glew.obj
 0003:00019490       __glewVertexAttrib1dARB    000000014009e490     GLEW_1130_DEBUG:glew.obj
 0003:00019498       __glewGetCombinerStageParameterfvNV 000000014009e498     GLEW_1130_DEBUG:glew.obj
 0003:000194a0       __glewVertexAttrib1dvARB   000000014009e4a0     GLEW_1130_DEBUG:glew.obj
 0003:000194a8       __glewFramebufferSampleLocationsfvNV 000000014009e4a8     GLEW_1130_DEBUG:glew.obj
 0003:000194b0       __glewNamedFramebufferSampleLocationsfvNV 000000014009e4b0     GLEW_1130_DEBUG:glew.obj
 0003:000194b8       __glewVertexAttrib1fARB    000000014009e4b8     GLEW_1130_DEBUG:glew.obj
 0003:000194c0       __glewCopyTexSubImage3D    000000014009e4c0     GLEW_1130_DEBUG:glew.obj
 0003:000194c8       __glewGetBufferParameterui64vNV 000000014009e4c8     GLEW_1130_DEBUG:glew.obj
 0003:000194d0       __glewVertexAttrib1fvARB   000000014009e4d0     GLEW_1130_DEBUG:glew.obj
 0003:000194d8       __glewVertexAttrib1sARB    000000014009e4d8     GLEW_1130_DEBUG:glew.obj
 0003:000194e0       __glewDrawRangeElements    000000014009e4e0     GLEW_1130_DEBUG:glew.obj
 0003:000194e8       __glewGetIntegerui64vNV    000000014009e4e8     GLEW_1130_DEBUG:glew.obj
 0003:000194f0       __glewTexImage3D           000000014009e4f0     GLEW_1130_DEBUG:glew.obj
 0003:000194f8       __glewGetNamedBufferParameterui64vNV 000000014009e4f8     GLEW_1130_DEBUG:glew.obj
 0003:00019500       __glewVertexAttrib1svARB   000000014009e500     GLEW_1130_DEBUG:glew.obj
 0003:00019508       __glewIsBufferResidentNV   000000014009e508     GLEW_1130_DEBUG:glew.obj
 0003:00019510       __glewVertexAttrib2dARB    000000014009e510     GLEW_1130_DEBUG:glew.obj
 0003:00019518       __glewTexSubImage3D        000000014009e518     GLEW_1130_DEBUG:glew.obj
 0003:00019520       __glewIsNamedBufferResidentNV 000000014009e520     GLEW_1130_DEBUG:glew.obj
 0003:00019528       __glewActiveTexture        000000014009e528     GLEW_1130_DEBUG:glew.obj
 0003:00019530       __glewVertexAttrib2dvARB   000000014009e530     GLEW_1130_DEBUG:glew.obj
 0003:00019538       __glewClientActiveTexture  000000014009e538     GLEW_1130_DEBUG:glew.obj
 0003:00019540       __glewVertexAttrib2fARB    000000014009e540     GLEW_1130_DEBUG:glew.obj
 0003:00019548       __wglewSetStereoEmitterState3DL 000000014009e548     GLEW_1130_DEBUG:glew.obj
 0003:00019550       __glewMakeBufferNonResidentNV 000000014009e550     GLEW_1130_DEBUG:glew.obj
 0003:00019558       __glewMakeBufferResidentNV 000000014009e558     GLEW_1130_DEBUG:glew.obj
 0003:00019560       __glewVertexAttrib2fvARB   000000014009e560     GLEW_1130_DEBUG:glew.obj
 0003:00019568       __wglewBlitContextFramebufferAMD 000000014009e568     GLEW_1130_DEBUG:glew.obj
 0003:00019570       __glewCompressedTexImage1D 000000014009e570     GLEW_1130_DEBUG:glew.obj
 0003:00019578       __wglewCreateAssociatedContextAMD 000000014009e578     GLEW_1130_DEBUG:glew.obj
 0003:00019580       __glewVertexAttrib2sARB    000000014009e580     GLEW_1130_DEBUG:glew.obj
 0003:00019588       __glewMakeNamedBufferNonResidentNV 000000014009e588     GLEW_1130_DEBUG:glew.obj
 0003:00019590       __glewCompressedTexImage2D 000000014009e590     GLEW_1130_DEBUG:glew.obj
 0003:00019598       __glewMakeNamedBufferResidentNV 000000014009e598     GLEW_1130_DEBUG:glew.obj
 0003:000195a0       __wglewCreateAssociatedContextAttribsAMD 000000014009e5a0     GLEW_1130_DEBUG:glew.obj
 0003:000195a8       __glewVertexAttrib2svARB   000000014009e5a8     GLEW_1130_DEBUG:glew.obj
 0003:000195b0       __glewCompressedTexImage3D 000000014009e5b0     GLEW_1130_DEBUG:glew.obj
 0003:000195b8       __glewVertexAttrib3dARB    000000014009e5b8     GLEW_1130_DEBUG:glew.obj
 0003:000195c0       __glewCompressedTexSubImage1D 000000014009e5c0     GLEW_1130_DEBUG:glew.obj
 0003:000195c8       __glewProgramUniformui64NV 000000014009e5c8     GLEW_1130_DEBUG:glew.obj
 0003:000195d0       __wglewDeleteAssociatedContextAMD 000000014009e5d0     GLEW_1130_DEBUG:glew.obj
 0003:000195d8       __glewProgramUniformui64vNV 000000014009e5d8     GLEW_1130_DEBUG:glew.obj
 0003:000195e0       __glewVertexAttrib3dvARB   000000014009e5e0     GLEW_1130_DEBUG:glew.obj
 0003:000195e8       __glewCompressedTexSubImage2D 000000014009e5e8     GLEW_1130_DEBUG:glew.obj
 0003:000195f0       __wglewGetContextGPUIDAMD  000000014009e5f0     GLEW_1130_DEBUG:glew.obj
 0003:000195f8       __glewUniformui64NV        000000014009e5f8     GLEW_1130_DEBUG:glew.obj
 0003:00019600       __glewVertexAttrib3fARB    000000014009e600     GLEW_1130_DEBUG:glew.obj
 0003:00019608       __wglewGetCurrentAssociatedContextAMD 000000014009e608     GLEW_1130_DEBUG:glew.obj
 0003:00019610       __glewCompressedTexSubImage3D 000000014009e610     GLEW_1130_DEBUG:glew.obj
 0003:00019618       __glewGetCompressedTexImage 000000014009e618     GLEW_1130_DEBUG:glew.obj
 0003:00019620       __glewUniformui64vNV       000000014009e620     GLEW_1130_DEBUG:glew.obj
 0003:00019628       __glewVertexAttrib3fvARB   000000014009e628     GLEW_1130_DEBUG:glew.obj
 0003:00019630       __wglewGetGPUIDsAMD        000000014009e630     GLEW_1130_DEBUG:glew.obj
 0003:00019638       __glewVertexAttrib3sARB    000000014009e638     GLEW_1130_DEBUG:glew.obj
 0003:00019640       __wglewGetGPUInfoAMD       000000014009e640     GLEW_1130_DEBUG:glew.obj
 0003:00019648       __glewLoadTransposeMatrixd 000000014009e648     GLEW_1130_DEBUG:glew.obj
 0003:00019650       __glewTextureBarrierNV     000000014009e650     GLEW_1130_DEBUG:glew.obj
 0003:00019658       __glewLoadTransposeMatrixf 000000014009e658     GLEW_1130_DEBUG:glew.obj
 0003:00019660       __wglewMakeAssociatedContextCurrentAMD 000000014009e660     GLEW_1130_DEBUG:glew.obj
 0003:00019668       __glewTexImage2DMultisampleCoverageNV 000000014009e668     GLEW_1130_DEBUG:glew.obj
 0003:00019670       __glewVertexAttrib3svARB   000000014009e670     GLEW_1130_DEBUG:glew.obj
 0003:00019678       __glewVertexAttrib4NbvARB  000000014009e678     GLEW_1130_DEBUG:glew.obj
 0003:00019680       __wglewCreateBufferRegionARB 000000014009e680     GLEW_1130_DEBUG:glew.obj
 0003:00019688       __glewMultTransposeMatrixd 000000014009e688     GLEW_1130_DEBUG:glew.obj
 0003:00019690       __glewTexImage3DMultisampleCoverageNV 000000014009e690     GLEW_1130_DEBUG:glew.obj
 0003:00019698       __glewMultTransposeMatrixf 000000014009e698     GLEW_1130_DEBUG:glew.obj
 0003:000196a0       __wglewDeleteBufferRegionARB 000000014009e6a0     GLEW_1130_DEBUG:glew.obj
 0003:000196a8       __glewVertexAttrib4NivARB  000000014009e6a8     GLEW_1130_DEBUG:glew.obj
 0003:000196b0       __glewTextureImage2DMultisampleCoverageNV 000000014009e6b0     GLEW_1130_DEBUG:glew.obj
 0003:000196b8       __wglewRestoreBufferRegionARB 000000014009e6b8     GLEW_1130_DEBUG:glew.obj
 0003:000196c0       __glewMultiTexCoord1d      000000014009e6c0     GLEW_1130_DEBUG:glew.obj
 0003:000196c8       __glewVertexAttrib4NsvARB  000000014009e6c8     GLEW_1130_DEBUG:glew.obj
 0003:000196d0       __glewTextureImage2DMultisampleNV 000000014009e6d0     GLEW_1130_DEBUG:glew.obj
 0003:000196d8       __glewVertexAttrib4NubARB  000000014009e6d8     GLEW_1130_DEBUG:glew.obj
 0003:000196e0       __glewTextureImage3DMultisampleCoverageNV 000000014009e6e0     GLEW_1130_DEBUG:glew.obj
 0003:000196e8       __glewMultiTexCoord1dv     000000014009e6e8     GLEW_1130_DEBUG:glew.obj
 0003:000196f0       __wglewSaveBufferRegionARB 000000014009e6f0     GLEW_1130_DEBUG:glew.obj
 0003:000196f8       __glewTextureImage3DMultisampleNV 000000014009e6f8     GLEW_1130_DEBUG:glew.obj
 0003:00019700       __glewMultiTexCoord1f      000000014009e700     GLEW_1130_DEBUG:glew.obj
 0003:00019708       __glewVertexAttrib4NubvARB 000000014009e708     GLEW_1130_DEBUG:glew.obj
 0003:00019710       __wglewCreateContextAttribsARB 000000014009e710     GLEW_1130_DEBUG:glew.obj
 0003:00019718       __glewMultiTexCoord1fv     000000014009e718     GLEW_1130_DEBUG:glew.obj
 0003:00019720       __wglewGetExtensionsStringARB 000000014009e720     GLEW_1130_DEBUG:glew.obj
 0003:00019728       __glewActiveVaryingNV      000000014009e728     GLEW_1130_DEBUG:glew.obj
 0003:00019730       __glewVertexAttrib4NuivARB 000000014009e730     GLEW_1130_DEBUG:glew.obj
 0003:00019738       __glewMultiTexCoord1i      000000014009e738     GLEW_1130_DEBUG:glew.obj
 0003:00019740       __glewBeginTransformFeedbackNV 000000014009e740     GLEW_1130_DEBUG:glew.obj
 0003:00019748       __glewVertexAttrib4NusvARB 000000014009e748     GLEW_1130_DEBUG:glew.obj
 0003:00019750       __wglewGetCurrentReadDCARB 000000014009e750     GLEW_1130_DEBUG:glew.obj
 0003:00019758       __wglewMakeContextCurrentARB 000000014009e758     GLEW_1130_DEBUG:glew.obj
 0003:00019760       __glewBindBufferBaseNV     000000014009e760     GLEW_1130_DEBUG:glew.obj
 0003:00019768       __glewMultiTexCoord1iv     000000014009e768     GLEW_1130_DEBUG:glew.obj
 0003:00019770       __glewVertexAttrib4bvARB   000000014009e770     GLEW_1130_DEBUG:glew.obj
 0003:00019778       __glewVertexAttrib4dARB    000000014009e778     GLEW_1130_DEBUG:glew.obj
 0003:00019780       __glewBindBufferOffsetNV   000000014009e780     GLEW_1130_DEBUG:glew.obj
 0003:00019788       __glewMultiTexCoord1s      000000014009e788     GLEW_1130_DEBUG:glew.obj
 0003:00019790       __wglewCreatePbufferARB    000000014009e790     GLEW_1130_DEBUG:glew.obj
 0003:00019798       __glewVertexAttrib4dvARB   000000014009e798     GLEW_1130_DEBUG:glew.obj
 0003:000197a0       __wglewDestroyPbufferARB   000000014009e7a0     GLEW_1130_DEBUG:glew.obj
 0003:000197a8       __glewMultiTexCoord1sv     000000014009e7a8     GLEW_1130_DEBUG:glew.obj
 0003:000197b0       __glewBindBufferRangeNV    000000014009e7b0     GLEW_1130_DEBUG:glew.obj
 0003:000197b8       __wglewGetPbufferDCARB     000000014009e7b8     GLEW_1130_DEBUG:glew.obj
 0003:000197c0       __glewEndTransformFeedbackNV 000000014009e7c0     GLEW_1130_DEBUG:glew.obj
 0003:000197c8       __glewMultiTexCoord2d      000000014009e7c8     GLEW_1130_DEBUG:glew.obj
 0003:000197d0       __glewVertexAttrib4fARB    000000014009e7d0     GLEW_1130_DEBUG:glew.obj
 0003:000197d8       __wglewQueryPbufferARB     000000014009e7d8     GLEW_1130_DEBUG:glew.obj
 0003:000197e0       __glewMultiTexCoord2dv     000000014009e7e0     GLEW_1130_DEBUG:glew.obj
 0003:000197e8       __glewVertexAttrib4fvARB   000000014009e7e8     GLEW_1130_DEBUG:glew.obj
 0003:000197f0       __glewGetActiveVaryingNV   000000014009e7f0     GLEW_1130_DEBUG:glew.obj
 0003:000197f8       __glewVertexAttrib4ivARB   000000014009e7f8     GLEW_1130_DEBUG:glew.obj
 0003:00019800       __glewMultiTexCoord2f      000000014009e800     GLEW_1130_DEBUG:glew.obj
 0003:00019808       __wglewReleasePbufferDCARB 000000014009e808     GLEW_1130_DEBUG:glew.obj
 0003:00019810       __glewGetTransformFeedbackVaryingNV 000000014009e810     GLEW_1130_DEBUG:glew.obj
 0003:00019818       __glewGetVaryingLocationNV 000000014009e818     GLEW_1130_DEBUG:glew.obj
 0003:00019820       __wglewChoosePixelFormatARB 000000014009e820     GLEW_1130_DEBUG:glew.obj
 0003:00019828       __glewMultiTexCoord2fv     000000014009e828     GLEW_1130_DEBUG:glew.obj
 0003:00019830       __glewVertexAttrib4sARB    000000014009e830     GLEW_1130_DEBUG:glew.obj
 0003:00019838       __wglewGetPixelFormatAttribfvARB 000000014009e838     GLEW_1130_DEBUG:glew.obj
 0003:00019840       __glewMultiTexCoord2i      000000014009e840     GLEW_1130_DEBUG:glew.obj
 0003:00019848       __glewVertexAttrib4svARB   000000014009e848     GLEW_1130_DEBUG:glew.obj
 0003:00019850       __glewTransformFeedbackAttribsNV 000000014009e850     GLEW_1130_DEBUG:glew.obj
 0003:00019858       __glewVertexAttrib4ubvARB  000000014009e858     GLEW_1130_DEBUG:glew.obj
 0003:00019860       __wglewGetPixelFormatAttribivARB 000000014009e860     GLEW_1130_DEBUG:glew.obj
 0003:00019868       __glewTransformFeedbackVaryingsNV 000000014009e868     GLEW_1130_DEBUG:glew.obj
 0003:00019870       __glewMultiTexCoord2iv     000000014009e870     GLEW_1130_DEBUG:glew.obj
 0003:00019878       __glewBindTransformFeedbackNV 000000014009e878     GLEW_1130_DEBUG:glew.obj
 0003:00019880       __wglewBindTexImageARB     000000014009e880     GLEW_1130_DEBUG:glew.obj
 0003:00019888       __glewMultiTexCoord2s      000000014009e888     GLEW_1130_DEBUG:glew.obj
 0003:00019890       __glewVertexAttrib4uivARB  000000014009e890     GLEW_1130_DEBUG:glew.obj
 0003:00019898       __glewVertexAttrib4usvARB  000000014009e898     GLEW_1130_DEBUG:glew.obj
 0003:000198a0       __wglewReleaseTexImageARB  000000014009e8a0     GLEW_1130_DEBUG:glew.obj
 0003:000198a8       __glewMultiTexCoord2sv     000000014009e8a8     GLEW_1130_DEBUG:glew.obj
 0003:000198b0       __glewDeleteTransformFeedbacksNV 000000014009e8b0     GLEW_1130_DEBUG:glew.obj
 0003:000198b8       __wglewSetPbufferAttribARB 000000014009e8b8     GLEW_1130_DEBUG:glew.obj
 0003:000198c0       __glewDrawTransformFeedbackNV 000000014009e8c0     GLEW_1130_DEBUG:glew.obj
 0003:000198c8       __glewVertexAttribPointerARB 000000014009e8c8     GLEW_1130_DEBUG:glew.obj
 0003:000198d0       __glewMultiTexCoord3d      000000014009e8d0     GLEW_1130_DEBUG:glew.obj
 0003:000198d8       __wglewBindDisplayColorTableEXT 000000014009e8d8     GLEW_1130_DEBUG:glew.obj
 0003:000198e0       __glewMultiTexCoord3dv     000000014009e8e0     GLEW_1130_DEBUG:glew.obj
 0003:000198e8       __glewBindAttribLocationARB 000000014009e8e8     GLEW_1130_DEBUG:glew.obj
 0003:000198f0       __glewGenTransformFeedbacksNV 000000014009e8f0     GLEW_1130_DEBUG:glew.obj
 0003:000198f8       __glewMultiTexCoord3f      000000014009e8f8     GLEW_1130_DEBUG:glew.obj
 0003:00019900       __glewIsTransformFeedbackNV 000000014009e900     GLEW_1130_DEBUG:glew.obj
 0003:00019908       __wglewCreateDisplayColorTableEXT 000000014009e908     GLEW_1130_DEBUG:glew.obj
 0003:00019910       __glewGetActiveAttribARB   000000014009e910     GLEW_1130_DEBUG:glew.obj
 0003:00019918       __glewGetAttribLocationARB 000000014009e918     GLEW_1130_DEBUG:glew.obj
 0003:00019920       __wglewDestroyDisplayColorTableEXT 000000014009e920     GLEW_1130_DEBUG:glew.obj
 0003:00019928       __glewMultiTexCoord3fv     000000014009e928     GLEW_1130_DEBUG:glew.obj
 0003:00019930       __glewPauseTransformFeedbackNV 000000014009e930     GLEW_1130_DEBUG:glew.obj
 0003:00019938       __glewColorP3ui            000000014009e938     GLEW_1130_DEBUG:glew.obj
 0003:00019940       __glewMultiTexCoord3i      000000014009e940     GLEW_1130_DEBUG:glew.obj
 0003:00019948       __glewResumeTransformFeedbackNV 000000014009e948     GLEW_1130_DEBUG:glew.obj
 0003:00019950       __wglewLoadDisplayColorTableEXT 000000014009e950     GLEW_1130_DEBUG:glew.obj
 0003:00019958       __wglewGetExtensionsStringEXT 000000014009e958     GLEW_1130_DEBUG:glew.obj
 0003:00019960       __glewVDPAUFiniNV          000000014009e960     GLEW_1130_DEBUG:glew.obj
 0003:00019968       __glewMultiTexCoord3iv     000000014009e968     GLEW_1130_DEBUG:glew.obj
 0003:00019970       __glewColorP3uiv           000000014009e970     GLEW_1130_DEBUG:glew.obj
 0003:00019978       __glewVDPAUGetSurfaceivNV  000000014009e978     GLEW_1130_DEBUG:glew.obj
 0003:00019980       __wglewGetCurrentReadDCEXT 000000014009e980     GLEW_1130_DEBUG:glew.obj
 0003:00019988       __glewMultiTexCoord3s      000000014009e988     GLEW_1130_DEBUG:glew.obj
 0003:00019990       __glewColorP4ui            000000014009e990     GLEW_1130_DEBUG:glew.obj
 0003:00019998       __glewVDPAUInitNV          000000014009e998     GLEW_1130_DEBUG:glew.obj
 0003:000199a0       __wglewMakeContextCurrentEXT 000000014009e9a0     GLEW_1130_DEBUG:glew.obj
 0003:000199a8       __glewMultiTexCoord3sv     000000014009e9a8     GLEW_1130_DEBUG:glew.obj
 0003:000199b0       __glewColorP4uiv           000000014009e9b0     GLEW_1130_DEBUG:glew.obj
 0003:000199b8       __glewVDPAUIsSurfaceNV     000000014009e9b8     GLEW_1130_DEBUG:glew.obj
 0003:000199c0       __glewMultiTexCoordP1ui    000000014009e9c0     GLEW_1130_DEBUG:glew.obj
 0003:000199c8       __glewMultiTexCoord4d      000000014009e9c8     GLEW_1130_DEBUG:glew.obj
 0003:000199d0       __wglewCreatePbufferEXT    000000014009e9d0     GLEW_1130_DEBUG:glew.obj
 0003:000199d8       __glewVDPAUMapSurfacesNV   000000014009e9d8     GLEW_1130_DEBUG:glew.obj
 0003:000199e0       __glewMultiTexCoordP1uiv   000000014009e9e0     GLEW_1130_DEBUG:glew.obj
 0003:000199e8       __wglewDestroyPbufferEXT   000000014009e9e8     GLEW_1130_DEBUG:glew.obj
 0003:000199f0       __glewMultiTexCoord4dv     000000014009e9f0     GLEW_1130_DEBUG:glew.obj
 0003:000199f8       __glewVDPAURegisterOutputSurfaceNV 000000014009e9f8     GLEW_1130_DEBUG:glew.obj
 0003:00019a00       __glewMultiTexCoordP2ui    000000014009ea00     GLEW_1130_DEBUG:glew.obj
 0003:00019a08       __wglewGetPbufferDCEXT     000000014009ea08     GLEW_1130_DEBUG:glew.obj
 0003:00019a10       __glewMultiTexCoord4f      000000014009ea10     GLEW_1130_DEBUG:glew.obj
 0003:00019a18       __glewMultiTexCoordP2uiv   000000014009ea18     GLEW_1130_DEBUG:glew.obj
 0003:00019a20       __glewVDPAURegisterVideoSurfaceNV 000000014009ea20     GLEW_1130_DEBUG:glew.obj
 0003:00019a28       __glewMultiTexCoord4fv     000000014009ea28     GLEW_1130_DEBUG:glew.obj
 0003:00019a30       __wglewQueryPbufferEXT     000000014009ea30     GLEW_1130_DEBUG:glew.obj
 0003:00019a38       __glewMultiTexCoord4i      000000014009ea38     GLEW_1130_DEBUG:glew.obj
 0003:00019a40       __glewVDPAUSurfaceAccessNV 000000014009ea40     GLEW_1130_DEBUG:glew.obj
 0003:00019a48       __glewMultiTexCoordP3ui    000000014009ea48     GLEW_1130_DEBUG:glew.obj
 0003:00019a50       __wglewReleasePbufferDCEXT 000000014009ea50     GLEW_1130_DEBUG:glew.obj
 0003:00019a58       __glewMultiTexCoord4iv     000000014009ea58     GLEW_1130_DEBUG:glew.obj
 0003:00019a60       __glewMultiTexCoordP3uiv   000000014009ea60     GLEW_1130_DEBUG:glew.obj
 0003:00019a68       __wglewChoosePixelFormatEXT 000000014009ea68     GLEW_1130_DEBUG:glew.obj
 0003:00019a70       __glewVDPAUUnmapSurfacesNV 000000014009ea70     GLEW_1130_DEBUG:glew.obj
 0003:00019a78       __glewMultiTexCoordP4ui    000000014009ea78     GLEW_1130_DEBUG:glew.obj
 0003:00019a80       __glewMultiTexCoord4s      000000014009ea80     GLEW_1130_DEBUG:glew.obj
 0003:00019a88       __glewVDPAUUnregisterSurfaceNV 000000014009ea88     GLEW_1130_DEBUG:glew.obj
 0003:00019a90       __wglewGetPixelFormatAttribfvEXT 000000014009ea90     GLEW_1130_DEBUG:glew.obj
 0003:00019a98       __glewFlushVertexArrayRangeNV 000000014009ea98     GLEW_1130_DEBUG:glew.obj
 0003:00019aa0       __wglewGetPixelFormatAttribivEXT 000000014009eaa0     GLEW_1130_DEBUG:glew.obj
 0003:00019aa8       __glewMultiTexCoord4sv     000000014009eaa8     GLEW_1130_DEBUG:glew.obj
 0003:00019ab0       __glewMultiTexCoordP4uiv   000000014009eab0     GLEW_1130_DEBUG:glew.obj
 0003:00019ab8       __wglewGetSwapIntervalEXT  000000014009eab8     GLEW_1130_DEBUG:glew.obj
 0003:00019ac0       __glewSampleCoverage       000000014009eac0     GLEW_1130_DEBUG:glew.obj
 0003:00019ac8       __glewNormalP3ui           000000014009eac8     GLEW_1130_DEBUG:glew.obj
 0003:00019ad0       __glewVertexArrayRangeNV   000000014009ead0     GLEW_1130_DEBUG:glew.obj
 0003:00019ad8       __wglewSwapIntervalEXT     000000014009ead8     GLEW_1130_DEBUG:glew.obj
 0003:00019ae0       __glewNormalP3uiv          000000014009eae0     GLEW_1130_DEBUG:glew.obj
 0003:00019ae8       __glewGetVertexAttribLi64vNV 000000014009eae8     GLEW_1130_DEBUG:glew.obj
 0003:00019af0       __glewBlendColor           000000014009eaf0     GLEW_1130_DEBUG:glew.obj
 0003:00019af8       __glewSecondaryColorP3ui   000000014009eaf8     GLEW_1130_DEBUG:glew.obj
 0003:00019b00       __glewBlendEquation        000000014009eb00     GLEW_1130_DEBUG:glew.obj
 0003:00019b08       __glewGetVertexAttribLui64vNV 000000014009eb08     GLEW_1130_DEBUG:glew.obj
 0003:00019b10       __wglewGetDigitalVideoParametersI3D 000000014009eb10     GLEW_1130_DEBUG:glew.obj
 0003:00019b18       __wglewSetDigitalVideoParametersI3D 000000014009eb18     GLEW_1130_DEBUG:glew.obj
 0003:00019b20       __glewVertexAttribL1i64NV  000000014009eb20     GLEW_1130_DEBUG:glew.obj
 0003:00019b28       __glewBlendFuncSeparate    000000014009eb28     GLEW_1130_DEBUG:glew.obj
 0003:00019b30       __glewSecondaryColorP3uiv  000000014009eb30     GLEW_1130_DEBUG:glew.obj
 0003:00019b38       __glewFogCoordPointer      000000014009eb38     GLEW_1130_DEBUG:glew.obj
 0003:00019b40       __glewTexCoordP1ui         000000014009eb40     GLEW_1130_DEBUG:glew.obj
 0003:00019b48       __glewVertexAttribL1i64vNV 000000014009eb48     GLEW_1130_DEBUG:glew.obj
 0003:00019b50       __wglewGetGammaTableI3D    000000014009eb50     GLEW_1130_DEBUG:glew.obj
 0003:00019b58       __wglewGetGammaTableParametersI3D 000000014009eb58     GLEW_1130_DEBUG:glew.obj
 0003:00019b60       __glewFogCoordd            000000014009eb60     GLEW_1130_DEBUG:glew.obj
 0003:00019b68       __glewVertexAttribL1ui64NV 000000014009eb68     GLEW_1130_DEBUG:glew.obj
 0003:00019b70       __glewTexCoordP1uiv        000000014009eb70     GLEW_1130_DEBUG:glew.obj
 0003:00019b78       __glewFogCoorddv           000000014009eb78     GLEW_1130_DEBUG:glew.obj
 0003:00019b80       __glewTexCoordP2ui         000000014009eb80     GLEW_1130_DEBUG:glew.obj
 0003:00019b88       __glewVertexAttribL1ui64vNV 000000014009eb88     GLEW_1130_DEBUG:glew.obj
 0003:00019b90       __wglewSetGammaTableI3D    000000014009eb90     GLEW_1130_DEBUG:glew.obj
 0003:00019b98       __glewFogCoordf            000000014009eb98     GLEW_1130_DEBUG:glew.obj
 0003:00019ba0       __glewTexCoordP2uiv        000000014009eba0     GLEW_1130_DEBUG:glew.obj
 0003:00019ba8       __wglewSetGammaTableParametersI3D 000000014009eba8     GLEW_1130_DEBUG:glew.obj
 0003:00019bb0       __glewVertexAttribL2i64NV  000000014009ebb0     GLEW_1130_DEBUG:glew.obj
 0003:00019bb8       __glewFogCoordfv           000000014009ebb8     GLEW_1130_DEBUG:glew.obj
 0003:00019bc0       __glewTexCoordP3ui         000000014009ebc0     GLEW_1130_DEBUG:glew.obj
 0003:00019bc8       __glewVertexAttribL2i64vNV 000000014009ebc8     GLEW_1130_DEBUG:glew.obj
 0003:00019bd0       __wglewDisableGenlockI3D   000000014009ebd0     GLEW_1130_DEBUG:glew.obj
 0003:00019bd8       __glewVertexAttribL2ui64NV 000000014009ebd8     GLEW_1130_DEBUG:glew.obj
 0003:00019be0       __glewTexCoordP3uiv        000000014009ebe0     GLEW_1130_DEBUG:glew.obj
 0003:00019be8       __wglewEnableGenlockI3D    000000014009ebe8     GLEW_1130_DEBUG:glew.obj
 0003:00019bf0       __glewMultiDrawArrays      000000014009ebf0     GLEW_1130_DEBUG:glew.obj
 0003:00019bf8       __glewMultiDrawElements    000000014009ebf8     GLEW_1130_DEBUG:glew.obj
 0003:00019c00       __glewVertexAttribL2ui64vNV 000000014009ec00     GLEW_1130_DEBUG:glew.obj
 0003:00019c08       __wglewGenlockSampleRateI3D 000000014009ec08     GLEW_1130_DEBUG:glew.obj
 0003:00019c10       __glewTexCoordP4ui         000000014009ec10     GLEW_1130_DEBUG:glew.obj
 0003:00019c18       __glewTexCoordP4uiv        000000014009ec18     GLEW_1130_DEBUG:glew.obj
 0003:00019c20       __glewPointParameterf      000000014009ec20     GLEW_1130_DEBUG:glew.obj
 0003:00019c28       __wglewGenlockSourceDelayI3D 000000014009ec28     GLEW_1130_DEBUG:glew.obj
 0003:00019c30       __glewVertexAttribL3i64NV  000000014009ec30     GLEW_1130_DEBUG:glew.obj
 0003:00019c38       __wglewGenlockSourceEdgeI3D 000000014009ec38     GLEW_1130_DEBUG:glew.obj
 0003:00019c40       __glewPointParameterfv     000000014009ec40     GLEW_1130_DEBUG:glew.obj
 0003:00019c48       __glewVertexAttribP1ui     000000014009ec48     GLEW_1130_DEBUG:glew.obj
 0003:00019c50       __glewVertexAttribL3i64vNV 000000014009ec50     GLEW_1130_DEBUG:glew.obj
 0003:00019c58       __glewVertexAttribP1uiv    000000014009ec58     GLEW_1130_DEBUG:glew.obj
 0003:00019c60       __glewVertexAttribL3ui64NV 000000014009ec60     GLEW_1130_DEBUG:glew.obj
 0003:00019c68       __wglewGenlockSourceI3D    000000014009ec68     GLEW_1130_DEBUG:glew.obj
 0003:00019c70       __glewPointParameteri      000000014009ec70     GLEW_1130_DEBUG:glew.obj
 0003:00019c78       __glewVertexAttribP2ui     000000014009ec78     GLEW_1130_DEBUG:glew.obj
 0003:00019c80       __glewVertexAttribL3ui64vNV 000000014009ec80     GLEW_1130_DEBUG:glew.obj
 0003:00019c88       __glewPointParameteriv     000000014009ec88     GLEW_1130_DEBUG:glew.obj
 0003:00019c90       __wglewGetGenlockSampleRateI3D 000000014009ec90     GLEW_1130_DEBUG:glew.obj
 0003:00019c98       __glewVertexAttribP2uiv    000000014009ec98     GLEW_1130_DEBUG:glew.obj
 0003:00019ca0       __glewSecondaryColor3b     000000014009eca0     GLEW_1130_DEBUG:glew.obj
 0003:00019ca8       __wglewGetGenlockSourceDelayI3D 000000014009eca8     GLEW_1130_DEBUG:glew.obj
 0003:00019cb0       __glewVertexAttribL4i64NV  000000014009ecb0     GLEW_1130_DEBUG:glew.obj
 0003:00019cb8       __glewVertexAttribP3ui     000000014009ecb8     GLEW_1130_DEBUG:glew.obj
 0003:00019cc0       __glewVertexAttribL4i64vNV 000000014009ecc0     GLEW_1130_DEBUG:glew.obj
 0003:00019cc8       __glewSecondaryColor3bv    000000014009ecc8     GLEW_1130_DEBUG:glew.obj
 0003:00019cd0       __wglewGetGenlockSourceEdgeI3D 000000014009ecd0     GLEW_1130_DEBUG:glew.obj
 0003:00019cd8       __glewVertexAttribP3uiv    000000014009ecd8     GLEW_1130_DEBUG:glew.obj
 0003:00019ce0       __wglewGetGenlockSourceI3D 000000014009ece0     GLEW_1130_DEBUG:glew.obj
 0003:00019ce8       __glewVertexAttribL4ui64NV 000000014009ece8     GLEW_1130_DEBUG:glew.obj
 0003:00019cf0       __glewSecondaryColor3d     000000014009ecf0     GLEW_1130_DEBUG:glew.obj
 0003:00019cf8       __glewVertexAttribL4ui64vNV 000000014009ecf8     GLEW_1130_DEBUG:glew.obj
 0003:00019d00       __wglewIsEnabledGenlockI3D 000000014009ed00     GLEW_1130_DEBUG:glew.obj
 0003:00019d08       __glewVertexAttribP4ui     000000014009ed08     GLEW_1130_DEBUG:glew.obj
 0003:00019d10       __glewSecondaryColor3dv    000000014009ed10     GLEW_1130_DEBUG:glew.obj
 0003:00019d18       __glewSecondaryColor3f     000000014009ed18     GLEW_1130_DEBUG:glew.obj
 0003:00019d20       __glewVertexAttribP4uiv    000000014009ed20     GLEW_1130_DEBUG:glew.obj
 0003:00019d28       __wglewQueryGenlockMaxSourceDelayI3D 000000014009ed28     GLEW_1130_DEBUG:glew.obj
 0003:00019d30       __glewVertexAttribLFormatNV 000000014009ed30     GLEW_1130_DEBUG:glew.obj
 0003:00019d38       __wglewAssociateImageBufferEventsI3D 000000014009ed38     GLEW_1130_DEBUG:glew.obj
 0003:00019d40       __glewBufferAddressRangeNV 000000014009ed40     GLEW_1130_DEBUG:glew.obj
 0003:00019d48       __glewVertexP2ui           000000014009ed48     GLEW_1130_DEBUG:glew.obj
 0003:00019d50       __glewSecondaryColor3fv    000000014009ed50     GLEW_1130_DEBUG:glew.obj
 0003:00019d58       __glewSecondaryColor3i     000000014009ed58     GLEW_1130_DEBUG:glew.obj
 0003:00019d60       __glewColorFormatNV        000000014009ed60     GLEW_1130_DEBUG:glew.obj
 0003:00019d68       __wglewCreateImageBufferI3D 000000014009ed68     GLEW_1130_DEBUG:glew.obj
 0003:00019d70       __glewVertexP2uiv          000000014009ed70     GLEW_1130_DEBUG:glew.obj
 0003:00019d78       __glewVertexP3ui           000000014009ed78     GLEW_1130_DEBUG:glew.obj
 0003:00019d80       __glewEdgeFlagFormatNV     000000014009ed80     GLEW_1130_DEBUG:glew.obj
 0003:00019d88       __wglewDestroyImageBufferI3D 000000014009ed88     GLEW_1130_DEBUG:glew.obj
 0003:00019d90       __glewSecondaryColor3iv    000000014009ed90     GLEW_1130_DEBUG:glew.obj
 0003:00019d98       __glewVertexP3uiv          000000014009ed98     GLEW_1130_DEBUG:glew.obj
 0003:00019da0       __glewFogCoordFormatNV     000000014009eda0     GLEW_1130_DEBUG:glew.obj
 0003:00019da8       __glewSecondaryColor3s     000000014009eda8     GLEW_1130_DEBUG:glew.obj
 0003:00019db0       __wglewReleaseImageBufferEventsI3D 000000014009edb0     GLEW_1130_DEBUG:glew.obj
 0003:00019db8       __wglewDisableFrameLockI3D 000000014009edb8     GLEW_1130_DEBUG:glew.obj
 0003:00019dc0       __glewSecondaryColor3sv    000000014009edc0     GLEW_1130_DEBUG:glew.obj
 0003:00019dc8       __glewGetIntegerui64i_vNV  000000014009edc8     GLEW_1130_DEBUG:glew.obj
 0003:00019dd0       __glewVertexP4ui           000000014009edd0     GLEW_1130_DEBUG:glew.obj
 0003:00019dd8       __glewSecondaryColor3ub    000000014009edd8     GLEW_1130_DEBUG:glew.obj
 0003:00019de0       __wglewEnableFrameLockI3D  000000014009ede0     GLEW_1130_DEBUG:glew.obj
 0003:00019de8       __glewIndexFormatNV        000000014009ede8     GLEW_1130_DEBUG:glew.obj
 0003:00019df0       __glewVertexP4uiv          000000014009edf0     GLEW_1130_DEBUG:glew.obj
 0003:00019df8       __glewDepthRangeArrayv     000000014009edf8     GLEW_1130_DEBUG:glew.obj
 0003:00019e00       __glewNormalFormatNV       000000014009ee00     GLEW_1130_DEBUG:glew.obj
 0003:00019e08       __glewSecondaryColor3ubv   000000014009ee08     GLEW_1130_DEBUG:glew.obj
 0003:00019e10       __wglewIsEnabledFrameLockI3D 000000014009ee10     GLEW_1130_DEBUG:glew.obj
 0003:00019e18       __glewSecondaryColor3ui    000000014009ee18     GLEW_1130_DEBUG:glew.obj
 0003:00019e20       __glewSecondaryColorFormatNV 000000014009ee20     GLEW_1130_DEBUG:glew.obj
 0003:00019e28       __wglewQueryFrameLockMasterI3D 000000014009ee28     GLEW_1130_DEBUG:glew.obj
 0003:00019e30       __glewDepthRangeIndexed    000000014009ee30     GLEW_1130_DEBUG:glew.obj
 0003:00019e38       __glewGetDoublei_v         000000014009ee38     GLEW_1130_DEBUG:glew.obj
 0003:00019e40       __wglewBeginFrameTrackingI3D 000000014009ee40     GLEW_1130_DEBUG:glew.obj
 0003:00019e48       __glewTexCoordFormatNV     000000014009ee48     GLEW_1130_DEBUG:glew.obj
 0003:00019e50       __glewSecondaryColor3uiv   000000014009ee50     GLEW_1130_DEBUG:glew.obj
 0003:00019e58       __glewVertexAttribFormatNV 000000014009ee58     GLEW_1130_DEBUG:glew.obj
 0003:00019e60       __wglewEndFrameTrackingI3D 000000014009ee60     GLEW_1130_DEBUG:glew.obj
 0003:00019e68       __glewGetFloati_v          000000014009ee68     GLEW_1130_DEBUG:glew.obj
 0003:00019e70       __glewSecondaryColor3us    000000014009ee70     GLEW_1130_DEBUG:glew.obj
 0003:00019e78       __wglewGetFrameUsageI3D    000000014009ee78     GLEW_1130_DEBUG:glew.obj
 0003:00019e80       __glewScissorArrayv        000000014009ee80     GLEW_1130_DEBUG:glew.obj
 0003:00019e88       __glewSecondaryColor3usv   000000014009ee88     GLEW_1130_DEBUG:glew.obj
 0003:00019e90       __glewVertexAttribIFormatNV 000000014009ee90     GLEW_1130_DEBUG:glew.obj
 0003:00019e98       __glewSecondaryColorPointer 000000014009ee98     GLEW_1130_DEBUG:glew.obj
 0003:00019ea0       __glewScissorIndexed       000000014009eea0     GLEW_1130_DEBUG:glew.obj
 0003:00019ea8       __wglewQueryFrameTrackingI3D 000000014009eea8     GLEW_1130_DEBUG:glew.obj
 0003:00019eb0       __glewVertexFormatNV       000000014009eeb0     GLEW_1130_DEBUG:glew.obj
 0003:00019eb8       __wglewDXCloseDeviceNV     000000014009eeb8     GLEW_1130_DEBUG:glew.obj
 0003:00019ec0       __glewScissorIndexedv      000000014009eec0     GLEW_1130_DEBUG:glew.obj
 0003:00019ec8       __glewAreProgramsResidentNV 000000014009eec8     GLEW_1130_DEBUG:glew.obj
 0003:00019ed0       __glewWindowPos2d          000000014009eed0     GLEW_1130_DEBUG:glew.obj
 0003:00019ed8       __glewWindowPos2dv         000000014009eed8     GLEW_1130_DEBUG:glew.obj
 0003:00019ee0       __glewBindProgramNV        000000014009eee0     GLEW_1130_DEBUG:glew.obj
 0003:00019ee8       __wglewDXLockObjectsNV     000000014009eee8     GLEW_1130_DEBUG:glew.obj
 0003:00019ef0       __glewViewportArrayv       000000014009eef0     GLEW_1130_DEBUG:glew.obj
 0003:00019ef8       __glewDeleteProgramsNV     000000014009eef8     GLEW_1130_DEBUG:glew.obj
 0003:00019f00       __glewWindowPos2f          000000014009ef00     GLEW_1130_DEBUG:glew.obj
 0003:00019f08       __glewViewportIndexedf     000000014009ef08     GLEW_1130_DEBUG:glew.obj
 0003:00019f10       __wglewDXObjectAccessNV    000000014009ef10     GLEW_1130_DEBUG:glew.obj
 0003:00019f18       __glewViewportIndexedfv    000000014009ef18     GLEW_1130_DEBUG:glew.obj
 0003:00019f20       __glewExecuteProgramNV     000000014009ef20     GLEW_1130_DEBUG:glew.obj
 0003:00019f28       __wglewDXOpenDeviceNV      000000014009ef28     GLEW_1130_DEBUG:glew.obj
 0003:00019f30       __glewWindowPos2fv         000000014009ef30     GLEW_1130_DEBUG:glew.obj
 0003:00019f38       __wglewDXRegisterObjectNV  000000014009ef38     GLEW_1130_DEBUG:glew.obj
 0003:00019f40       __glewWindowPos2dARB       000000014009ef40     GLEW_1130_DEBUG:glew.obj
 0003:00019f48       __glewWindowPos2i          000000014009ef48     GLEW_1130_DEBUG:glew.obj
 0003:00019f50       __glewGenProgramsNV        000000014009ef50     GLEW_1130_DEBUG:glew.obj
 0003:00019f58       __glewWindowPos2iv         000000014009ef58     GLEW_1130_DEBUG:glew.obj
 0003:00019f60       __glewGetProgramParameterdvNV 000000014009ef60     GLEW_1130_DEBUG:glew.obj
 0003:00019f68       __wglewDXSetResourceShareHandleNV 000000014009ef68     GLEW_1130_DEBUG:glew.obj
 0003:00019f70       __glewWindowPos2dvARB      000000014009ef70     GLEW_1130_DEBUG:glew.obj
 0003:00019f78       __glewWindowPos2fARB       000000014009ef78     GLEW_1130_DEBUG:glew.obj
 0003:00019f80       __wglewDXUnlockObjectsNV   000000014009ef80     GLEW_1130_DEBUG:glew.obj
 0003:00019f88       __glewGetProgramParameterfvNV 000000014009ef88     GLEW_1130_DEBUG:glew.obj
 0003:00019f90       __glewWindowPos2s          000000014009ef90     GLEW_1130_DEBUG:glew.obj
 0003:00019f98       __glewWindowPos2sv         000000014009ef98     GLEW_1130_DEBUG:glew.obj
 0003:00019fa0       __glewWindowPos2fvARB      000000014009efa0     GLEW_1130_DEBUG:glew.obj
 0003:00019fa8       __wglewDXUnregisterObjectNV 000000014009efa8     GLEW_1130_DEBUG:glew.obj
 0003:00019fb0       __glewGetProgramStringNV   000000014009efb0     GLEW_1130_DEBUG:glew.obj
 0003:00019fb8       __glewWindowPos2iARB       000000014009efb8     GLEW_1130_DEBUG:glew.obj
 0003:00019fc0       __wglewCopyImageSubDataNV  000000014009efc0     GLEW_1130_DEBUG:glew.obj
 0003:00019fc8       __glewGetProgramivNV       000000014009efc8     GLEW_1130_DEBUG:glew.obj
 0003:00019fd0       __glewWindowPos3d          000000014009efd0     GLEW_1130_DEBUG:glew.obj
 0003:00019fd8       __glewGetTrackMatrixivNV   000000014009efd8     GLEW_1130_DEBUG:glew.obj
 0003:00019fe0       __glewWindowPos2ivARB      000000014009efe0     GLEW_1130_DEBUG:glew.obj
 0003:00019fe8       __glewWindowPos3dv         000000014009efe8     GLEW_1130_DEBUG:glew.obj
 0003:00019ff0       __wglewDelayBeforeSwapNV   000000014009eff0     GLEW_1130_DEBUG:glew.obj
 0003:00019ff8       __glewWindowPos2sARB       000000014009eff8     GLEW_1130_DEBUG:glew.obj
 0003:0001a000       __wglewCreateAffinityDCNV  000000014009f000     GLEW_1130_DEBUG:glew.obj
 0003:0001a008       __glewWindowPos3f          000000014009f008     GLEW_1130_DEBUG:glew.obj
 0003:0001a010       __glewGetVertexAttribPointervNV 000000014009f010     GLEW_1130_DEBUG:glew.obj
 0003:0001a018       __glewWindowPos3fv         000000014009f018     GLEW_1130_DEBUG:glew.obj
 0003:0001a020       __glewGetVertexAttribdvNV  000000014009f020     GLEW_1130_DEBUG:glew.obj
 0003:0001a028       __glewWindowPos2svARB      000000014009f028     GLEW_1130_DEBUG:glew.obj
 0003:0001a030       __wglewDeleteDCNV          000000014009f030     GLEW_1130_DEBUG:glew.obj
 0003:0001a038       __glewGetVertexAttribfvNV  000000014009f038     GLEW_1130_DEBUG:glew.obj
 0003:0001a040       __wglewEnumGpuDevicesNV    000000014009f040     GLEW_1130_DEBUG:glew.obj
 0003:0001a048       __glewWindowPos3i          000000014009f048     GLEW_1130_DEBUG:glew.obj
 0003:0001a050       __glewWindowPos3dARB       000000014009f050     GLEW_1130_DEBUG:glew.obj
 0003:0001a058       __wglewEnumGpusFromAffinityDCNV 000000014009f058     GLEW_1130_DEBUG:glew.obj
 0003:0001a060       __glewWindowPos3iv         000000014009f060     GLEW_1130_DEBUG:glew.obj
 0003:0001a068       __glewWindowPos3dvARB      000000014009f068     GLEW_1130_DEBUG:glew.obj
 0003:0001a070       __glewGetVertexAttribivNV  000000014009f070     GLEW_1130_DEBUG:glew.obj
 0003:0001a078       __glewIsProgramNV          000000014009f078     GLEW_1130_DEBUG:glew.obj
 0003:0001a080       __wglewEnumGpusNV          000000014009f080     GLEW_1130_DEBUG:glew.obj
 0003:0001a088       __glewWindowPos3fARB       000000014009f088     GLEW_1130_DEBUG:glew.obj
 0003:0001a090       __glewWindowPos3s          000000014009f090     GLEW_1130_DEBUG:glew.obj
 0003:0001a098       __glewWindowPos3fvARB      000000014009f098     GLEW_1130_DEBUG:glew.obj
 0003:0001a0a0       __wglewBindVideoDeviceNV   000000014009f0a0     GLEW_1130_DEBUG:glew.obj
 0003:0001a0a8       __glewWindowPos3sv         000000014009f0a8     GLEW_1130_DEBUG:glew.obj
 0003:0001a0b0       __glewLoadProgramNV        000000014009f0b0     GLEW_1130_DEBUG:glew.obj
 0003:0001a0b8       __glewBeginQuery           000000014009f0b8     GLEW_1130_DEBUG:glew.obj
 0003:0001a0c0       __glewProgramParameter4dNV 000000014009f0c0     GLEW_1130_DEBUG:glew.obj
 0003:0001a0c8       __glewWindowPos3iARB       000000014009f0c8     GLEW_1130_DEBUG:glew.obj
 0003:0001a0d0       __wglewEnumerateVideoDevicesNV 000000014009f0d0     GLEW_1130_DEBUG:glew.obj
 0003:0001a0d8       __glewBindBuffer           000000014009f0d8     GLEW_1130_DEBUG:glew.obj
 0003:0001a0e0       __wglewQueryCurrentContextNV 000000014009f0e0     GLEW_1130_DEBUG:glew.obj
 0003:0001a0e8       __glewWindowPos3ivARB      000000014009f0e8     GLEW_1130_DEBUG:glew.obj
 0003:0001a0f0       __glewProgramParameter4dvNV 000000014009f0f0     GLEW_1130_DEBUG:glew.obj
 0003:0001a0f8       __glewProgramParameter4fNV 000000014009f0f8     GLEW_1130_DEBUG:glew.obj
 0003:0001a100       __glewBufferData           000000014009f100     GLEW_1130_DEBUG:glew.obj
 0003:0001a108       __glewWindowPos3sARB       000000014009f108     GLEW_1130_DEBUG:glew.obj
 0003:0001a110       __wglewBindSwapBarrierNV   000000014009f110     GLEW_1130_DEBUG:glew.obj
 0003:0001a118       __wglewJoinSwapGroupNV     000000014009f118     GLEW_1130_DEBUG:glew.obj
 0003:0001a120       __glewBufferSubData        000000014009f120     GLEW_1130_DEBUG:glew.obj
 0003:0001a128       __glewProgramParameter4fvNV 000000014009f128     GLEW_1130_DEBUG:glew.obj
 0003:0001a130       __glewWindowPos3svARB      000000014009f130     GLEW_1130_DEBUG:glew.obj
 0003:0001a138       __wglewQueryFrameCountNV   000000014009f138     GLEW_1130_DEBUG:glew.obj
 0003:0001a140       __glewDrawBuffersATI       000000014009f140     GLEW_1130_DEBUG:glew.obj
 0003:0001a148       __glewDeleteBuffers        000000014009f148     GLEW_1130_DEBUG:glew.obj
 0003:0001a150       __glewProgramParameters4dvNV 000000014009f150     GLEW_1130_DEBUG:glew.obj
 0003:0001a158       __glewDrawElementArrayATI  000000014009f158     GLEW_1130_DEBUG:glew.obj
 0003:0001a160       __glewProgramParameters4fvNV 000000014009f160     GLEW_1130_DEBUG:glew.obj
 0003:0001a168       __wglewQueryMaxSwapGroupsNV 000000014009f168     GLEW_1130_DEBUG:glew.obj
 0003:0001a170       __glewDeleteQueries        000000014009f170     GLEW_1130_DEBUG:glew.obj
 0003:0001a178       __glewDrawRangeElementArrayATI 000000014009f178     GLEW_1130_DEBUG:glew.obj
 0003:0001a180       __glewRequestResidentProgramsNV 000000014009f180     GLEW_1130_DEBUG:glew.obj
 0003:0001a188       __glewEndQuery             000000014009f188     GLEW_1130_DEBUG:glew.obj
 0003:0001a190       __wglewQuerySwapGroupNV    000000014009f190     GLEW_1130_DEBUG:glew.obj
 0003:0001a198       __glewElementPointerATI    000000014009f198     GLEW_1130_DEBUG:glew.obj
 0003:0001a1a0       __wglewResetFrameCountNV   000000014009f1a0     GLEW_1130_DEBUG:glew.obj
 0003:0001a1a8       __glewTrackMatrixNV        000000014009f1a8     GLEW_1130_DEBUG:glew.obj
 0003:0001a1b0       __glewGenBuffers           000000014009f1b0     GLEW_1130_DEBUG:glew.obj
 0003:0001a1b8       __glewVertexAttrib1dNV     000000014009f1b8     GLEW_1130_DEBUG:glew.obj
 0003:0001a1c0       __glewGetTexBumpParameterfvATI 000000014009f1c0     GLEW_1130_DEBUG:glew.obj
 0003:0001a1c8       __wglewAllocateMemoryNV    000000014009f1c8     GLEW_1130_DEBUG:glew.obj
 0003:0001a1d0       __glewGenQueries           000000014009f1d0     GLEW_1130_DEBUG:glew.obj
 0003:0001a1d8       __glewGetTexBumpParameterivATI 000000014009f1d8     GLEW_1130_DEBUG:glew.obj
 0003:0001a1e0       __glewGetBufferParameteriv 000000014009f1e0     GLEW_1130_DEBUG:glew.obj
 0003:0001a1e8       __glewVertexAttrib1dvNV    000000014009f1e8     GLEW_1130_DEBUG:glew.obj
 0003:0001a1f0       __wglewFreeMemoryNV        000000014009f1f0     GLEW_1130_DEBUG:glew.obj
 0003:0001a1f8       __glewTexBumpParameterfvATI 000000014009f1f8     GLEW_1130_DEBUG:glew.obj
 0003:0001a200       __glewVertexAttrib1fNV     000000014009f200     GLEW_1130_DEBUG:glew.obj
 0003:0001a208       __wglewBindVideoCaptureDeviceNV 000000014009f208     GLEW_1130_DEBUG:glew.obj
 0003:0001a210       __glewGetBufferPointerv    000000014009f210     GLEW_1130_DEBUG:glew.obj
 0003:0001a218       __glewGetBufferSubData     000000014009f218     GLEW_1130_DEBUG:glew.obj
 0003:0001a220       __wglewEnumerateVideoCaptureDevicesNV 000000014009f220     GLEW_1130_DEBUG:glew.obj
 0003:0001a228       __glewTexBumpParameterivATI 000000014009f228     GLEW_1130_DEBUG:glew.obj
 0003:0001a230       __glewVertexAttrib1fvNV    000000014009f230     GLEW_1130_DEBUG:glew.obj
 0003:0001a238       __glewGetQueryObjectiv     000000014009f238     GLEW_1130_DEBUG:glew.obj
 0003:0001a240       __glewAlphaFragmentOp1ATI  000000014009f240     GLEW_1130_DEBUG:glew.obj
 0003:0001a248       __glewVertexAttrib1sNV     000000014009f248     GLEW_1130_DEBUG:glew.obj
 0003:0001a250       __wglewLockVideoCaptureDeviceNV 000000014009f250     GLEW_1130_DEBUG:glew.obj
 0003:0001a258       __glewVertexAttrib1svNV    000000014009f258     GLEW_1130_DEBUG:glew.obj
 0003:0001a260       __wglewQueryVideoCaptureDeviceNV 000000014009f260     GLEW_1130_DEBUG:glew.obj
 0003:0001a268       __glewAlphaFragmentOp2ATI  000000014009f268     GLEW_1130_DEBUG:glew.obj
 0003:0001a270       __glewGetQueryObjectuiv    000000014009f270     GLEW_1130_DEBUG:glew.obj
 0003:0001a278       __glewGetQueryiv           000000014009f278     GLEW_1130_DEBUG:glew.obj
 0003:0001a280       __glewAlphaFragmentOp3ATI  000000014009f280     GLEW_1130_DEBUG:glew.obj
 0003:0001a288       __wglewReleaseVideoCaptureDeviceNV 000000014009f288     GLEW_1130_DEBUG:glew.obj
 0003:0001a290       __glewVertexAttrib2dNV     000000014009f290     GLEW_1130_DEBUG:glew.obj
 0003:0001a298       __wglewBindVideoImageNV    000000014009f298     GLEW_1130_DEBUG:glew.obj
 0003:0001a2a0       __glewIsBuffer             000000014009f2a0     GLEW_1130_DEBUG:glew.obj
 0003:0001a2a8       __glewBeginFragmentShaderATI 000000014009f2a8     GLEW_1130_DEBUG:glew.obj
 0003:0001a2b0       __glewVertexAttrib2dvNV    000000014009f2b0     GLEW_1130_DEBUG:glew.obj
 0003:0001a2b8       __glewIsQuery              000000014009f2b8     GLEW_1130_DEBUG:glew.obj
 0003:0001a2c0       __wglewGetVideoDeviceNV    000000014009f2c0     GLEW_1130_DEBUG:glew.obj
 0003:0001a2c8       __glewBindFragmentShaderATI 000000014009f2c8     GLEW_1130_DEBUG:glew.obj
 0003:0001a2d0       __glewVertexAttrib2fNV     000000014009f2d0     GLEW_1130_DEBUG:glew.obj
 0003:0001a2d8       __glewColorFragmentOp1ATI  000000014009f2d8     GLEW_1130_DEBUG:glew.obj
 0003:0001a2e0       __glewMapBuffer            000000014009f2e0     GLEW_1130_DEBUG:glew.obj
 0003:0001a2e8       __glewVertexAttrib2fvNV    000000014009f2e8     GLEW_1130_DEBUG:glew.obj
 0003:0001a2f0       __wglewGetVideoInfoNV      000000014009f2f0     GLEW_1130_DEBUG:glew.obj
 0003:0001a2f8       __glewUnmapBuffer          000000014009f2f8     GLEW_1130_DEBUG:glew.obj
 0003:0001a300       __wglewReleaseVideoDeviceNV 000000014009f300     GLEW_1130_DEBUG:glew.obj
 0003:0001a308       __glewVertexAttrib2sNV     000000014009f308     GLEW_1130_DEBUG:glew.obj
 0003:0001a310       __glewColorFragmentOp2ATI  000000014009f310     GLEW_1130_DEBUG:glew.obj
 0003:0001a318       __glewVertexAttrib2svNV    000000014009f318     GLEW_1130_DEBUG:glew.obj
 0003:0001a320       __wglewReleaseVideoImageNV 000000014009f320     GLEW_1130_DEBUG:glew.obj
 0003:0001a328       __glewColorFragmentOp3ATI  000000014009f328     GLEW_1130_DEBUG:glew.obj
 0003:0001a330       __glewAttachShader         000000014009f330     GLEW_1130_DEBUG:glew.obj
 0003:0001a338       __wglewSendPbufferToVideoNV 000000014009f338     GLEW_1130_DEBUG:glew.obj
 0003:0001a340       __glewBindAttribLocation   000000014009f340     GLEW_1130_DEBUG:glew.obj
 0003:0001a348       __glewVertexAttrib3dNV     000000014009f348     GLEW_1130_DEBUG:glew.obj
 0003:0001a350       __glewDeleteFragmentShaderATI 000000014009f350     GLEW_1130_DEBUG:glew.obj
 0003:0001a358       __glewEndFragmentShaderATI 000000014009f358     GLEW_1130_DEBUG:glew.obj
 0003:0001a360       __wglewGetMscRateOML       000000014009f360     GLEW_1130_DEBUG:glew.obj
 0003:0001a368       __glewBlendEquationSeparate 000000014009f368     GLEW_1130_DEBUG:glew.obj
 0003:0001a370       __glewVertexAttrib3dvNV    000000014009f370     GLEW_1130_DEBUG:glew.obj
 0003:0001a378       __glewCompileShader        000000014009f378     GLEW_1130_DEBUG:glew.obj
 0003:0001a380       __glewGenFragmentShadersATI 000000014009f380     GLEW_1130_DEBUG:glew.obj
 0003:0001a388       __wglewGetSyncValuesOML    000000014009f388     GLEW_1130_DEBUG:glew.obj
 0003:0001a390       __glewVertexAttrib3fNV     000000014009f390     GLEW_1130_DEBUG:glew.obj
 0003:0001a398       __glewPassTexCoordATI      000000014009f398     GLEW_1130_DEBUG:glew.obj
 0003:0001a3a0       __glewCreateProgram        000000014009f3a0     GLEW_1130_DEBUG:glew.obj
 0003:0001a3a8       __wglewSwapBuffersMscOML   000000014009f3a8     GLEW_1130_DEBUG:glew.obj
 0003:0001a3b0       __glewVertexAttrib3fvNV    000000014009f3b0     GLEW_1130_DEBUG:glew.obj
 0003:0001a3b8       __glewCreateShader         000000014009f3b8     GLEW_1130_DEBUG:glew.obj
 0003:0001a3c0       __glewSampleMapATI         000000014009f3c0     GLEW_1130_DEBUG:glew.obj
 0003:0001a3c8       __glewVertexAttrib3sNV     000000014009f3c8     GLEW_1130_DEBUG:glew.obj
 0003:0001a3d0       __wglewSwapLayerBuffersMscOML 000000014009f3d0     GLEW_1130_DEBUG:glew.obj
 0003:0001a3d8       __glewDeleteProgram        000000014009f3d8     GLEW_1130_DEBUG:glew.obj
 0003:0001a3e0       __glewSetFragmentShaderConstantATI 000000014009f3e0     GLEW_1130_DEBUG:glew.obj
 0003:0001a3e8       __wglewWaitForMscOML       000000014009f3e8     GLEW_1130_DEBUG:glew.obj
 0003:0001a3f0       __glewVertexAttrib3svNV    000000014009f3f0     GLEW_1130_DEBUG:glew.obj
 0003:0001a3f8       __glewMapObjectBufferATI   000000014009f3f8     GLEW_1130_DEBUG:glew.obj
 0003:0001a400       __wglewWaitForSbcOML       000000014009f400     GLEW_1130_DEBUG:glew.obj
 0003:0001a408       __glewDeleteShader         000000014009f408     GLEW_1130_DEBUG:glew.obj
 0003:0001a410       __glewVertexAttrib4dNV     000000014009f410     GLEW_1130_DEBUG:glew.obj
 0003:0001a418       __glewVertexAttrib4dvNV    000000014009f418     GLEW_1130_DEBUG:glew.obj
 0003:0001a420       __glewDetachShader         000000014009f420     GLEW_1130_DEBUG:glew.obj
 0003:0001a428       __WGLEW_3DFX_multisample   000000014009f428     GLEW_1130_DEBUG:glew.obj
 0003:0001a429       __WGLEW_3DL_stereo_control 000000014009f429     GLEW_1130_DEBUG:glew.obj
 0003:0001a42a       __WGLEW_AMD_gpu_association 000000014009f42a     GLEW_1130_DEBUG:glew.obj
 0003:0001a42b       __WGLEW_ARB_buffer_region  000000014009f42b     GLEW_1130_DEBUG:glew.obj
 0003:0001a42c       __WGLEW_ARB_context_flush_control 000000014009f42c     GLEW_1130_DEBUG:glew.obj
 0003:0001a42d       __WGLEW_ARB_create_context 000000014009f42d     GLEW_1130_DEBUG:glew.obj
 0003:0001a42e       __WGLEW_ARB_create_context_profile 000000014009f42e     GLEW_1130_DEBUG:glew.obj
 0003:0001a42f       __WGLEW_ARB_create_context_robustness 000000014009f42f     GLEW_1130_DEBUG:glew.obj
 0003:0001a430       __glewUnmapObjectBufferATI 000000014009f430     GLEW_1130_DEBUG:glew.obj
 0003:0001a438       __glewPNTrianglesfATI      000000014009f438     GLEW_1130_DEBUG:glew.obj
 0003:0001a440       __glewVertexAttrib4fNV     000000014009f440     GLEW_1130_DEBUG:glew.obj
 0003:0001a448       __glewDisableVertexAttribArray 000000014009f448     GLEW_1130_DEBUG:glew.obj
 0003:0001a450       __glewVertexAttrib4fvNV    000000014009f450     GLEW_1130_DEBUG:glew.obj
 0003:0001a458       __glewDrawBuffers          000000014009f458     GLEW_1130_DEBUG:glew.obj
 0003:0001a460       __glewPNTrianglesiATI      000000014009f460     GLEW_1130_DEBUG:glew.obj
 0003:0001a468       __glewEnableVertexAttribArray 000000014009f468     GLEW_1130_DEBUG:glew.obj
 0003:0001a470       __glewStencilFuncSeparateATI 000000014009f470     GLEW_1130_DEBUG:glew.obj
 0003:0001a478       __glewVertexAttrib4sNV     000000014009f478     GLEW_1130_DEBUG:glew.obj
 0003:0001a480       __glewVertexAttrib4svNV    000000014009f480     GLEW_1130_DEBUG:glew.obj
 0003:0001a488       __glewStencilOpSeparateATI 000000014009f488     GLEW_1130_DEBUG:glew.obj
 0003:0001a490       __glewGetActiveAttrib      000000014009f490     GLEW_1130_DEBUG:glew.obj
 0003:0001a498       __glewArrayObjectATI       000000014009f498     GLEW_1130_DEBUG:glew.obj
 0003:0001a4a0       __glewGetActiveUniform     000000014009f4a0     GLEW_1130_DEBUG:glew.obj
 0003:0001a4a8       __glewVertexAttrib4ubNV    000000014009f4a8     GLEW_1130_DEBUG:glew.obj
 0003:0001a4b0       __glewFreeObjectBufferATI  000000014009f4b0     GLEW_1130_DEBUG:glew.obj
 0003:0001a4b8       __glewGetAttachedShaders   000000014009f4b8     GLEW_1130_DEBUG:glew.obj
 0003:0001a4c0       __glewVertexAttrib4ubvNV   000000014009f4c0     GLEW_1130_DEBUG:glew.obj
 0003:0001a4c8       __glewGetAttribLocation    000000014009f4c8     GLEW_1130_DEBUG:glew.obj
 0003:0001a4d0       __glewGetArrayObjectfvATI  000000014009f4d0     GLEW_1130_DEBUG:glew.obj
 0003:0001a4d8       __glewVertexAttribPointerNV 000000014009f4d8     GLEW_1130_DEBUG:glew.obj
 0003:0001a4e0       __WGLEW_ARB_extensions_string 000000014009f4e0     GLEW_1130_DEBUG:glew.obj
 0003:0001a4e1       __WGLEW_ARB_framebuffer_sRGB 000000014009f4e1     GLEW_1130_DEBUG:glew.obj
 0003:0001a4e2       __WGLEW_ARB_make_current_read 000000014009f4e2     GLEW_1130_DEBUG:glew.obj
 0003:0001a4e3       __WGLEW_ARB_multisample    000000014009f4e3     GLEW_1130_DEBUG:glew.obj
 0003:0001a4e4       __WGLEW_ARB_pbuffer        000000014009f4e4     GLEW_1130_DEBUG:glew.obj
 0003:0001a4e5       __WGLEW_ARB_pixel_format   000000014009f4e5     GLEW_1130_DEBUG:glew.obj
 0003:0001a4e6       __WGLEW_ARB_pixel_format_float 000000014009f4e6     GLEW_1130_DEBUG:glew.obj
 0003:0001a4e7       __WGLEW_ARB_render_texture 000000014009f4e7     GLEW_1130_DEBUG:glew.obj
 0003:0001a4e8       __glewVertexAttribs1dvNV   000000014009f4e8     GLEW_1130_DEBUG:glew.obj
 0003:0001a4f0       __glewGetArrayObjectivATI  000000014009f4f0     GLEW_1130_DEBUG:glew.obj
 0003:0001a4f8       __glewGetProgramInfoLog    000000014009f4f8     GLEW_1130_DEBUG:glew.obj
 0003:0001a500       __glewGetProgramiv         000000014009f500     GLEW_1130_DEBUG:glew.obj
 0003:0001a508       __glewGetObjectBufferfvATI 000000014009f508     GLEW_1130_DEBUG:glew.obj
 0003:0001a510       __glewVertexAttribs1fvNV   000000014009f510     GLEW_1130_DEBUG:glew.obj
 0003:0001a518       __glewVertexAttribs1svNV   000000014009f518     GLEW_1130_DEBUG:glew.obj
 0003:0001a520       __glewGetObjectBufferivATI 000000014009f520     GLEW_1130_DEBUG:glew.obj
 0003:0001a528       __glewGetShaderInfoLog     000000014009f528     GLEW_1130_DEBUG:glew.obj
 0003:0001a530       __glewGetVariantArrayObjectfvATI 000000014009f530     GLEW_1130_DEBUG:glew.obj
 0003:0001a538       __glewGetShaderSource      000000014009f538     GLEW_1130_DEBUG:glew.obj
 0003:0001a540       __glewVertexAttribs2dvNV   000000014009f540     GLEW_1130_DEBUG:glew.obj
 0003:0001a548       __glewGetShaderiv          000000014009f548     GLEW_1130_DEBUG:glew.obj
 0003:0001a550       __glewGetVariantArrayObjectivATI 000000014009f550     GLEW_1130_DEBUG:glew.obj
 0003:0001a558       __glewVertexAttribs2fvNV   000000014009f558     GLEW_1130_DEBUG:glew.obj
 0003:0001a560       __glewVertexAttribs2svNV   000000014009f560     GLEW_1130_DEBUG:glew.obj
 0003:0001a568       __glewGetUniformLocation   000000014009f568     GLEW_1130_DEBUG:glew.obj
 0003:0001a570       __glewIsObjectBufferATI    000000014009f570     GLEW_1130_DEBUG:glew.obj
 0003:0001a578       __glewVertexAttribs3dvNV   000000014009f578     GLEW_1130_DEBUG:glew.obj
 0003:0001a580       __glewNewObjectBufferATI   000000014009f580     GLEW_1130_DEBUG:glew.obj
 0003:0001a588       __glewGetUniformfv         000000014009f588     GLEW_1130_DEBUG:glew.obj
 0003:0001a590       __glewGetUniformiv         000000014009f590     GLEW_1130_DEBUG:glew.obj
 0003:0001a598       __glewUpdateObjectBufferATI 000000014009f598     GLEW_1130_DEBUG:glew.obj
 0003:0001a5a0       __glewVertexAttribs3fvNV   000000014009f5a0     GLEW_1130_DEBUG:glew.obj
 0003:0001a5a8       __glewGetVertexAttribPointerv 000000014009f5a8     GLEW_1130_DEBUG:glew.obj
 0003:0001a5b0       __glewVariantArrayObjectATI 000000014009f5b0     GLEW_1130_DEBUG:glew.obj
 0003:0001a5b8       __WGLEW_ARB_robustness_application_isolation 000000014009f5b8     GLEW_1130_DEBUG:glew.obj
 0003:0001a5b9       __WGLEW_ARB_robustness_share_group_isolation 000000014009f5b9     GLEW_1130_DEBUG:glew.obj
 0003:0001a5ba       __WGLEW_ATI_pixel_format_float 000000014009f5ba     GLEW_1130_DEBUG:glew.obj
 0003:0001a5bb       __WGLEW_ATI_render_texture_rectangle 000000014009f5bb     GLEW_1130_DEBUG:glew.obj
 0003:0001a5bc       __WGLEW_EXT_create_context_es2_profile 000000014009f5bc     GLEW_1130_DEBUG:glew.obj
 0003:0001a5bd       __WGLEW_EXT_create_context_es_profile 000000014009f5bd     GLEW_1130_DEBUG:glew.obj
 0003:0001a5be       __WGLEW_EXT_depth_float    000000014009f5be     GLEW_1130_DEBUG:glew.obj
 0003:0001a5bf       __WGLEW_EXT_display_color_table 000000014009f5bf     GLEW_1130_DEBUG:glew.obj
 0003:0001a5c0       __glewVertexAttribs3svNV   000000014009f5c0     GLEW_1130_DEBUG:glew.obj
 0003:0001a5c8       __glewVertexAttribs4dvNV   000000014009f5c8     GLEW_1130_DEBUG:glew.obj
 0003:0001a5d0       __glewGetVertexAttribdv    000000014009f5d0     GLEW_1130_DEBUG:glew.obj
 0003:0001a5d8       __glewGetVertexAttribArrayObjectfvATI 000000014009f5d8     GLEW_1130_DEBUG:glew.obj
 0003:0001a5e0       __glewVertexAttribs4fvNV   000000014009f5e0     GLEW_1130_DEBUG:glew.obj
 0003:0001a5e8       __glewGetVertexAttribfv    000000014009f5e8     GLEW_1130_DEBUG:glew.obj
 0003:0001a5f0       __glewGetVertexAttribArrayObjectivATI 000000014009f5f0     GLEW_1130_DEBUG:glew.obj
 0003:0001a5f8       __glewVertexAttribs4svNV   000000014009f5f8     GLEW_1130_DEBUG:glew.obj
 0003:0001a600       __glewVertexAttribArrayObjectATI 000000014009f600     GLEW_1130_DEBUG:glew.obj
 0003:0001a608       __glewGetVertexAttribiv    000000014009f608     GLEW_1130_DEBUG:glew.obj
 0003:0001a610       __glewVertexAttribs4ubvNV  000000014009f610     GLEW_1130_DEBUG:glew.obj
 0003:0001a618       __glewClientActiveVertexStreamATI 000000014009f618     GLEW_1130_DEBUG:glew.obj
 0003:0001a620       __glewIsProgram            000000014009f620     GLEW_1130_DEBUG:glew.obj
 0003:0001a628       __glewIsShader             000000014009f628     GLEW_1130_DEBUG:glew.obj
 0003:0001a630       __glewNormalStream3bATI    000000014009f630     GLEW_1130_DEBUG:glew.obj
 0003:0001a638       __glewBeginVideoCaptureNV  000000014009f638     GLEW_1130_DEBUG:glew.obj
 0003:0001a640       __glewNormalStream3bvATI   000000014009f640     GLEW_1130_DEBUG:glew.obj
 0003:0001a648       __glewBindVideoCaptureStreamBufferNV 000000014009f648     GLEW_1130_DEBUG:glew.obj
 0003:0001a650       __glewLinkProgram          000000014009f650     GLEW_1130_DEBUG:glew.obj
 0003:0001a658       __glewBindVideoCaptureStreamTextureNV 000000014009f658     GLEW_1130_DEBUG:glew.obj
 0003:0001a660       __glewShaderSource         000000014009f660     GLEW_1130_DEBUG:glew.obj
 0003:0001a668       __glewNormalStream3dATI    000000014009f668     GLEW_1130_DEBUG:glew.obj
 0003:0001a670       __glewNormalStream3dvATI   000000014009f670     GLEW_1130_DEBUG:glew.obj
 0003:0001a678       __glewEndVideoCaptureNV    000000014009f678     GLEW_1130_DEBUG:glew.obj
 0003:0001a680       __WGLEW_EXT_extensions_string 000000014009f680     GLEW_1130_DEBUG:glew.obj
 0003:0001a681       __WGLEW_EXT_framebuffer_sRGB 000000014009f681     GLEW_1130_DEBUG:glew.obj
 0003:0001a682       __WGLEW_EXT_make_current_read 000000014009f682     GLEW_1130_DEBUG:glew.obj
 0003:0001a683       __WGLEW_EXT_multisample    000000014009f683     GLEW_1130_DEBUG:glew.obj
 0003:0001a684       __WGLEW_EXT_pbuffer        000000014009f684     GLEW_1130_DEBUG:glew.obj
 0003:0001a685       __WGLEW_EXT_pixel_format   000000014009f685     GLEW_1130_DEBUG:glew.obj
 0003:0001a686       __WGLEW_EXT_pixel_format_packed_float 000000014009f686     GLEW_1130_DEBUG:glew.obj
 0003:0001a687       __WGLEW_EXT_swap_control   000000014009f687     GLEW_1130_DEBUG:glew.obj
 0003:0001a688       __glewStencilFuncSeparate  000000014009f688     GLEW_1130_DEBUG:glew.obj
 0003:0001a690       __glewStencilMaskSeparate  000000014009f690     GLEW_1130_DEBUG:glew.obj
 0003:0001a698       __glewGetVideoCaptureStreamdvNV 000000014009f698     GLEW_1130_DEBUG:glew.obj
 0003:0001a6a0       __glewNormalStream3fATI    000000014009f6a0     GLEW_1130_DEBUG:glew.obj
 0003:0001a6a8       __glewGetVideoCaptureStreamfvNV 000000014009f6a8     GLEW_1130_DEBUG:glew.obj
 0003:0001a6b0       __glewStencilOpSeparate    000000014009f6b0     GLEW_1130_DEBUG:glew.obj
 0003:0001a6b8       __glewNormalStream3fvATI   000000014009f6b8     GLEW_1130_DEBUG:glew.obj
 0003:0001a6c0       __glewUniform1f            000000014009f6c0     GLEW_1130_DEBUG:glew.obj
 0003:0001a6c8       __glewNormalStream3iATI    000000014009f6c8     GLEW_1130_DEBUG:glew.obj
 0003:0001a6d0       __glewGetVideoCaptureStreamivNV 000000014009f6d0     GLEW_1130_DEBUG:glew.obj
 0003:0001a6d8       __glewNormalStream3ivATI   000000014009f6d8     GLEW_1130_DEBUG:glew.obj
 0003:0001a6e0       __glewUniform1fv           000000014009f6e0     GLEW_1130_DEBUG:glew.obj
 0003:0001a6e8       __glewGetVideoCaptureivNV  000000014009f6e8     GLEW_1130_DEBUG:glew.obj
 0003:0001a6f0       __glewUniform1i            000000014009f6f0     GLEW_1130_DEBUG:glew.obj
 0003:0001a6f8       __glewNormalStream3sATI    000000014009f6f8     GLEW_1130_DEBUG:glew.obj
 0003:0001a700       __glewVideoCaptureNV       000000014009f700     GLEW_1130_DEBUG:glew.obj
 0003:0001a708       __glewUniform1iv           000000014009f708     GLEW_1130_DEBUG:glew.obj
 0003:0001a710       __glewVideoCaptureStreamParameterdvNV 000000014009f710     GLEW_1130_DEBUG:glew.obj
 0003:0001a718       __glewNormalStream3svATI   000000014009f718     GLEW_1130_DEBUG:glew.obj
 0003:0001a720       __glewUniform2f            000000014009f720     GLEW_1130_DEBUG:glew.obj
 0003:0001a728       __glewVertexBlendEnvfATI   000000014009f728     GLEW_1130_DEBUG:glew.obj
 0003:0001a730       __glewVideoCaptureStreamParameterfvNV 000000014009f730     GLEW_1130_DEBUG:glew.obj
 0003:0001a738       __WGLEW_EXT_swap_control_tear 000000014009f738     GLEW_1130_DEBUG:glew.obj
 0003:0001a739       __WGLEW_I3D_digital_video_control 000000014009f739     GLEW_1130_DEBUG:glew.obj
 0003:0001a73a       __WGLEW_I3D_gamma          000000014009f73a     GLEW_1130_DEBUG:glew.obj
 0003:0001a73b       __WGLEW_I3D_genlock        000000014009f73b     GLEW_1130_DEBUG:glew.obj
 0003:0001a73c       __WGLEW_I3D_image_buffer   000000014009f73c     GLEW_1130_DEBUG:glew.obj
 0003:0001a73d       __WGLEW_I3D_swap_frame_lock 000000014009f73d     GLEW_1130_DEBUG:glew.obj
 0003:0001a73e       __WGLEW_I3D_swap_frame_usage 000000014009f73e     GLEW_1130_DEBUG:glew.obj
 0003:0001a73f       __WGLEW_NV_DX_interop      000000014009f73f     GLEW_1130_DEBUG:glew.obj
 0003:0001a740       __glewUniform2fv           000000014009f740     GLEW_1130_DEBUG:glew.obj
 0003:0001a748       __glewVertexBlendEnviATI   000000014009f748     GLEW_1130_DEBUG:glew.obj
 0003:0001a750       __glewVideoCaptureStreamParameterivNV 000000014009f750     GLEW_1130_DEBUG:glew.obj
 0003:0001a758       __glewClearDepthfOES       000000014009f758     GLEW_1130_DEBUG:glew.obj
 0003:0001a760       __glewVertexStream1dATI    000000014009f760     GLEW_1130_DEBUG:glew.obj
 0003:0001a768       __glewUniform2i            000000014009f768     GLEW_1130_DEBUG:glew.obj
 0003:0001a770       __glewUniform2iv           000000014009f770     GLEW_1130_DEBUG:glew.obj
 0003:0001a778       __glewVertexStream1dvATI   000000014009f778     GLEW_1130_DEBUG:glew.obj
 0003:0001a780       __glewClipPlanefOES        000000014009f780     GLEW_1130_DEBUG:glew.obj
 0003:0001a788       __glewVertexStream1fATI    000000014009f788     GLEW_1130_DEBUG:glew.obj
 0003:0001a790       __glewDepthRangefOES       000000014009f790     GLEW_1130_DEBUG:glew.obj
 0003:0001a798       __glewUniform3f            000000014009f798     GLEW_1130_DEBUG:glew.obj
 0003:0001a7a0       __glewFrustumfOES          000000014009f7a0     GLEW_1130_DEBUG:glew.obj
 0003:0001a7a8       __glewVertexStream1fvATI   000000014009f7a8     GLEW_1130_DEBUG:glew.obj
 0003:0001a7b0       __glewUniform3fv           000000014009f7b0     GLEW_1130_DEBUG:glew.obj
 0003:0001a7b8       __glewGetClipPlanefOES     000000014009f7b8     GLEW_1130_DEBUG:glew.obj
 0003:0001a7c0       __glewUniform3i            000000014009f7c0     GLEW_1130_DEBUG:glew.obj
 0003:0001a7c8       __glewVertexStream1iATI    000000014009f7c8     GLEW_1130_DEBUG:glew.obj
 0003:0001a7d0       __glewVertexStream1ivATI   000000014009f7d0     GLEW_1130_DEBUG:glew.obj
 0003:0001a7d8       __glewUniform3iv           000000014009f7d8     GLEW_1130_DEBUG:glew.obj
 0003:0001a7e0       __glewOrthofOES            000000014009f7e0     GLEW_1130_DEBUG:glew.obj
 0003:0001a7e8       __glewVertexStream1sATI    000000014009f7e8     GLEW_1130_DEBUG:glew.obj
 0003:0001a7f0       __glewFramebufferTextureMultiviewOVR 000000014009f7f0     GLEW_1130_DEBUG:glew.obj
 0003:0001a7f8       __glewUniform4f            000000014009f7f8     GLEW_1130_DEBUG:glew.obj
 0003:0001a800       __glewVertexStream1svATI   000000014009f800     GLEW_1130_DEBUG:glew.obj
 0003:0001a808       __WGLEW_NV_DX_interop2     000000014009f808     GLEW_1130_DEBUG:glew.obj
 0003:0001a809       __WGLEW_NV_copy_image      000000014009f809     GLEW_1130_DEBUG:glew.obj
 0003:0001a80a       __WGLEW_NV_delay_before_swap 000000014009f80a     GLEW_1130_DEBUG:glew.obj
 0003:0001a80b       __WGLEW_NV_float_buffer    000000014009f80b     GLEW_1130_DEBUG:glew.obj
 0003:0001a80c       __WGLEW_NV_gpu_affinity    000000014009f80c     GLEW_1130_DEBUG:glew.obj
 0003:0001a80d       __WGLEW_NV_multisample_coverage 000000014009f80d     GLEW_1130_DEBUG:glew.obj
 0003:0001a80e       __WGLEW_NV_present_video   000000014009f80e     GLEW_1130_DEBUG:glew.obj
 0003:0001a80f       __WGLEW_NV_render_depth_texture 000000014009f80f     GLEW_1130_DEBUG:glew.obj
 0003:0001a810       __glewAlphaFuncx           000000014009f810     GLEW_1130_DEBUG:glew.obj
 0003:0001a818       __glewUniform4fv           000000014009f818     GLEW_1130_DEBUG:glew.obj
 0003:0001a820       __glewClearColorx          000000014009f820     GLEW_1130_DEBUG:glew.obj
 0003:0001a828       __glewUniform4i            000000014009f828     GLEW_1130_DEBUG:glew.obj
 0003:0001a830       __glewVertexStream2dATI    000000014009f830     GLEW_1130_DEBUG:glew.obj
 0003:0001a838       __glewVertexStream2dvATI   000000014009f838     GLEW_1130_DEBUG:glew.obj
 0003:0001a840       __glewUniform4iv           000000014009f840     GLEW_1130_DEBUG:glew.obj
 0003:0001a848       __glewClearDepthx          000000014009f848     GLEW_1130_DEBUG:glew.obj
 0003:0001a850       __glewColor4x              000000014009f850     GLEW_1130_DEBUG:glew.obj
 0003:0001a858       __glewVertexStream2fATI    000000014009f858     GLEW_1130_DEBUG:glew.obj
 0003:0001a860       __glewUniformMatrix2fv     000000014009f860     GLEW_1130_DEBUG:glew.obj
 0003:0001a868       __glewUniformMatrix3fv     000000014009f868     GLEW_1130_DEBUG:glew.obj
 0003:0001a870       __glewDepthRangex          000000014009f870     GLEW_1130_DEBUG:glew.obj
 0003:0001a878       __glewVertexStream2fvATI   000000014009f878     GLEW_1130_DEBUG:glew.obj
 0003:0001a880       __glewVertexStream2iATI    000000014009f880     GLEW_1130_DEBUG:glew.obj
 0003:0001a888       __glewUniformMatrix4fv     000000014009f888     GLEW_1130_DEBUG:glew.obj
 0003:0001a890       __glewFogx                 000000014009f890     GLEW_1130_DEBUG:glew.obj
 0003:0001a898       __glewUseProgram           000000014009f898     GLEW_1130_DEBUG:glew.obj
 0003:0001a8a0       __glewVertexStream2ivATI   000000014009f8a0     GLEW_1130_DEBUG:glew.obj
 0003:0001a8a8       __glewFogxv                000000014009f8a8     GLEW_1130_DEBUG:glew.obj
 0003:0001a8b0       __glewValidateProgram      000000014009f8b0     GLEW_1130_DEBUG:glew.obj
 0003:0001a8b8       __glewFrustumf             000000014009f8b8     GLEW_1130_DEBUG:glew.obj
 0003:0001a8c0       __glewVertexStream2sATI    000000014009f8c0     GLEW_1130_DEBUG:glew.obj
 0003:0001a8c8       __glewVertexAttrib1d       000000014009f8c8     GLEW_1130_DEBUG:glew.obj
 0003:0001a8d0       __glewVertexStream2svATI   000000014009f8d0     GLEW_1130_DEBUG:glew.obj
 0003:0001a8d8       __WGLEW_NV_render_texture_rectangle 000000014009f8d8     GLEW_1130_DEBUG:glew.obj
 0003:0001a8d9       __WGLEW_NV_swap_group      000000014009f8d9     GLEW_1130_DEBUG:glew.obj
 0003:0001a8da       __WGLEW_NV_vertex_array_range 000000014009f8da     GLEW_1130_DEBUG:glew.obj
 0003:0001a8db       __WGLEW_NV_video_capture   000000014009f8db     GLEW_1130_DEBUG:glew.obj
 0003:0001a8dc       __WGLEW_NV_video_output    000000014009f8dc     GLEW_1130_DEBUG:glew.obj
 0003:0001a8dd       __WGLEW_OML_sync_control   000000014009f8dd     GLEW_1130_DEBUG:glew.obj
 0003:0001a8e0       __glewFrustumx             000000014009f8e0     GLEW_1130_DEBUG:glew.obj
 0003:0001a8e8       __glewVertexAttrib1dv      000000014009f8e8     GLEW_1130_DEBUG:glew.obj
 0003:0001a8f0       __glewLightModelx          000000014009f8f0     GLEW_1130_DEBUG:glew.obj
 0003:0001a8f8       __glewVertexStream3dATI    000000014009f8f8     GLEW_1130_DEBUG:glew.obj
 0003:0001a900       __glewVertexStream3dvATI   000000014009f900     GLEW_1130_DEBUG:glew.obj
 0003:0001a908       __glewLightModelxv         000000014009f908     GLEW_1130_DEBUG:glew.obj
 0003:0001a910       __glewVertexAttrib1f       000000014009f910     GLEW_1130_DEBUG:glew.obj
 0003:0001a918       __glewVertexStream3fATI    000000014009f918     GLEW_1130_DEBUG:glew.obj
 0003:0001a920       __glewLightx               000000014009f920     GLEW_1130_DEBUG:glew.obj
 0003:0001a928       __glewVertexAttrib1fv      000000014009f928     GLEW_1130_DEBUG:glew.obj
 0003:0001a930       __glewVertexStream3fvATI   000000014009f930     GLEW_1130_DEBUG:glew.obj
 0003:0001a938       __glewVertexAttrib1s       000000014009f938     GLEW_1130_DEBUG:glew.obj
 0003:0001a940       __glewLightxv              000000014009f940     GLEW_1130_DEBUG:glew.obj
 0003:0001a948       __glewVertexStream3iATI    000000014009f948     GLEW_1130_DEBUG:glew.obj
 0003:0001a950       __glewLineWidthx           000000014009f950     GLEW_1130_DEBUG:glew.obj
 0003:0001a958       __glewVertexAttrib1sv      000000014009f958     GLEW_1130_DEBUG:glew.obj
 0003:0001a960       __glewVertexAttrib2d       000000014009f960     GLEW_1130_DEBUG:glew.obj
 0003:0001a968       __glewVertexStream3ivATI   000000014009f968     GLEW_1130_DEBUG:glew.obj
 0003:0001a970       __glewLoadMatrixx          000000014009f970     GLEW_1130_DEBUG:glew.obj
 0003:0001a978       __glewVertexAttrib2dv      000000014009f978     GLEW_1130_DEBUG:glew.obj
 0003:0001a980       __glewVertexStream3sATI    000000014009f980     GLEW_1130_DEBUG:glew.obj
 0003:0001a988       __glewMaterialx            000000014009f988     GLEW_1130_DEBUG:glew.obj
 0003:0001a990       __glewVertexAttrib2f       000000014009f990     GLEW_1130_DEBUG:glew.obj
 0003:0001a998       __glewVertexStream3svATI   000000014009f998     GLEW_1130_DEBUG:glew.obj
 0003:0001a9a0       __glewMaterialxv           000000014009f9a0     GLEW_1130_DEBUG:glew.obj
 0003:0001a9a8       __glewMultMatrixx          000000014009f9a8     GLEW_1130_DEBUG:glew.obj
 0003:0001a9b0       __glewVertexAttrib2fv      000000014009f9b0     GLEW_1130_DEBUG:glew.obj
 0003:0001a9b8       __glewVertexStream4dATI    000000014009f9b8     GLEW_1130_DEBUG:glew.obj
 0003:0001a9c0       __glewMultiTexCoord4x      000000014009f9c0     GLEW_1130_DEBUG:glew.obj
 0003:0001a9c8       __glewVertexAttrib2s       000000014009f9c8     GLEW_1130_DEBUG:glew.obj
 0003:0001a9d0       __glewVertexStream4dvATI   000000014009f9d0     GLEW_1130_DEBUG:glew.obj
 0003:0001a9d8       __glewVertexAttrib2sv      000000014009f9d8     GLEW_1130_DEBUG:glew.obj
 0003:0001a9e0       __glewNormal3x             000000014009f9e0     GLEW_1130_DEBUG:glew.obj
 0003:0001a9e8       __glewVertexStream4fATI    000000014009f9e8     GLEW_1130_DEBUG:glew.obj
 0003:0001a9f0       __glewOrthof               000000014009f9f0     GLEW_1130_DEBUG:glew.obj
 0003:0001a9f8       __glewVertexStream4fvATI   000000014009f9f8     GLEW_1130_DEBUG:glew.obj
 0003:0001aa00       __glewVertexAttrib3d       000000014009fa00     GLEW_1130_DEBUG:glew.obj
 0003:0001aa08       __glewVertexStream4iATI    000000014009fa08     GLEW_1130_DEBUG:glew.obj
 0003:0001aa10       __glewOrthox               000000014009fa10     GLEW_1130_DEBUG:glew.obj
 0003:0001aa18       __glewVertexAttrib3dv      000000014009fa18     GLEW_1130_DEBUG:glew.obj
 0003:0001aa20       __glewVertexStream4ivATI   000000014009fa20     GLEW_1130_DEBUG:glew.obj
 0003:0001aa28       __glewPointSizex           000000014009fa28     GLEW_1130_DEBUG:glew.obj
 0003:0001aa30       __glewVertexAttrib3f       000000014009fa30     GLEW_1130_DEBUG:glew.obj
 0003:0001aa38       __glewPolygonOffsetx       000000014009fa38     GLEW_1130_DEBUG:glew.obj
 0003:0001aa40       __glewVertexStream4sATI    000000014009fa40     GLEW_1130_DEBUG:glew.obj
 0003:0001aa48       __glewVertexAttrib3fv      000000014009fa48     GLEW_1130_DEBUG:glew.obj
 0003:0001aa50       __glewVertexAttrib3s       000000014009fa50     GLEW_1130_DEBUG:glew.obj
 0003:0001aa58       __glewRotatex              000000014009fa58     GLEW_1130_DEBUG:glew.obj
 0003:0001aa60       __glewVertexStream4svATI   000000014009fa60     GLEW_1130_DEBUG:glew.obj
 0003:0001aa68       __glewGetUniformBufferSizeEXT 000000014009fa68     GLEW_1130_DEBUG:glew.obj
 0003:0001aa70       __glewSampleCoveragex      000000014009fa70     GLEW_1130_DEBUG:glew.obj
 0003:0001aa78       __glewVertexAttrib3sv      000000014009fa78     GLEW_1130_DEBUG:glew.obj
 0003:0001aa80       __glewScalex               000000014009fa80     GLEW_1130_DEBUG:glew.obj
 0003:0001aa88       __glewVertexAttrib4Nbv     000000014009fa88     GLEW_1130_DEBUG:glew.obj
 0003:0001aa90       __glewGetUniformOffsetEXT  000000014009fa90     GLEW_1130_DEBUG:glew.obj
 0003:0001aa98       __glewVertexAttrib4Niv     000000014009fa98     GLEW_1130_DEBUG:glew.obj
 0003:0001aaa0       __glewUniformBufferEXT     000000014009faa0     GLEW_1130_DEBUG:glew.obj
 0003:0001aaa8       __glewTexEnvx              000000014009faa8     GLEW_1130_DEBUG:glew.obj
 0003:0001aab0       __glewVertexAttrib4Nsv     000000014009fab0     GLEW_1130_DEBUG:glew.obj
 0003:0001aab8       __glewBlendColorEXT        000000014009fab8     GLEW_1130_DEBUG:glew.obj
 0003:0001aac0       __glewTexEnvxv             000000014009fac0     GLEW_1130_DEBUG:glew.obj
 0003:0001aac8       __glewTexParameterx        000000014009fac8     GLEW_1130_DEBUG:glew.obj
 0003:0001aad0       __glewBlendEquationSeparateEXT 000000014009fad0     GLEW_1130_DEBUG:glew.obj
 0003:0001aad8       __glewVertexAttrib4Nub     000000014009fad8     GLEW_1130_DEBUG:glew.obj
 0003:0001aae0       __glewTranslatex           000000014009fae0     GLEW_1130_DEBUG:glew.obj
 0003:0001aae8       __glewVertexAttrib4Nubv    000000014009fae8     GLEW_1130_DEBUG:glew.obj
 0003:0001aaf0       __glewBlendFuncSeparateEXT 000000014009faf0     GLEW_1130_DEBUG:glew.obj
 0003:0001aaf8       __glewVertexAttrib4Nuiv    000000014009faf8     GLEW_1130_DEBUG:glew.obj
 0003:0001ab00       __glewBlendEquationEXT     000000014009fb00     GLEW_1130_DEBUG:glew.obj
 0003:0001ab08       __glewClipPlanef           000000014009fb08     GLEW_1130_DEBUG:glew.obj
 0003:0001ab10       __glewVertexAttrib4Nusv    000000014009fb10     GLEW_1130_DEBUG:glew.obj
 0003:0001ab18       __glewColorSubTableEXT     000000014009fb18     GLEW_1130_DEBUG:glew.obj
 0003:0001ab20       __glewClipPlanex           000000014009fb20     GLEW_1130_DEBUG:glew.obj
 0003:0001ab28       __glewGetClipPlanef        000000014009fb28     GLEW_1130_DEBUG:glew.obj
 0003:0001ab30       __glewCopyColorSubTableEXT 000000014009fb30     GLEW_1130_DEBUG:glew.obj
 0003:0001ab38       __glewVertexAttrib4bv      000000014009fb38     GLEW_1130_DEBUG:glew.obj
 0003:0001ab40       __glewGetClipPlanex        000000014009fb40     GLEW_1130_DEBUG:glew.obj
 0003:0001ab48       __glewVertexAttrib4d       000000014009fb48     GLEW_1130_DEBUG:glew.obj
 0003:0001ab50       __glewLockArraysEXT        000000014009fb50     GLEW_1130_DEBUG:glew.obj
 0003:0001ab58       __glewUnlockArraysEXT      000000014009fb58     GLEW_1130_DEBUG:glew.obj
 0003:0001ab60       __glewGetFixedv            000000014009fb60     GLEW_1130_DEBUG:glew.obj
 0003:0001ab68       __glewVertexAttrib4dv      000000014009fb68     GLEW_1130_DEBUG:glew.obj
 0003:0001ab70       __glewConvolutionFilter1DEXT 000000014009fb70     GLEW_1130_DEBUG:glew.obj
 0003:0001ab78       __glewVertexAttrib4f       000000014009fb78     GLEW_1130_DEBUG:glew.obj
 0003:0001ab80       __glewGetLightxv           000000014009fb80     GLEW_1130_DEBUG:glew.obj
 0003:0001ab88       __glewConvolutionFilter2DEXT 000000014009fb88     GLEW_1130_DEBUG:glew.obj
 0003:0001ab90       __glewGetMaterialxv        000000014009fb90     GLEW_1130_DEBUG:glew.obj
 0003:0001ab98       __glewVertexAttrib4fv      000000014009fb98     GLEW_1130_DEBUG:glew.obj
 0003:0001aba0       __glewVertexAttrib4iv      000000014009fba0     GLEW_1130_DEBUG:glew.obj
 0003:0001aba8       __glewConvolutionParameterfEXT 000000014009fba8     GLEW_1130_DEBUG:glew.obj
 0003:0001abb0       __glewGetTexEnvxv          000000014009fbb0     GLEW_1130_DEBUG:glew.obj
 0003:0001abb8       __glewConvolutionParameterfvEXT 000000014009fbb8     GLEW_1130_DEBUG:glew.obj
 0003:0001abc0       __glewVertexAttrib4s       000000014009fbc0     GLEW_1130_DEBUG:glew.obj
 0003:0001abc8       __glewGetTexParameterxv    000000014009fbc8     GLEW_1130_DEBUG:glew.obj
 0003:0001abd0       __glewPointParameterx      000000014009fbd0     GLEW_1130_DEBUG:glew.obj
 0003:0001abd8       __glewVertexAttrib4sv      000000014009fbd8     GLEW_1130_DEBUG:glew.obj
 0003:0001abe0       __glewConvolutionParameteriEXT 000000014009fbe0     GLEW_1130_DEBUG:glew.obj
 0003:0001abe8       __glewVertexAttrib4ubv     000000014009fbe8     GLEW_1130_DEBUG:glew.obj
 0003:0001abf0       __glewConvolutionParameterivEXT 000000014009fbf0     GLEW_1130_DEBUG:glew.obj
 0003:0001abf8       __glewPointParameterxv     000000014009fbf8     GLEW_1130_DEBUG:glew.obj
 0003:0001ac00       __glewCopyConvolutionFilter1DEXT 000000014009fc00     GLEW_1130_DEBUG:glew.obj
 0003:0001ac08       __glewPointSizePointerOES  000000014009fc08     GLEW_1130_DEBUG:glew.obj
 0003:0001ac10       __glewVertexAttrib4uiv     000000014009fc10     GLEW_1130_DEBUG:glew.obj
 0003:0001ac18       __glewTexParameterxv       000000014009fc18     GLEW_1130_DEBUG:glew.obj
 0003:0001ac20       __glewVertexAttrib4usv     000000014009fc20     GLEW_1130_DEBUG:glew.obj
 0003:0001ac28       __glewCopyConvolutionFilter2DEXT 000000014009fc28     GLEW_1130_DEBUG:glew.obj
 0003:0001ac30       __glewGetConvolutionFilterEXT 000000014009fc30     GLEW_1130_DEBUG:glew.obj
 0003:0001ac38       __glewVertexAttribPointer  000000014009fc38     GLEW_1130_DEBUG:glew.obj
 0003:0001ac40       __glewErrorStringREGAL     000000014009fc40     GLEW_1130_DEBUG:glew.obj
 0003:0001ac48       __glewGetExtensionREGAL    000000014009fc48     GLEW_1130_DEBUG:glew.obj
 0003:0001ac50       __glewUniformMatrix2x3fv   000000014009fc50     GLEW_1130_DEBUG:glew.obj
 0003:0001ac58       __glewGetConvolutionParameterfvEXT 000000014009fc58     GLEW_1130_DEBUG:glew.obj
 0003:0001ac60       __glewUniformMatrix2x4fv   000000014009fc60     GLEW_1130_DEBUG:glew.obj
 0003:0001ac68       __glewGetConvolutionParameterivEXT 000000014009fc68     GLEW_1130_DEBUG:glew.obj
 0003:0001ac70       __glewIsSupportedREGAL     000000014009fc70     GLEW_1130_DEBUG:glew.obj
 0003:0001ac78       __glewGetSeparableFilterEXT 000000014009fc78     GLEW_1130_DEBUG:glew.obj
 0003:0001ac80       __glewUniformMatrix3x2fv   000000014009fc80     GLEW_1130_DEBUG:glew.obj
 0003:0001ac88       __glewLogMessageCallbackREGAL 000000014009fc88     GLEW_1130_DEBUG:glew.obj
 0003:0001ac90       __glewSeparableFilter2DEXT 000000014009fc90     GLEW_1130_DEBUG:glew.obj
 0003:0001ac98       __glewUniformMatrix3x4fv   000000014009fc98     GLEW_1130_DEBUG:glew.obj
 0003:0001aca0       __glewGetProcAddressREGAL  000000014009fca0     GLEW_1130_DEBUG:glew.obj
 0003:0001aca8       __glewUniformMatrix4x2fv   000000014009fca8     GLEW_1130_DEBUG:glew.obj
 0003:0001acb0       __glewBinormalPointerEXT   000000014009fcb0     GLEW_1130_DEBUG:glew.obj
 0003:0001acb8       __glewDetailTexFuncSGIS    000000014009fcb8     GLEW_1130_DEBUG:glew.obj
 0003:0001acc0       __glewUniformMatrix4x3fv   000000014009fcc0     GLEW_1130_DEBUG:glew.obj
 0003:0001acc8       __glewTangentPointerEXT    000000014009fcc8     GLEW_1130_DEBUG:glew.obj
 0003:0001acd0       __glewGetDetailTexFuncSGIS 000000014009fcd0     GLEW_1130_DEBUG:glew.obj
 0003:0001acd8       __glewCopyTexImage1DEXT    000000014009fcd8     GLEW_1130_DEBUG:glew.obj
 0003:0001ace0       __glewBeginConditionalRender 000000014009fce0     GLEW_1130_DEBUG:glew.obj
 0003:0001ace8       __glewFogFuncSGIS          000000014009fce8     GLEW_1130_DEBUG:glew.obj
 0003:0001acf0       __glewBeginTransformFeedback 000000014009fcf0     GLEW_1130_DEBUG:glew.obj
 0003:0001acf8       __glewCopyTexImage2DEXT    000000014009fcf8     GLEW_1130_DEBUG:glew.obj
 0003:0001ad00       __glewGetFogFuncSGIS       000000014009fd00     GLEW_1130_DEBUG:glew.obj
 0003:0001ad08       __glewBindFragDataLocation 000000014009fd08     GLEW_1130_DEBUG:glew.obj
 0003:0001ad10       __glewSampleMaskSGIS       000000014009fd10     GLEW_1130_DEBUG:glew.obj
 0003:0001ad18       __glewCopyTexSubImage1DEXT 000000014009fd18     GLEW_1130_DEBUG:glew.obj
 0003:0001ad20       __glewClampColor           000000014009fd20     GLEW_1130_DEBUG:glew.obj
 0003:0001ad28       __glewSamplePatternSGIS    000000014009fd28     GLEW_1130_DEBUG:glew.obj
 0003:0001ad30       __glewCopyTexSubImage2DEXT 000000014009fd30     GLEW_1130_DEBUG:glew.obj
 0003:0001ad38       __glewCopyTexSubImage3DEXT 000000014009fd38     GLEW_1130_DEBUG:glew.obj
 0003:0001ad40       __glewClearBufferfi        000000014009fd40     GLEW_1130_DEBUG:glew.obj
 0003:0001ad48       __glewGetSharpenTexFuncSGIS 000000014009fd48     GLEW_1130_DEBUG:glew.obj
 0003:0001ad50       __glewClearBufferfv        000000014009fd50     GLEW_1130_DEBUG:glew.obj
 0003:0001ad58       __glewSharpenTexFuncSGIS   000000014009fd58     GLEW_1130_DEBUG:glew.obj
 0003:0001ad60       __glewCullParameterdvEXT   000000014009fd60     GLEW_1130_DEBUG:glew.obj
 0003:0001ad68       __glewClearBufferiv        000000014009fd68     GLEW_1130_DEBUG:glew.obj
 0003:0001ad70       __glewCullParameterfvEXT   000000014009fd70     GLEW_1130_DEBUG:glew.obj
 0003:0001ad78       __glewTexImage4DSGIS       000000014009fd78     GLEW_1130_DEBUG:glew.obj
 0003:0001ad80       __glewClearBufferuiv       000000014009fd80     GLEW_1130_DEBUG:glew.obj
 0003:0001ad88       __glewTexSubImage4DSGIS    000000014009fd88     GLEW_1130_DEBUG:glew.obj
 0003:0001ad90       __glewGetObjectLabelEXT    000000014009fd90     GLEW_1130_DEBUG:glew.obj
 0003:0001ad98       __glewLabelObjectEXT       000000014009fd98     GLEW_1130_DEBUG:glew.obj
 0003:0001ada0       __glewGetTexFilterFuncSGIS 000000014009fda0     GLEW_1130_DEBUG:glew.obj
 0003:0001ada8       __glewColorMaski           000000014009fda8     GLEW_1130_DEBUG:glew.obj
 0003:0001adb0       __glewTexFilterFuncSGIS    000000014009fdb0     GLEW_1130_DEBUG:glew.obj
 0003:0001adb8       __glewDisablei             000000014009fdb8     GLEW_1130_DEBUG:glew.obj
 0003:0001adc0       __glewInsertEventMarkerEXT 000000014009fdc0     GLEW_1130_DEBUG:glew.obj
 0003:0001adc8       __glewEnablei              000000014009fdc8     GLEW_1130_DEBUG:glew.obj
 0003:0001add0       __glewAsyncMarkerSGIX      000000014009fdd0     GLEW_1130_DEBUG:glew.obj
 0003:0001add8       __glewPopGroupMarkerEXT    000000014009fdd8     GLEW_1130_DEBUG:glew.obj
 0003:0001ade8       __glewPushGroupMarkerEXT   000000014009fde8     GLEW_1130_DEBUG:glew.obj
 0003:0001adf0       __glewEndConditionalRender 000000014009fdf0     GLEW_1130_DEBUG:glew.obj
 0003:0001adf8       __glewDeleteAsyncMarkersSGIX 000000014009fdf8     GLEW_1130_DEBUG:glew.obj
 0003:0001ae00       __glewEndTransformFeedback 000000014009fe00     GLEW_1130_DEBUG:glew.obj
 0003:0001ae08       __glewFinishAsyncSGIX      000000014009fe08     GLEW_1130_DEBUG:glew.obj
 0003:0001ae10       __glewDepthBoundsEXT       000000014009fe10     GLEW_1130_DEBUG:glew.obj
 0003:0001ae20       __glewGetBooleani_v        000000014009fe20     GLEW_1130_DEBUG:glew.obj
 0003:0001ae28       __glewBindMultiTextureEXT  000000014009fe28     GLEW_1130_DEBUG:glew.obj
 0003:0001ae30       __glewGenAsyncMarkersSGIX  000000014009fe30     GLEW_1130_DEBUG:glew.obj
 0003:0001ae38       __glewCheckNamedFramebufferStatusEXT 000000014009fe38     GLEW_1130_DEBUG:glew.obj
 0003:0001ae40       __glewGetFragDataLocation  000000014009fe40     GLEW_1130_DEBUG:glew.obj
 0003:0001ae48       __glewIsAsyncMarkerSGIX    000000014009fe48     GLEW_1130_DEBUG:glew.obj
 0003:0001ae50       __glewGetStringi           000000014009fe50     GLEW_1130_DEBUG:glew.obj
 0003:0001ae58       __glewClientAttribDefaultEXT 000000014009fe58     GLEW_1130_DEBUG:glew.obj
 0003:0001ae60       __glewPollAsyncSGIX        000000014009fe60     GLEW_1130_DEBUG:glew.obj
 0003:0001ae68       __glewGetTexParameterIiv   000000014009fe68     GLEW_1130_DEBUG:glew.obj
 0003:0001ae70       __glewFlushRasterSGIX      000000014009fe70     GLEW_1130_DEBUG:glew.obj
 0003:0001ae78       __glewCompressedMultiTexImage1DEXT 000000014009fe78     GLEW_1130_DEBUG:glew.obj
 0003:0001ae80       __glewCompressedMultiTexImage2DEXT 000000014009fe80     GLEW_1130_DEBUG:glew.obj
 0003:0001ae88       __glewTextureFogSGIX       000000014009fe88     GLEW_1130_DEBUG:glew.obj
 0003:0001ae90       __glewGetTexParameterIuiv  000000014009fe90     GLEW_1130_DEBUG:glew.obj
 0003:0001ae98       __glewCompressedMultiTexImage3DEXT 000000014009fe98     GLEW_1130_DEBUG:glew.obj
 0003:0001aea0       __glewFragmentColorMaterialSGIX 000000014009fea0     GLEW_1130_DEBUG:glew.obj
 0003:0001aea8       __glewGetTransformFeedbackVarying 000000014009fea8     GLEW_1130_DEBUG:glew.obj
 0003:0001aeb0       __glewCompressedMultiTexSubImage1DEXT 000000014009feb0     GLEW_1130_DEBUG:glew.obj
 0003:0001aeb8       __glewFragmentLightModelfSGIX 000000014009feb8     GLEW_1130_DEBUG:glew.obj
 0003:0001aec0       __glewGetUniformuiv        000000014009fec0     GLEW_1130_DEBUG:glew.obj
 0003:0001aec8       __glewCompressedMultiTexSubImage2DEXT 000000014009fec8     GLEW_1130_DEBUG:glew.obj
 0003:0001aed0       __glewFragmentLightModelfvSGIX 000000014009fed0     GLEW_1130_DEBUG:glew.obj
 0003:0001aed8       __glewGetVertexAttribIiv   000000014009fed8     GLEW_1130_DEBUG:glew.obj
 0003:0001aee0       __glewFragmentLightModeliSGIX 000000014009fee0     GLEW_1130_DEBUG:glew.obj
 0003:0001aee8       __glewCompressedMultiTexSubImage3DEXT 000000014009fee8     GLEW_1130_DEBUG:glew.obj
 0003:0001aef0       __glewGetVertexAttribIuiv  000000014009fef0     GLEW_1130_DEBUG:glew.obj
 0003:0001aef8       __glewIsEnabledi           000000014009fef8     GLEW_1130_DEBUG:glew.obj
 0003:0001af00       __glewCompressedTextureImage1DEXT 000000014009ff00     GLEW_1130_DEBUG:glew.obj
 0003:0001af08       __glewFragmentLightModelivSGIX 000000014009ff08     GLEW_1130_DEBUG:glew.obj
 0003:0001af10       __glewFragmentLightfSGIX   000000014009ff10     GLEW_1130_DEBUG:glew.obj
 0003:0001af18       __glewTexParameterIiv      000000014009ff18     GLEW_1130_DEBUG:glew.obj
 0003:0001af20       __glewCompressedTextureImage2DEXT 000000014009ff20     GLEW_1130_DEBUG:glew.obj
 0003:0001af28       __glewTexParameterIuiv     000000014009ff28     GLEW_1130_DEBUG:glew.obj
 0003:0001af30       __glewFragmentLightfvSGIX  000000014009ff30     GLEW_1130_DEBUG:glew.obj
 0003:0001af38       __glewCompressedTextureImage3DEXT 000000014009ff38     GLEW_1130_DEBUG:glew.obj
 0003:0001af40       __glewCompressedTextureSubImage1DEXT 000000014009ff40     GLEW_1130_DEBUG:glew.obj
 0003:0001af48       __glewTransformFeedbackVaryings 000000014009ff48     GLEW_1130_DEBUG:glew.obj
 0003:0001af50       __glewFragmentLightiSGIX   000000014009ff50     GLEW_1130_DEBUG:glew.obj
 0003:0001af58       __glewUniform1ui           000000014009ff58     GLEW_1130_DEBUG:glew.obj
 0003:0001af60       __glewCompressedTextureSubImage2DEXT 000000014009ff60     GLEW_1130_DEBUG:glew.obj
 0003:0001af68       __glewFragmentLightivSGIX  000000014009ff68     GLEW_1130_DEBUG:glew.obj
 0003:0001af70       __glewUniform1uiv          000000014009ff70     GLEW_1130_DEBUG:glew.obj
 0003:0001af78       __glewCompressedTextureSubImage3DEXT 000000014009ff78     GLEW_1130_DEBUG:glew.obj
 0003:0001af80       __glewFragmentMaterialfSGIX 000000014009ff80     GLEW_1130_DEBUG:glew.obj
 0003:0001af88       __glewUniform2ui           000000014009ff88     GLEW_1130_DEBUG:glew.obj
 0003:0001af90       __glewFragmentMaterialfvSGIX 000000014009ff90     GLEW_1130_DEBUG:glew.obj
 0003:0001af98       __glewCopyMultiTexImage1DEXT 000000014009ff98     GLEW_1130_DEBUG:glew.obj
 0003:0001afa0       __glewFragmentMaterialiSGIX 000000014009ffa0     GLEW_1130_DEBUG:glew.obj
 0003:0001afa8       __glewCopyMultiTexImage2DEXT 000000014009ffa8     GLEW_1130_DEBUG:glew.obj
 0003:0001afb0       __glewUniform2uiv          000000014009ffb0     GLEW_1130_DEBUG:glew.obj
 0003:0001afb8       __glewFragmentMaterialivSGIX 000000014009ffb8     GLEW_1130_DEBUG:glew.obj
 0003:0001afc0       __glewUniform3ui           000000014009ffc0     GLEW_1130_DEBUG:glew.obj
 0003:0001afc8       __glewCopyMultiTexSubImage1DEXT 000000014009ffc8     GLEW_1130_DEBUG:glew.obj
 0003:0001afd0       __glewUniform3uiv          000000014009ffd0     GLEW_1130_DEBUG:glew.obj
 0003:0001afd8       __glewCopyMultiTexSubImage2DEXT 000000014009ffd8     GLEW_1130_DEBUG:glew.obj
 0003:0001afe0       __glewGetFragmentLightfvSGIX 000000014009ffe0     GLEW_1130_DEBUG:glew.obj
 0003:0001afe8       __glewGetFragmentLightivSGIX 000000014009ffe8     GLEW_1130_DEBUG:glew.obj
 0003:0001aff0       __glewUniform4ui           000000014009fff0     GLEW_1130_DEBUG:glew.obj
 0003:0001aff8       __glewCopyMultiTexSubImage3DEXT 000000014009fff8     GLEW_1130_DEBUG:glew.obj
 0003:0001b000       __glewCopyTextureImage1DEXT 00000001400a0000     GLEW_1130_DEBUG:glew.obj
 0003:0001b008       __glewGetFragmentMaterialfvSGIX 00000001400a0008     GLEW_1130_DEBUG:glew.obj
 0003:0001b010       __glewUniform4uiv          00000001400a0010     GLEW_1130_DEBUG:glew.obj
 0003:0001b018       __glewGetFragmentMaterialivSGIX 00000001400a0018     GLEW_1130_DEBUG:glew.obj
 0003:0001b020       __glewVertexAttribI1i      00000001400a0020     GLEW_1130_DEBUG:glew.obj
 0003:0001b028       __glewCopyTextureImage2DEXT 00000001400a0028     GLEW_1130_DEBUG:glew.obj
 0003:0001b030       __glewFrameZoomSGIX        00000001400a0030     GLEW_1130_DEBUG:glew.obj
 0003:0001b038       __glewVertexAttribI1iv     00000001400a0038     GLEW_1130_DEBUG:glew.obj
 0003:0001b040       __glewCopyTextureSubImage1DEXT 00000001400a0040     GLEW_1130_DEBUG:glew.obj
 0003:0001b048       __glewPixelTexGenSGIX      00000001400a0048     GLEW_1130_DEBUG:glew.obj
 0003:0001b050       __glewVertexAttribI1ui     00000001400a0050     GLEW_1130_DEBUG:glew.obj
 0003:0001b058       __glewCopyTextureSubImage2DEXT 00000001400a0058     GLEW_1130_DEBUG:glew.obj
 0003:0001b060       __glewVertexAttribI1uiv    00000001400a0060     GLEW_1130_DEBUG:glew.obj
 0003:0001b068       __glewCopyTextureSubImage3DEXT 00000001400a0068     GLEW_1130_DEBUG:glew.obj
 0003:0001b070       __glewReferencePlaneSGIX   00000001400a0070     GLEW_1130_DEBUG:glew.obj
 0003:0001b078       __glewDisableClientStateIndexedEXT 00000001400a0078     GLEW_1130_DEBUG:glew.obj
 0003:0001b080       __glewSpriteParameterfSGIX 00000001400a0080     GLEW_1130_DEBUG:glew.obj
 0003:0001b088       __glewVertexAttribI2i      00000001400a0088     GLEW_1130_DEBUG:glew.obj
 0003:0001b090       __glewDisableClientStateiEXT 00000001400a0090     GLEW_1130_DEBUG:glew.obj
 0003:0001b098       __glewVertexAttribI2iv     00000001400a0098     GLEW_1130_DEBUG:glew.obj
 0003:0001b0a0       __glewSpriteParameterfvSGIX 00000001400a00a0     GLEW_1130_DEBUG:glew.obj
 0003:0001b0a8       __glewSpriteParameteriSGIX 00000001400a00a8     GLEW_1130_DEBUG:glew.obj
 0003:0001b0b0       __glewVertexAttribI2ui     00000001400a00b0     GLEW_1130_DEBUG:glew.obj
 0003:0001b0b8       __glewDisableVertexArrayAttribEXT 00000001400a00b8     GLEW_1130_DEBUG:glew.obj
 0003:0001b0c0       __glewSpriteParameterivSGIX 00000001400a00c0     GLEW_1130_DEBUG:glew.obj
 0003:0001b0c8       __glewVertexAttribI2uiv    00000001400a00c8     GLEW_1130_DEBUG:glew.obj
 0003:0001b0d0       __glewDisableVertexArrayEXT 00000001400a00d0     GLEW_1130_DEBUG:glew.obj
 0003:0001b0d8       __glewEnableClientStateIndexedEXT 00000001400a00d8     GLEW_1130_DEBUG:glew.obj
 0003:0001b0e0       __glewVertexAttribI3i      00000001400a00e0     GLEW_1130_DEBUG:glew.obj
 0003:0001b0e8       __glewTagSampleBufferSGIX  00000001400a00e8     GLEW_1130_DEBUG:glew.obj
 0003:0001b0f0       __glewVertexAttribI3iv     00000001400a00f0     GLEW_1130_DEBUG:glew.obj
 0003:0001b0f8       __glewColorTableParameterfvSGI 00000001400a00f8     GLEW_1130_DEBUG:glew.obj
 0003:0001b100       __glewEnableClientStateiEXT 00000001400a0100     GLEW_1130_DEBUG:glew.obj
 0003:0001b108       __glewEnableVertexArrayAttribEXT 00000001400a0108     GLEW_1130_DEBUG:glew.obj
 0003:0001b110       __glewVertexAttribI3ui     00000001400a0110     GLEW_1130_DEBUG:glew.obj
 0003:0001b118       __glewColorTableParameterivSGI 00000001400a0118     GLEW_1130_DEBUG:glew.obj
 0003:0001b120       __glewEnableVertexArrayEXT 00000001400a0120     GLEW_1130_DEBUG:glew.obj
 0003:0001b128       __glewColorTableSGI        00000001400a0128     GLEW_1130_DEBUG:glew.obj
 0003:0001b130       __glewVertexAttribI3uiv    00000001400a0130     GLEW_1130_DEBUG:glew.obj
 0003:0001b138       __glewCopyColorTableSGI    00000001400a0138     GLEW_1130_DEBUG:glew.obj
 0003:0001b140       __glewFlushMappedNamedBufferRangeEXT 00000001400a0140     GLEW_1130_DEBUG:glew.obj
 0003:0001b148       __glewVertexAttribI4bv     00000001400a0148     GLEW_1130_DEBUG:glew.obj
 0003:0001b150       __glewFramebufferDrawBufferEXT 00000001400a0150     GLEW_1130_DEBUG:glew.obj
 0003:0001b158       __glewVertexAttribI4i      00000001400a0158     GLEW_1130_DEBUG:glew.obj
 0003:0001b160       __glewGetColorTableParameterfvSGI 00000001400a0160     GLEW_1130_DEBUG:glew.obj
 0003:0001b168       __glewVertexAttribI4iv     00000001400a0168     GLEW_1130_DEBUG:glew.obj
 0003:0001b170       __glewGetColorTableParameterivSGI 00000001400a0170     GLEW_1130_DEBUG:glew.obj
 0003:0001b178       __glewFramebufferDrawBuffersEXT 00000001400a0178     GLEW_1130_DEBUG:glew.obj
 0003:0001b180       __glewFramebufferReadBufferEXT 00000001400a0180     GLEW_1130_DEBUG:glew.obj
 0003:0001b188       __glewVertexAttribI4sv     00000001400a0188     GLEW_1130_DEBUG:glew.obj
 0003:0001b190       __glewGetColorTableSGI     00000001400a0190     GLEW_1130_DEBUG:glew.obj
 0003:0001b198       __glewFinishTextureSUNX    00000001400a0198     GLEW_1130_DEBUG:glew.obj
 0003:0001b1a0       __glewGenerateMultiTexMipmapEXT 00000001400a01a0     GLEW_1130_DEBUG:glew.obj
 0003:0001b1a8       __glewVertexAttribI4ubv    00000001400a01a8     GLEW_1130_DEBUG:glew.obj
 0003:0001b1b0       __glewVertexAttribI4ui     00000001400a01b0     GLEW_1130_DEBUG:glew.obj
 0003:0001b1b8       __glewGenerateTextureMipmapEXT 00000001400a01b8     GLEW_1130_DEBUG:glew.obj
 0003:0001b1c0       __glewGlobalAlphaFactorbSUN 00000001400a01c0     GLEW_1130_DEBUG:glew.obj
 0003:0001b1c8       __glewVertexAttribI4uiv    00000001400a01c8     GLEW_1130_DEBUG:glew.obj
 0003:0001b1d0       __glewGlobalAlphaFactordSUN 00000001400a01d0     GLEW_1130_DEBUG:glew.obj
 0003:0001b1d8       __glewGetCompressedMultiTexImageEXT 00000001400a01d8     GLEW_1130_DEBUG:glew.obj
 0003:0001b1e0       __glewVertexAttribI4usv    00000001400a01e0     GLEW_1130_DEBUG:glew.obj
 0003:0001b1e8       __glewGlobalAlphaFactorfSUN 00000001400a01e8     GLEW_1130_DEBUG:glew.obj
 0003:0001b1f0       __glewGetCompressedTextureImageEXT 00000001400a01f0     GLEW_1130_DEBUG:glew.obj
 0003:0001b1f8       __glewGlobalAlphaFactoriSUN 00000001400a01f8     GLEW_1130_DEBUG:glew.obj
 0003:0001b200       __glewGetDoubleIndexedvEXT 00000001400a0200     GLEW_1130_DEBUG:glew.obj
 0003:0001b208       __glewVertexAttribIPointer 00000001400a0208     GLEW_1130_DEBUG:glew.obj
 0003:0001b210       __glewGlobalAlphaFactorsSUN 00000001400a0210     GLEW_1130_DEBUG:glew.obj
 0003:0001b218       __glewDrawArraysInstanced  00000001400a0218     GLEW_1130_DEBUG:glew.obj
 0003:0001b220       __glewGetDoublei_vEXT      00000001400a0220     GLEW_1130_DEBUG:glew.obj
 0003:0001b228       __glewDrawElementsInstanced 00000001400a0228     GLEW_1130_DEBUG:glew.obj
 0003:0001b230       __glewGetFloatIndexedvEXT  00000001400a0230     GLEW_1130_DEBUG:glew.obj
 0003:0001b238       __glewGlobalAlphaFactorubSUN 00000001400a0238     GLEW_1130_DEBUG:glew.obj
 0003:0001b240       __glewGetFloati_vEXT       00000001400a0240     GLEW_1130_DEBUG:glew.obj
 0003:0001b248       __glewGlobalAlphaFactoruiSUN 00000001400a0248     GLEW_1130_DEBUG:glew.obj
 0003:0001b250       __glewPrimitiveRestartIndex 00000001400a0250     GLEW_1130_DEBUG:glew.obj
 0003:0001b258       __glewGetFramebufferParameterivEXT 00000001400a0258     GLEW_1130_DEBUG:glew.obj
 0003:0001b260       __glewGlobalAlphaFactorusSUN 00000001400a0260     GLEW_1130_DEBUG:glew.obj
 0003:0001b268       __glewTexBuffer            00000001400a0268     GLEW_1130_DEBUG:glew.obj
 0003:0001b270       __glewFramebufferTexture   00000001400a0270     GLEW_1130_DEBUG:glew.obj
 0003:0001b278       __glewGetMultiTexEnvfvEXT  00000001400a0278     GLEW_1130_DEBUG:glew.obj
 0003:0001b280       __glewReadVideoPixelsSUN   00000001400a0280     GLEW_1130_DEBUG:glew.obj
 0003:0001b288       __glewReplacementCodePointerSUN 00000001400a0288     GLEW_1130_DEBUG:glew.obj
 0003:0001b290       __glewGetMultiTexEnvivEXT  00000001400a0290     GLEW_1130_DEBUG:glew.obj
 0003:0001b298       __glewGetBufferParameteri64v 00000001400a0298     GLEW_1130_DEBUG:glew.obj
 0003:0001b2a0       __glewGetInteger64i_v      00000001400a02a0     GLEW_1130_DEBUG:glew.obj
 0003:0001b2a8       __glewGetMultiTexGendvEXT  00000001400a02a8     GLEW_1130_DEBUG:glew.obj
 0003:0001b2b0       __glewReplacementCodeubSUN 00000001400a02b0     GLEW_1130_DEBUG:glew.obj
 0003:0001b2b8       __glewGetMultiTexGenfvEXT  00000001400a02b8     GLEW_1130_DEBUG:glew.obj
 0003:0001b2c0       __glewReplacementCodeubvSUN 00000001400a02c0     GLEW_1130_DEBUG:glew.obj
 0003:0001b2c8       __glewVertexAttribDivisor  00000001400a02c8     GLEW_1130_DEBUG:glew.obj
 0003:0001b2d0       __glewBlendEquationSeparatei 00000001400a02d0     GLEW_1130_DEBUG:glew.obj
 0003:0001b2d8       __glewGetMultiTexGenivEXT  00000001400a02d8     GLEW_1130_DEBUG:glew.obj
 0003:0001b2e0       __glewReplacementCodeuiSUN 00000001400a02e0     GLEW_1130_DEBUG:glew.obj
 0003:0001b2e8       __glewGetMultiTexImageEXT  00000001400a02e8     GLEW_1130_DEBUG:glew.obj
 0003:0001b2f0       __glewBlendEquationi       00000001400a02f0     GLEW_1130_DEBUG:glew.obj
 0003:0001b2f8       __glewReplacementCodeuivSUN 00000001400a02f8     GLEW_1130_DEBUG:glew.obj
 0003:0001b300       __glewReplacementCodeusSUN 00000001400a0300     GLEW_1130_DEBUG:glew.obj
 0003:0001b308       __glewBlendFuncSeparatei   00000001400a0308     GLEW_1130_DEBUG:glew.obj
 0003:0001b310       __glewGetMultiTexLevelParameterfvEXT 00000001400a0310     GLEW_1130_DEBUG:glew.obj
 0003:0001b318       __glewReplacementCodeusvSUN 00000001400a0318     GLEW_1130_DEBUG:glew.obj
 0003:0001b320       __glewGetMultiTexLevelParameterivEXT 00000001400a0320     GLEW_1130_DEBUG:glew.obj
 0003:0001b328       __glewBlendFunci           00000001400a0328     GLEW_1130_DEBUG:glew.obj
 0003:0001b330       __glewMinSampleShading     00000001400a0330     GLEW_1130_DEBUG:glew.obj
 0003:0001b338       __glewColor3fVertex3fSUN   00000001400a0338     GLEW_1130_DEBUG:glew.obj
 0003:0001b340       __glewGetMultiTexParameterIivEXT 00000001400a0340     GLEW_1130_DEBUG:glew.obj
 0003:0001b348       __glewGetMultiTexParameterIuivEXT 00000001400a0348     GLEW_1130_DEBUG:glew.obj
 0003:0001b350       __glewColor3fVertex3fvSUN  00000001400a0350     GLEW_1130_DEBUG:glew.obj
 0003:0001b358       __glewGetGraphicsResetStatus 00000001400a0358     GLEW_1130_DEBUG:glew.obj
 0003:0001b360       __glewGetMultiTexParameterfvEXT 00000001400a0360     GLEW_1130_DEBUG:glew.obj
 0003:0001b368       __glewGetnCompressedTexImage 00000001400a0368     GLEW_1130_DEBUG:glew.obj
 0003:0001b370       __glewColor4fNormal3fVertex3fSUN 00000001400a0370     GLEW_1130_DEBUG:glew.obj
 0003:0001b378       __glewGetMultiTexParameterivEXT 00000001400a0378     GLEW_1130_DEBUG:glew.obj
 0003:0001b380       __glewGetnTexImage         00000001400a0380     GLEW_1130_DEBUG:glew.obj
 0003:0001b388       __glewColor4fNormal3fVertex3fvSUN 00000001400a0388     GLEW_1130_DEBUG:glew.obj
 0003:0001b390       __glewColor4ubVertex2fSUN  00000001400a0390     GLEW_1130_DEBUG:glew.obj
 0003:0001b398       __glewGetNamedBufferParameterivEXT 00000001400a0398     GLEW_1130_DEBUG:glew.obj
 0003:0001b3a0       __glewGetnUniformdv        00000001400a03a0     GLEW_1130_DEBUG:glew.obj
 0003:0001b3a8       __glewColor4ubVertex2fvSUN 00000001400a03a8     GLEW_1130_DEBUG:glew.obj
 0003:0001b3b0       __glewTbufferMask3DFX      00000001400a03b0     GLEW_1130_DEBUG:glew.obj
 0003:0001b3b8       __glewGetNamedBufferPointervEXT 00000001400a03b8     GLEW_1130_DEBUG:glew.obj
 0003:0001b3c0       __glewGetNamedBufferSubDataEXT 00000001400a03c0     GLEW_1130_DEBUG:glew.obj
 0003:0001b3c8       __glewDebugMessageCallbackAMD 00000001400a03c8     GLEW_1130_DEBUG:glew.obj
 0003:0001b3d0       __glewColor4ubVertex3fSUN  00000001400a03d0     GLEW_1130_DEBUG:glew.obj
 0003:0001b3d8       __glewColor4ubVertex3fvSUN 00000001400a03d8     GLEW_1130_DEBUG:glew.obj
 0003:0001b3e0       __glewDebugMessageEnableAMD 00000001400a03e0     GLEW_1130_DEBUG:glew.obj
 0003:0001b3e8       __glewGetNamedFramebufferAttachmentParameterivEXT 00000001400a03e8     GLEW_1130_DEBUG:glew.obj
 0003:0001b3f0       __glewNormal3fVertex3fSUN  00000001400a03f0     GLEW_1130_DEBUG:glew.obj
 0003:0001b3f8       __glewDebugMessageInsertAMD 00000001400a03f8     GLEW_1130_DEBUG:glew.obj
 0003:0001b400       __glewGetNamedProgramLocalParameterIivEXT 00000001400a0400     GLEW_1130_DEBUG:glew.obj
 0003:0001b408       __glewNormal3fVertex3fvSUN 00000001400a0408     GLEW_1130_DEBUG:glew.obj
 0003:0001b410       __glewGetNamedProgramLocalParameterIuivEXT 00000001400a0410     GLEW_1130_DEBUG:glew.obj
 0003:0001b418       __glewGetDebugMessageLogAMD 00000001400a0418     GLEW_1130_DEBUG:glew.obj
 0003:0001b420       __glewReplacementCodeuiColor3fVertex3fSUN 00000001400a0420     GLEW_1130_DEBUG:glew.obj
 0003:0001b428       __glewBlendEquationIndexedAMD 00000001400a0428     GLEW_1130_DEBUG:glew.obj
 0003:0001b430       __glewGetNamedProgramLocalParameterdvEXT 00000001400a0430     GLEW_1130_DEBUG:glew.obj
 0003:0001b438       __glewBlendEquationSeparateIndexedAMD 00000001400a0438     GLEW_1130_DEBUG:glew.obj
 0003:0001b440       __glewReplacementCodeuiColor3fVertex3fvSUN 00000001400a0440     GLEW_1130_DEBUG:glew.obj
 0003:0001b448       __glewGetNamedProgramLocalParameterfvEXT 00000001400a0448     GLEW_1130_DEBUG:glew.obj
 0003:0001b450       __glewGetNamedProgramStringEXT 00000001400a0450     GLEW_1130_DEBUG:glew.obj
 0003:0001b458       __glewReplacementCodeuiColor4fNormal3fVertex3fSUN 00000001400a0458     GLEW_1130_DEBUG:glew.obj
 0003:0001b460       __glewBlendFuncIndexedAMD  00000001400a0460     GLEW_1130_DEBUG:glew.obj
 0003:0001b468       __glewReplacementCodeuiColor4fNormal3fVertex3fvSUN 00000001400a0468     GLEW_1130_DEBUG:glew.obj
 0003:0001b470       __glewBlendFuncSeparateIndexedAMD 00000001400a0470     GLEW_1130_DEBUG:glew.obj
 0003:0001b478       __glewGetNamedProgramivEXT 00000001400a0478     GLEW_1130_DEBUG:glew.obj
 0003:0001b480       __glewReplacementCodeuiColor4ubVertex3fSUN 00000001400a0480     GLEW_1130_DEBUG:glew.obj
 0003:0001b488       __glewVertexAttribParameteriAMD 00000001400a0488     GLEW_1130_DEBUG:glew.obj
 0003:0001b490       __glewGetNamedRenderbufferParameterivEXT 00000001400a0490     GLEW_1130_DEBUG:glew.obj
 0003:0001b498       __glewReplacementCodeuiColor4ubVertex3fvSUN 00000001400a0498     GLEW_1130_DEBUG:glew.obj
 0003:0001b4a0       __glewMultiDrawArraysIndirectAMD 00000001400a04a0     GLEW_1130_DEBUG:glew.obj
 0003:0001b4a8       __glewGetPointerIndexedvEXT 00000001400a04a8     GLEW_1130_DEBUG:glew.obj
 0003:0001b4b0       __glewGetPointeri_vEXT     00000001400a04b0     GLEW_1130_DEBUG:glew.obj
 0003:0001b4b8       __glewMultiDrawElementsIndirectAMD 00000001400a04b8     GLEW_1130_DEBUG:glew.obj
 0003:0001b4c0       __glewReplacementCodeuiNormal3fVertex3fSUN 00000001400a04c0     GLEW_1130_DEBUG:glew.obj
 0003:0001b4c8       __glewGetTextureImageEXT   00000001400a04c8     GLEW_1130_DEBUG:glew.obj
 0003:0001b4d0       __glewDeleteNamesAMD       00000001400a04d0     GLEW_1130_DEBUG:glew.obj
 0003:0001b4d8       __glewReplacementCodeuiNormal3fVertex3fvSUN 00000001400a04d8     GLEW_1130_DEBUG:glew.obj
 0003:0001b4e0       __glewGenNamesAMD          00000001400a04e0     GLEW_1130_DEBUG:glew.obj
 0003:0001b4e8       __glewGetTextureLevelParameterfvEXT 00000001400a04e8     GLEW_1130_DEBUG:glew.obj
 0003:0001b4f0       __glewReplacementCodeuiTexCoord2fColor4fNormal3fVertex3fSUN 00000001400a04f0     GLEW_1130_DEBUG:glew.obj
 0003:0001b4f8       __glewIsNameAMD            00000001400a04f8     GLEW_1130_DEBUG:glew.obj
 0003:0001b500       __glewGetTextureLevelParameterivEXT 00000001400a0500     GLEW_1130_DEBUG:glew.obj
 0003:0001b508       __glewReplacementCodeuiTexCoord2fColor4fNormal3fVertex3fvSUN 00000001400a0508     GLEW_1130_DEBUG:glew.obj
 0003:0001b510       __glewGetTextureParameterIivEXT 00000001400a0510     GLEW_1130_DEBUG:glew.obj
 0003:0001b518       __glewQueryObjectParameteruiAMD 00000001400a0518     GLEW_1130_DEBUG:glew.obj
 0003:0001b520       __glewReplacementCodeuiTexCoord2fNormal3fVertex3fSUN 00000001400a0520     GLEW_1130_DEBUG:glew.obj
 0003:0001b528       __glewGetTextureParameterIuivEXT 00000001400a0528     GLEW_1130_DEBUG:glew.obj
 0003:0001b530       __glewReplacementCodeuiTexCoord2fNormal3fVertex3fvSUN 00000001400a0530     GLEW_1130_DEBUG:glew.obj
 0003:0001b538       __glewBeginPerfMonitorAMD  00000001400a0538     GLEW_1130_DEBUG:glew.obj
 0003:0001b540       __glewGetTextureParameterfvEXT 00000001400a0540     GLEW_1130_DEBUG:glew.obj
 0003:0001b548       __glewDeletePerfMonitorsAMD 00000001400a0548     GLEW_1130_DEBUG:glew.obj
 0003:0001b550       __glewReplacementCodeuiTexCoord2fVertex3fSUN 00000001400a0550     GLEW_1130_DEBUG:glew.obj
 0003:0001b558       __glewEndPerfMonitorAMD    00000001400a0558     GLEW_1130_DEBUG:glew.obj
 0003:0001b560       __glewGetTextureParameterivEXT 00000001400a0560     GLEW_1130_DEBUG:glew.obj
 0003:0001b568       __glewReplacementCodeuiTexCoord2fVertex3fvSUN 00000001400a0568     GLEW_1130_DEBUG:glew.obj
 0003:0001b570       __glewGenPerfMonitorsAMD   00000001400a0570     GLEW_1130_DEBUG:glew.obj
 0003:0001b578       __glewGetVertexArrayIntegeri_vEXT 00000001400a0578     GLEW_1130_DEBUG:glew.obj
 0003:0001b580       __glewReplacementCodeuiVertex3fSUN 00000001400a0580     GLEW_1130_DEBUG:glew.obj
 0003:0001b588       __glewGetPerfMonitorCounterDataAMD 00000001400a0588     GLEW_1130_DEBUG:glew.obj
 0003:0001b590       __glewGetVertexArrayIntegervEXT 00000001400a0590     GLEW_1130_DEBUG:glew.obj
 0003:0001b598       __glewReplacementCodeuiVertex3fvSUN 00000001400a0598     GLEW_1130_DEBUG:glew.obj
 0003:0001b5a0       __glewGetVertexArrayPointeri_vEXT 00000001400a05a0     GLEW_1130_DEBUG:glew.obj
 0003:0001b5a8       __glewGetPerfMonitorCounterInfoAMD 00000001400a05a8     GLEW_1130_DEBUG:glew.obj
 0003:0001b5b0       __glewTexCoord2fColor3fVertex3fSUN 00000001400a05b0     GLEW_1130_DEBUG:glew.obj
 0003:0001b5b8       __glewGetVertexArrayPointervEXT 00000001400a05b8     GLEW_1130_DEBUG:glew.obj
 0003:0001b5c0       __glewGetPerfMonitorCounterStringAMD 00000001400a05c0     GLEW_1130_DEBUG:glew.obj
 0003:0001b5c8       __glewTexCoord2fColor3fVertex3fvSUN 00000001400a05c8     GLEW_1130_DEBUG:glew.obj
 0003:0001b5d0       __glewMapNamedBufferEXT    00000001400a05d0     GLEW_1130_DEBUG:glew.obj
 0003:0001b5d8       __glewTexCoord2fColor4fNormal3fVertex3fSUN 00000001400a05d8     GLEW_1130_DEBUG:glew.obj
 0003:0001b5e0       __glewGetPerfMonitorCountersAMD 00000001400a05e0     GLEW_1130_DEBUG:glew.obj
 0003:0001b5e8       __glewGetPerfMonitorGroupStringAMD 00000001400a05e8     GLEW_1130_DEBUG:glew.obj
 0003:0001b5f0       __glewTexCoord2fColor4fNormal3fVertex3fvSUN 00000001400a05f0     GLEW_1130_DEBUG:glew.obj
 0003:0001b5f8       __glewMapNamedBufferRangeEXT 00000001400a05f8     GLEW_1130_DEBUG:glew.obj
 0003:0001b600       __glewGetPerfMonitorGroupsAMD 00000001400a0600     GLEW_1130_DEBUG:glew.obj
 0003:0001b608       __glewTexCoord2fColor4ubVertex3fSUN 00000001400a0608     GLEW_1130_DEBUG:glew.obj
 0003:0001b610       __glewMatrixFrustumEXT     00000001400a0610     GLEW_1130_DEBUG:glew.obj
 0003:0001b618       __glewSelectPerfMonitorCountersAMD 00000001400a0618     GLEW_1130_DEBUG:glew.obj
 0003:0001b620       __glewMatrixLoadIdentityEXT 00000001400a0620     GLEW_1130_DEBUG:glew.obj
 0003:0001b628       __glewTexCoord2fColor4ubVertex3fvSUN 00000001400a0628     GLEW_1130_DEBUG:glew.obj
 0003:0001b630       __glewSetMultisamplefvAMD  00000001400a0630     GLEW_1130_DEBUG:glew.obj
 0003:0001b638       __glewMatrixLoadTransposedEXT 00000001400a0638     GLEW_1130_DEBUG:glew.obj
 0003:0001b640       __glewTexCoord2fNormal3fVertex3fSUN 00000001400a0640     GLEW_1130_DEBUG:glew.obj
 0003:0001b648       __glewMatrixLoadTransposefEXT 00000001400a0648     GLEW_1130_DEBUG:glew.obj
 0003:0001b650       __glewTexCoord2fNormal3fVertex3fvSUN 00000001400a0650     GLEW_1130_DEBUG:glew.obj
 0003:0001b658       __glewTexStorageSparseAMD  00000001400a0658     GLEW_1130_DEBUG:glew.obj
 0003:0001b660       __glewTextureStorageSparseAMD 00000001400a0660     GLEW_1130_DEBUG:glew.obj
 0003:0001b668       __glewTexCoord2fVertex3fSUN 00000001400a0668     GLEW_1130_DEBUG:glew.obj
 0003:0001b670       __glewMatrixLoaddEXT       00000001400a0670     GLEW_1130_DEBUG:glew.obj
 0003:0001b678       __glewStencilOpValueAMD    00000001400a0678     GLEW_1130_DEBUG:glew.obj
 0003:0001b680       __glewTexCoord2fVertex3fvSUN 00000001400a0680     GLEW_1130_DEBUG:glew.obj
 0003:0001b688       __glewMatrixLoadfEXT       00000001400a0688     GLEW_1130_DEBUG:glew.obj
 0003:0001b690       __glewTessellationFactorAMD 00000001400a0690     GLEW_1130_DEBUG:glew.obj
 0003:0001b698       __glewTexCoord4fColor4fNormal3fVertex4fSUN 00000001400a0698     GLEW_1130_DEBUG:glew.obj
 0003:0001b6a0       __glewMatrixMultTransposedEXT 00000001400a06a0     GLEW_1130_DEBUG:glew.obj
 0003:0001b6a8       __glewTexCoord4fColor4fNormal3fVertex4fvSUN 00000001400a06a8     GLEW_1130_DEBUG:glew.obj
 0003:0001b6b0       __glewTessellationModeAMD  00000001400a06b0     GLEW_1130_DEBUG:glew.obj
 0003:0001b6b8       __glewMatrixMultTransposefEXT 00000001400a06b8     GLEW_1130_DEBUG:glew.obj
 0003:0001b6c0       __glewMatrixMultdEXT       00000001400a06c0     GLEW_1130_DEBUG:glew.obj
 0003:0001b6c8       __glewTexCoord4fVertex4fSUN 00000001400a06c8     GLEW_1130_DEBUG:glew.obj
 0003:0001b6d0       __glewBlitFramebufferANGLE 00000001400a06d0     GLEW_1130_DEBUG:glew.obj
 0003:0001b6d8       __glewTexCoord4fVertex4fvSUN 00000001400a06d8     GLEW_1130_DEBUG:glew.obj
 0003:0001b6e0       __glewMatrixMultfEXT       00000001400a06e0     GLEW_1130_DEBUG:glew.obj
 0003:0001b6e8       __glewRenderbufferStorageMultisampleANGLE 00000001400a06e8     GLEW_1130_DEBUG:glew.obj
 0003:0001b6f0       __glewAddSwapHintRectWIN   00000001400a06f0     GLEW_1130_DEBUG:glew.obj
 0003:0001b6f8       __glewDrawArraysInstancedANGLE 00000001400a06f8     GLEW_1130_DEBUG:glew.obj
 0003:0001b700       __glewMatrixOrthoEXT       00000001400a0700     GLEW_1130_DEBUG:glew.obj
 0003:0001b708       __glewMatrixPopEXT         00000001400a0708     GLEW_1130_DEBUG:glew.obj
 0003:0001b710       __glewDrawElementsInstancedANGLE 00000001400a0710     GLEW_1130_DEBUG:glew.obj
 0003:0001b718       __GLEW_VERSION_1_1         00000001400a0718     GLEW_1130_DEBUG:glew.obj
 0003:0001b719       __GLEW_VERSION_1_2         00000001400a0719     GLEW_1130_DEBUG:glew.obj
 0003:0001b71a       __GLEW_VERSION_1_2_1       00000001400a071a     GLEW_1130_DEBUG:glew.obj
 0003:0001b71b       __GLEW_VERSION_1_3         00000001400a071b     GLEW_1130_DEBUG:glew.obj
 0003:0001b71c       __GLEW_VERSION_1_4         00000001400a071c     GLEW_1130_DEBUG:glew.obj
 0003:0001b71d       __GLEW_VERSION_1_5         00000001400a071d     GLEW_1130_DEBUG:glew.obj
 0003:0001b71e       __GLEW_VERSION_2_0         00000001400a071e     GLEW_1130_DEBUG:glew.obj
 0003:0001b71f       __GLEW_VERSION_2_1         00000001400a071f     GLEW_1130_DEBUG:glew.obj
 0003:0001b720       __glewMatrixPushEXT        00000001400a0720     GLEW_1130_DEBUG:glew.obj
 0003:0001b728       __glewVertexAttribDivisorANGLE 00000001400a0728     GLEW_1130_DEBUG:glew.obj
 0003:0001b730       __glewBeginQueryANGLE      00000001400a0730     GLEW_1130_DEBUG:glew.obj
 0003:0001b738       __glewMatrixRotatedEXT     00000001400a0738     GLEW_1130_DEBUG:glew.obj
 0003:0001b740       __glewDeleteQueriesANGLE   00000001400a0740     GLEW_1130_DEBUG:glew.obj
 0003:0001b748       __glewMatrixRotatefEXT     00000001400a0748     GLEW_1130_DEBUG:glew.obj
 0003:0001b750       __glewMatrixScaledEXT      00000001400a0750     GLEW_1130_DEBUG:glew.obj
 0003:0001b758       __glewEndQueryANGLE        00000001400a0758     GLEW_1130_DEBUG:glew.obj
 0003:0001b760       __glewMatrixScalefEXT      00000001400a0760     GLEW_1130_DEBUG:glew.obj
 0003:0001b768       __glewGenQueriesANGLE      00000001400a0768     GLEW_1130_DEBUG:glew.obj
 0003:0001b770       __glewGetQueryObjecti64vANGLE 00000001400a0770     GLEW_1130_DEBUG:glew.obj
 0003:0001b778       __glewMatrixTranslatedEXT  00000001400a0778     GLEW_1130_DEBUG:glew.obj
 0003:0001b780       __glewMatrixTranslatefEXT  00000001400a0780     GLEW_1130_DEBUG:glew.obj
 0003:0001b788       __glewGetQueryObjectivANGLE 00000001400a0788     GLEW_1130_DEBUG:glew.obj
 0003:0001b790       __glewGetQueryObjectui64vANGLE 00000001400a0790     GLEW_1130_DEBUG:glew.obj
 0003:0001b798       __glewMultiTexBufferEXT    00000001400a0798     GLEW_1130_DEBUG:glew.obj
 0003:0001b7a0       __GLEW_VERSION_3_0         00000001400a07a0     GLEW_1130_DEBUG:glew.obj
 0003:0001b7a1       __GLEW_VERSION_3_1         00000001400a07a1     GLEW_1130_DEBUG:glew.obj
 0003:0001b7a2       __GLEW_VERSION_3_2         00000001400a07a2     GLEW_1130_DEBUG:glew.obj
 0003:0001b7a3       __GLEW_VERSION_3_3         00000001400a07a3     GLEW_1130_DEBUG:glew.obj
 0003:0001b7a4       __GLEW_VERSION_4_0         00000001400a07a4     GLEW_1130_DEBUG:glew.obj
 0003:0001b7a5       __GLEW_VERSION_4_1         00000001400a07a5     GLEW_1130_DEBUG:glew.obj
 0003:0001b7a6       __GLEW_VERSION_4_2         00000001400a07a6     GLEW_1130_DEBUG:glew.obj
 0003:0001b7a7       __GLEW_VERSION_4_3         00000001400a07a7     GLEW_1130_DEBUG:glew.obj
 0003:0001b7a8       __glewMultiTexCoordPointerEXT 00000001400a07a8     GLEW_1130_DEBUG:glew.obj
 0003:0001b7b0       __glewGetQueryObjectuivANGLE 00000001400a07b0     GLEW_1130_DEBUG:glew.obj
 0003:0001b7b8       __glewMultiTexEnvfEXT      00000001400a07b8     GLEW_1130_DEBUG:glew.obj
 0003:0001b7c0       __glewGetQueryivANGLE      00000001400a07c0     GLEW_1130_DEBUG:glew.obj
 0003:0001b7c8       __glewIsQueryANGLE         00000001400a07c8     GLEW_1130_DEBUG:glew.obj
 0003:0001b7d0       __glewMultiTexEnvfvEXT     00000001400a07d0     GLEW_1130_DEBUG:glew.obj
 0003:0001b7d8       __glewMultiTexEnviEXT      00000001400a07d8     GLEW_1130_DEBUG:glew.obj
 0003:0001b7e0       __glewQueryCounterANGLE    00000001400a07e0     GLEW_1130_DEBUG:glew.obj
 0003:0001b7e8       __glewMultiTexEnvivEXT     00000001400a07e8     GLEW_1130_DEBUG:glew.obj
 0003:0001b7f0       __glewGetTranslatedShaderSourceANGLE 00000001400a07f0     GLEW_1130_DEBUG:glew.obj
 0003:0001b7f8       __glewMultiTexGendEXT      00000001400a07f8     GLEW_1130_DEBUG:glew.obj
 0003:0001b800       __glewDrawElementArrayAPPLE 00000001400a0800     GLEW_1130_DEBUG:glew.obj
 0003:0001b808       __glewMultiTexGendvEXT     00000001400a0808     GLEW_1130_DEBUG:glew.obj
 0003:0001b810       __glewDrawRangeElementArrayAPPLE 00000001400a0810     GLEW_1130_DEBUG:glew.obj
 0003:0001b818       __glewElementPointerAPPLE  00000001400a0818     GLEW_1130_DEBUG:glew.obj
 0003:0001b820       __GLEW_VERSION_4_4         00000001400a0820     GLEW_1130_DEBUG:glew.obj
 0003:0001b821       __GLEW_VERSION_4_5         00000001400a0821     GLEW_1130_DEBUG:glew.obj
 0003:0001b822       __GLEW_3DFX_multisample    00000001400a0822     GLEW_1130_DEBUG:glew.obj
 0003:0001b823       __GLEW_3DFX_tbuffer        00000001400a0823     GLEW_1130_DEBUG:glew.obj
 0003:0001b824       __GLEW_3DFX_texture_compression_FXT1 00000001400a0824     GLEW_1130_DEBUG:glew.obj
 0003:0001b825       __GLEW_AMD_blend_minmax_factor 00000001400a0825     GLEW_1130_DEBUG:glew.obj
 0003:0001b826       __GLEW_AMD_conservative_depth 00000001400a0826     GLEW_1130_DEBUG:glew.obj
 0003:0001b827       __GLEW_AMD_debug_output    00000001400a0827     GLEW_1130_DEBUG:glew.obj
 0003:0001b828       __glewMultiTexGenfEXT      00000001400a0828     GLEW_1130_DEBUG:glew.obj
 0003:0001b830       __glewMultiTexGenfvEXT     00000001400a0830     GLEW_1130_DEBUG:glew.obj
 0003:0001b838       __glewMultiDrawElementArrayAPPLE 00000001400a0838     GLEW_1130_DEBUG:glew.obj
 0003:0001b840       __glewMultiDrawRangeElementArrayAPPLE 00000001400a0840     GLEW_1130_DEBUG:glew.obj
 0003:0001b848       __glewMultiTexGeniEXT      00000001400a0848     GLEW_1130_DEBUG:glew.obj
 0003:0001b850       __glewDeleteFencesAPPLE    00000001400a0850     GLEW_1130_DEBUG:glew.obj
 0003:0001b858       __glewMultiTexGenivEXT     00000001400a0858     GLEW_1130_DEBUG:glew.obj
 0003:0001b860       __glewFinishFenceAPPLE     00000001400a0860     GLEW_1130_DEBUG:glew.obj
 0003:0001b868       __glewMultiTexImage1DEXT   00000001400a0868     GLEW_1130_DEBUG:glew.obj
 0003:0001b870       __glewMultiTexImage2DEXT   00000001400a0870     GLEW_1130_DEBUG:glew.obj
 0003:0001b878       __glewFinishObjectAPPLE    00000001400a0878     GLEW_1130_DEBUG:glew.obj
 0003:0001b880       __glewGenFencesAPPLE       00000001400a0880     GLEW_1130_DEBUG:glew.obj
 0003:0001b888       __glewMultiTexImage3DEXT   00000001400a0888     GLEW_1130_DEBUG:glew.obj
 0003:0001b890       __glewMultiTexParameterIivEXT 00000001400a0890     GLEW_1130_DEBUG:glew.obj
 0003:0001b898       __glewIsFenceAPPLE         00000001400a0898     GLEW_1130_DEBUG:glew.obj
 0003:0001b8a0       __glewSetFenceAPPLE        00000001400a08a0     GLEW_1130_DEBUG:glew.obj
 0003:0001b8a8       __GLEW_AMD_depth_clamp_separate 00000001400a08a8     GLEW_1130_DEBUG:glew.obj
 0003:0001b8a9       __GLEW_AMD_draw_buffers_blend 00000001400a08a9     GLEW_1130_DEBUG:glew.obj
 0003:0001b8aa       __GLEW_AMD_gcn_shader      00000001400a08aa     GLEW_1130_DEBUG:glew.obj
 0003:0001b8ab       __GLEW_AMD_gpu_shader_int64 00000001400a08ab     GLEW_1130_DEBUG:glew.obj
 0003:0001b8ac       __GLEW_AMD_interleaved_elements 00000001400a08ac     GLEW_1130_DEBUG:glew.obj
 0003:0001b8ad       __GLEW_AMD_multi_draw_indirect 00000001400a08ad     GLEW_1130_DEBUG:glew.obj
 0003:0001b8ae       __GLEW_AMD_name_gen_delete 00000001400a08ae     GLEW_1130_DEBUG:glew.obj
 0003:0001b8af       __GLEW_AMD_occlusion_query_event 00000001400a08af     GLEW_1130_DEBUG:glew.obj
 0003:0001b8b0       __glewMultiTexParameterIuivEXT 00000001400a08b0     GLEW_1130_DEBUG:glew.obj
 0003:0001b8b8       __glewTestFenceAPPLE       00000001400a08b8     GLEW_1130_DEBUG:glew.obj
 0003:0001b8c0       __glewMultiTexParameterfEXT 00000001400a08c0     GLEW_1130_DEBUG:glew.obj
 0003:0001b8c8       __glewMultiTexParameterfvEXT 00000001400a08c8     GLEW_1130_DEBUG:glew.obj
 0003:0001b8d0       __glewTestObjectAPPLE      00000001400a08d0     GLEW_1130_DEBUG:glew.obj
 0003:0001b8d8       __glewBufferParameteriAPPLE 00000001400a08d8     GLEW_1130_DEBUG:glew.obj
 0003:0001b8e0       __glewMultiTexParameteriEXT 00000001400a08e0     GLEW_1130_DEBUG:glew.obj
 0003:0001b8e8       __glewFlushMappedBufferRangeAPPLE 00000001400a08e8     GLEW_1130_DEBUG:glew.obj
 0003:0001b8f0       __glewMultiTexParameterivEXT 00000001400a08f0     GLEW_1130_DEBUG:glew.obj
 0003:0001b8f8       __glewGetObjectParameterivAPPLE 00000001400a08f8     GLEW_1130_DEBUG:glew.obj
 0003:0001b900       __glewMultiTexRenderbufferEXT 00000001400a0900     GLEW_1130_DEBUG:glew.obj
 0003:0001b908       __glewMultiTexSubImage1DEXT 00000001400a0908     GLEW_1130_DEBUG:glew.obj
 0003:0001b910       __glewObjectPurgeableAPPLE 00000001400a0910     GLEW_1130_DEBUG:glew.obj
 0003:0001b918       __glewMultiTexSubImage2DEXT 00000001400a0918     GLEW_1130_DEBUG:glew.obj
 0003:0001b920       __glewObjectUnpurgeableAPPLE 00000001400a0920     GLEW_1130_DEBUG:glew.obj
 0003:0001b928       __glewGetTexParameterPointervAPPLE 00000001400a0928     GLEW_1130_DEBUG:glew.obj
 0003:0001b930       __GLEW_AMD_performance_monitor 00000001400a0930     GLEW_1130_DEBUG:glew.obj
 0003:0001b931       __GLEW_AMD_pinned_memory   00000001400a0931     GLEW_1130_DEBUG:glew.obj
 0003:0001b932       __GLEW_AMD_query_buffer_object 00000001400a0932     GLEW_1130_DEBUG:glew.obj
 0003:0001b933       __GLEW_AMD_sample_positions 00000001400a0933     GLEW_1130_DEBUG:glew.obj
 0003:0001b934       __GLEW_AMD_seamless_cubemap_per_texture 00000001400a0934     GLEW_1130_DEBUG:glew.obj
 0003:0001b935       __GLEW_AMD_shader_atomic_counter_ops 00000001400a0935     GLEW_1130_DEBUG:glew.obj
 0003:0001b936       __GLEW_AMD_shader_stencil_export 00000001400a0936     GLEW_1130_DEBUG:glew.obj
 0003:0001b937       __GLEW_AMD_shader_stencil_value_export 00000001400a0937     GLEW_1130_DEBUG:glew.obj
 0003:0001b938       __glewMultiTexSubImage3DEXT 00000001400a0938     GLEW_1130_DEBUG:glew.obj
 0003:0001b940       __glewTextureRangeAPPLE    00000001400a0940     GLEW_1130_DEBUG:glew.obj
 0003:0001b948       __glewNamedBufferDataEXT   00000001400a0948     GLEW_1130_DEBUG:glew.obj
 0003:0001b950       __glewNamedBufferSubDataEXT 00000001400a0950     GLEW_1130_DEBUG:glew.obj
 0003:0001b958       __glewBindVertexArrayAPPLE 00000001400a0958     GLEW_1130_DEBUG:glew.obj
 0003:0001b960       __glewNamedCopyBufferSubDataEXT 00000001400a0960     GLEW_1130_DEBUG:glew.obj
 0003:0001b968       __glewDeleteVertexArraysAPPLE 00000001400a0968     GLEW_1130_DEBUG:glew.obj
 0003:0001b970       __glewGenVertexArraysAPPLE 00000001400a0970     GLEW_1130_DEBUG:glew.obj
 0003:0001b978       __glewNamedFramebufferRenderbufferEXT 00000001400a0978     GLEW_1130_DEBUG:glew.obj
 0003:0001b980       __glewNamedFramebufferTexture1DEXT 00000001400a0980     GLEW_1130_DEBUG:glew.obj
 0003:0001b988       __glewIsVertexArrayAPPLE   00000001400a0988     GLEW_1130_DEBUG:glew.obj
 0003:0001b990       __glewNamedFramebufferTexture2DEXT 00000001400a0990     GLEW_1130_DEBUG:glew.obj
 0003:0001b998       __glewFlushVertexArrayRangeAPPLE 00000001400a0998     GLEW_1130_DEBUG:glew.obj
 0003:0001b9a0       __glewVertexArrayParameteriAPPLE 00000001400a09a0     GLEW_1130_DEBUG:glew.obj
 0003:0001b9a8       __glewNamedFramebufferTexture3DEXT 00000001400a09a8     GLEW_1130_DEBUG:glew.obj
 0003:0001b9b0       __glewNamedFramebufferTextureEXT 00000001400a09b0     GLEW_1130_DEBUG:glew.obj
 0003:0001b9b8       __GLEW_AMD_shader_trinary_minmax 00000001400a09b8     GLEW_1130_DEBUG:glew.obj
 0003:0001b9b9       __GLEW_AMD_sparse_texture  00000001400a09b9     GLEW_1130_DEBUG:glew.obj
 0003:0001b9ba       __GLEW_AMD_stencil_operation_extended 00000001400a09ba     GLEW_1130_DEBUG:glew.obj
 0003:0001b9bb       __GLEW_AMD_texture_texture4 00000001400a09bb     GLEW_1130_DEBUG:glew.obj
 0003:0001b9bc       __GLEW_AMD_transform_feedback3_lines_triangles 00000001400a09bc     GLEW_1130_DEBUG:glew.obj
 0003:0001b9bd       __GLEW_AMD_transform_feedback4 00000001400a09bd     GLEW_1130_DEBUG:glew.obj
 0003:0001b9be       __GLEW_AMD_vertex_shader_layer 00000001400a09be     GLEW_1130_DEBUG:glew.obj
 0003:0001b9bf       __GLEW_AMD_vertex_shader_tessellator 00000001400a09bf     GLEW_1130_DEBUG:glew.obj
 0003:0001b9c0       __glewVertexArrayRangeAPPLE 00000001400a09c0     GLEW_1130_DEBUG:glew.obj
 0003:0001b9c8       __glewNamedFramebufferTextureFaceEXT 00000001400a09c8     GLEW_1130_DEBUG:glew.obj
 0003:0001b9d0       __glewDisableVertexAttribAPPLE 00000001400a09d0     GLEW_1130_DEBUG:glew.obj
 0003:0001b9d8       __glewEnableVertexAttribAPPLE 00000001400a09d8     GLEW_1130_DEBUG:glew.obj
 0003:0001b9e0       __glewNamedFramebufferTextureLayerEXT 00000001400a09e0     GLEW_1130_DEBUG:glew.obj
 0003:0001b9e8       __glewIsVertexAttribEnabledAPPLE 00000001400a09e8     GLEW_1130_DEBUG:glew.obj
 0003:0001b9f0       __glewNamedProgramLocalParameter4dEXT 00000001400a09f0     GLEW_1130_DEBUG:glew.obj
 0003:0001b9f8       __glewNamedProgramLocalParameter4dvEXT 00000001400a09f8     GLEW_1130_DEBUG:glew.obj
 0003:0001ba00       __glewMapVertexAttrib1dAPPLE 00000001400a0a00     GLEW_1130_DEBUG:glew.obj
 0003:0001ba08       __glewMapVertexAttrib1fAPPLE 00000001400a0a08     GLEW_1130_DEBUG:glew.obj
 0003:0001ba10       __glewNamedProgramLocalParameter4fEXT 00000001400a0a10     GLEW_1130_DEBUG:glew.obj
 0003:0001ba18       __glewNamedProgramLocalParameter4fvEXT 00000001400a0a18     GLEW_1130_DEBUG:glew.obj
 0003:0001ba20       __glewMapVertexAttrib2dAPPLE 00000001400a0a20     GLEW_1130_DEBUG:glew.obj
 0003:0001ba28       __glewNamedProgramLocalParameterI4iEXT 00000001400a0a28     GLEW_1130_DEBUG:glew.obj
 0003:0001ba30       __glewMapVertexAttrib2fAPPLE 00000001400a0a30     GLEW_1130_DEBUG:glew.obj
 0003:0001ba38       __glewClearDepthf          00000001400a0a38     GLEW_1130_DEBUG:glew.obj
 0003:0001ba40       __glewNamedProgramLocalParameterI4ivEXT 00000001400a0a40     GLEW_1130_DEBUG:glew.obj
 0003:0001ba48       __GLEW_AMD_vertex_shader_viewport_index 00000001400a0a48     GLEW_1130_DEBUG:glew.obj
 0003:0001ba49       __GLEW_ANGLE_depth_texture 00000001400a0a49     GLEW_1130_DEBUG:glew.obj
 0003:0001ba4a       __GLEW_ANGLE_framebuffer_blit 00000001400a0a4a     GLEW_1130_DEBUG:glew.obj
 0003:0001ba4b       __GLEW_ANGLE_framebuffer_multisample 00000001400a0a4b     GLEW_1130_DEBUG:glew.obj
 0003:0001ba4c       __GLEW_ANGLE_instanced_arrays 00000001400a0a4c     GLEW_1130_DEBUG:glew.obj
 0003:0001ba4d       __GLEW_ANGLE_pack_reverse_row_order 00000001400a0a4d     GLEW_1130_DEBUG:glew.obj
 0003:0001ba4e       __GLEW_ANGLE_program_binary 00000001400a0a4e     GLEW_1130_DEBUG:glew.obj
 0003:0001ba4f       __GLEW_ANGLE_texture_compression_dxt1 00000001400a0a4f     GLEW_1130_DEBUG:glew.obj
 0003:0001ba50       __glewNamedProgramLocalParameterI4uiEXT 00000001400a0a50     GLEW_1130_DEBUG:glew.obj
 0003:0001ba58       __glewDepthRangef          00000001400a0a58     GLEW_1130_DEBUG:glew.obj
 0003:0001ba60       __glewNamedProgramLocalParameterI4uivEXT 00000001400a0a60     GLEW_1130_DEBUG:glew.obj
 0003:0001ba68       __glewGetShaderPrecisionFormat 00000001400a0a68     GLEW_1130_DEBUG:glew.obj
 0003:0001ba70       __glewReleaseShaderCompiler 00000001400a0a70     GLEW_1130_DEBUG:glew.obj
 0003:0001ba78       __glewNamedProgramLocalParameters4fvEXT 00000001400a0a78     GLEW_1130_DEBUG:glew.obj
 0003:0001ba80       __glewShaderBinary         00000001400a0a80     GLEW_1130_DEBUG:glew.obj
 0003:0001ba88       __glewNamedProgramLocalParametersI4ivEXT 00000001400a0a88     GLEW_1130_DEBUG:glew.obj
 0003:0001ba90       __glewNamedProgramLocalParametersI4uivEXT 00000001400a0a90     GLEW_1130_DEBUG:glew.obj
 0003:0001ba98       __glewMemoryBarrierByRegion 00000001400a0a98     GLEW_1130_DEBUG:glew.obj
 0003:0001baa0       __glewPrimitiveBoundingBoxARB 00000001400a0aa0     GLEW_1130_DEBUG:glew.obj
 0003:0001baa8       __glewNamedProgramStringEXT 00000001400a0aa8     GLEW_1130_DEBUG:glew.obj
 0003:0001bab0       __glewNamedRenderbufferStorageEXT 00000001400a0ab0     GLEW_1130_DEBUG:glew.obj
 0003:0001bab8       __glewDrawArraysInstancedBaseInstance 00000001400a0ab8     GLEW_1130_DEBUG:glew.obj
 0003:0001bac0       __glewNamedRenderbufferStorageMultisampleCoverageEXT 00000001400a0ac0     GLEW_1130_DEBUG:glew.obj
 0003:0001bac8       __GLEW_ANGLE_texture_compression_dxt3 00000001400a0ac8     GLEW_1130_DEBUG:glew.obj
 0003:0001bac9       __GLEW_ANGLE_texture_compression_dxt5 00000001400a0ac9     GLEW_1130_DEBUG:glew.obj
 0003:0001baca       __GLEW_ANGLE_texture_usage 00000001400a0aca     GLEW_1130_DEBUG:glew.obj
 0003:0001bacb       __GLEW_ANGLE_timer_query   00000001400a0acb     GLEW_1130_DEBUG:glew.obj
 0003:0001bacc       __GLEW_ANGLE_translated_shader_source 00000001400a0acc     GLEW_1130_DEBUG:glew.obj
 0003:0001bacd       __GLEW_APPLE_aux_depth_stencil 00000001400a0acd     GLEW_1130_DEBUG:glew.obj
 0003:0001bace       __GLEW_APPLE_client_storage 00000001400a0ace     GLEW_1130_DEBUG:glew.obj
 0003:0001bacf       __GLEW_APPLE_element_array 00000001400a0acf     GLEW_1130_DEBUG:glew.obj
 0003:0001bad0       __glewDrawElementsInstancedBaseInstance 00000001400a0ad0     GLEW_1130_DEBUG:glew.obj
 0003:0001bad8       __glewNamedRenderbufferStorageMultisampleEXT 00000001400a0ad8     GLEW_1130_DEBUG:glew.obj
 0003:0001bae0       __glewDrawElementsInstancedBaseVertexBaseInstance 00000001400a0ae0     GLEW_1130_DEBUG:glew.obj
 0003:0001bae8       __glewProgramUniform1fEXT  00000001400a0ae8     GLEW_1130_DEBUG:glew.obj
 0003:0001baf0       __glewGetImageHandleARB    00000001400a0af0     GLEW_1130_DEBUG:glew.obj
 0003:0001baf8       __glewGetTextureHandleARB  00000001400a0af8     GLEW_1130_DEBUG:glew.obj
 0003:0001bb00       __glewProgramUniform1fvEXT 00000001400a0b00     GLEW_1130_DEBUG:glew.obj
 0003:0001bb08       __glewProgramUniform1iEXT  00000001400a0b08     GLEW_1130_DEBUG:glew.obj
 0003:0001bb10       __glewGetTextureSamplerHandleARB 00000001400a0b10     GLEW_1130_DEBUG:glew.obj
 0003:0001bb18       __glewProgramUniform1ivEXT 00000001400a0b18     GLEW_1130_DEBUG:glew.obj
 0003:0001bb20       __glewGetVertexAttribLui64vARB 00000001400a0b20     GLEW_1130_DEBUG:glew.obj
 0003:0001bb28       __glewProgramUniform1uiEXT 00000001400a0b28     GLEW_1130_DEBUG:glew.obj
 0003:0001bb30       __glewIsImageHandleResidentARB 00000001400a0b30     GLEW_1130_DEBUG:glew.obj
 0003:0001bb38       __glewIsTextureHandleResidentARB 00000001400a0b38     GLEW_1130_DEBUG:glew.obj
 0003:0001bb40       __glewProgramUniform1uivEXT 00000001400a0b40     GLEW_1130_DEBUG:glew.obj
 0003:0001bb48       __glewProgramUniform2fEXT  00000001400a0b48     GLEW_1130_DEBUG:glew.obj
 0003:0001bb50       __GLEW_APPLE_fence         00000001400a0b50     GLEW_1130_DEBUG:glew.obj
 0003:0001bb51       __GLEW_APPLE_float_pixels  00000001400a0b51     GLEW_1130_DEBUG:glew.obj
 0003:0001bb52       __GLEW_APPLE_flush_buffer_range 00000001400a0b52     GLEW_1130_DEBUG:glew.obj
 0003:0001bb53       __GLEW_APPLE_object_purgeable 00000001400a0b53     GLEW_1130_DEBUG:glew.obj
 0003:0001bb54       __GLEW_APPLE_pixel_buffer  00000001400a0b54     GLEW_1130_DEBUG:glew.obj
 0003:0001bb55       __GLEW_APPLE_rgb_422       00000001400a0b55     GLEW_1130_DEBUG:glew.obj
 0003:0001bb56       __GLEW_APPLE_row_bytes     00000001400a0b56     GLEW_1130_DEBUG:glew.obj
 0003:0001bb57       __GLEW_APPLE_specular_vector 00000001400a0b57     GLEW_1130_DEBUG:glew.obj
 0003:0001bb58       __glewMakeImageHandleNonResidentARB 00000001400a0b58     GLEW_1130_DEBUG:glew.obj
 0003:0001bb60       __glewProgramUniform2fvEXT 00000001400a0b60     GLEW_1130_DEBUG:glew.obj
 0003:0001bb68       __glewMakeImageHandleResidentARB 00000001400a0b68     GLEW_1130_DEBUG:glew.obj
 0003:0001bb70       __glewMakeTextureHandleNonResidentARB 00000001400a0b70     GLEW_1130_DEBUG:glew.obj
 0003:0001bb78       __glewProgramUniform2iEXT  00000001400a0b78     GLEW_1130_DEBUG:glew.obj
 0003:0001bb80       __glewProgramUniform2ivEXT 00000001400a0b80     GLEW_1130_DEBUG:glew.obj
 0003:0001bb88       __glewMakeTextureHandleResidentARB 00000001400a0b88     GLEW_1130_DEBUG:glew.obj
 0003:0001bb90       __glewProgramUniformHandleui64ARB 00000001400a0b90     GLEW_1130_DEBUG:glew.obj
 0003:0001bb98       __glewProgramUniform2uiEXT 00000001400a0b98     GLEW_1130_DEBUG:glew.obj
 0003:0001bba0       __glewProgramUniform2uivEXT 00000001400a0ba0     GLEW_1130_DEBUG:glew.obj
 0003:0001bba8       __glewProgramUniformHandleui64vARB 00000001400a0ba8     GLEW_1130_DEBUG:glew.obj
 0003:0001bbb0       __glewProgramUniform3fEXT  00000001400a0bb0     GLEW_1130_DEBUG:glew.obj
 0003:0001bbb8       __glewUniformHandleui64ARB 00000001400a0bb8     GLEW_1130_DEBUG:glew.obj
 0003:0001bbc0       __glewProgramUniform3fvEXT 00000001400a0bc0     GLEW_1130_DEBUG:glew.obj
 0003:0001bbc8       __glewUniformHandleui64vARB 00000001400a0bc8     GLEW_1130_DEBUG:glew.obj
 0003:0001bbd0       __GLEW_APPLE_texture_range 00000001400a0bd0     GLEW_1130_DEBUG:glew.obj
 0003:0001bbd1       __GLEW_APPLE_transform_hint 00000001400a0bd1     GLEW_1130_DEBUG:glew.obj
 0003:0001bbd2       __GLEW_APPLE_vertex_array_object 00000001400a0bd2     GLEW_1130_DEBUG:glew.obj
 0003:0001bbd3       __GLEW_APPLE_vertex_array_range 00000001400a0bd3     GLEW_1130_DEBUG:glew.obj
 0003:0001bbd4       __GLEW_APPLE_vertex_program_evaluators 00000001400a0bd4     GLEW_1130_DEBUG:glew.obj
 0003:0001bbd5       __GLEW_APPLE_ycbcr_422     00000001400a0bd5     GLEW_1130_DEBUG:glew.obj
 0003:0001bbd6       __GLEW_ARB_ES2_compatibility 00000001400a0bd6     GLEW_1130_DEBUG:glew.obj
 0003:0001bbd7       __GLEW_ARB_ES3_1_compatibility 00000001400a0bd7     GLEW_1130_DEBUG:glew.obj
 0003:0001bbd8       __glewProgramUniform3iEXT  00000001400a0bd8     GLEW_1130_DEBUG:glew.obj
 0003:0001bbe0       __glewVertexAttribL1ui64ARB 00000001400a0be0     GLEW_1130_DEBUG:glew.obj
 0003:0001bbe8       __glewProgramUniform3ivEXT 00000001400a0be8     GLEW_1130_DEBUG:glew.obj
 0003:0001bbf0       __glewVertexAttribL1ui64vARB 00000001400a0bf0     GLEW_1130_DEBUG:glew.obj
 0003:0001bbf8       __glewProgramUniform3uiEXT 00000001400a0bf8     GLEW_1130_DEBUG:glew.obj
 0003:0001bc00       __glewBindFragDataLocationIndexed 00000001400a0c00     GLEW_1130_DEBUG:glew.obj
 0003:0001bc08       __glewProgramUniform3uivEXT 00000001400a0c08     GLEW_1130_DEBUG:glew.obj
 0003:0001bc10       __glewGetFragDataIndex     00000001400a0c10     GLEW_1130_DEBUG:glew.obj
 0003:0001bc18       __glewBufferStorage        00000001400a0c18     GLEW_1130_DEBUG:glew.obj
 0003:0001bc20       __glewProgramUniform4fEXT  00000001400a0c20     GLEW_1130_DEBUG:glew.obj
 0003:0001bc28       __glewNamedBufferStorageEXT 00000001400a0c28     GLEW_1130_DEBUG:glew.obj
 0003:0001bc30       __glewProgramUniform4fvEXT 00000001400a0c30     GLEW_1130_DEBUG:glew.obj
 0003:0001bc38       __glewProgramUniform4iEXT  00000001400a0c38     GLEW_1130_DEBUG:glew.obj
 0003:0001bc40       __glewCreateSyncFromCLeventARB 00000001400a0c40     GLEW_1130_DEBUG:glew.obj
 0003:0001bc48       __glewProgramUniform4ivEXT 00000001400a0c48     GLEW_1130_DEBUG:glew.obj
 0003:0001bc50       __glewClearBufferData      00000001400a0c50     GLEW_1130_DEBUG:glew.obj
 0003:0001bc58       __glewProgramUniform4uiEXT 00000001400a0c58     GLEW_1130_DEBUG:glew.obj
 0003:0001bc60       __glewClearBufferSubData   00000001400a0c60     GLEW_1130_DEBUG:glew.obj
 0003:0001bc68       __GLEW_ARB_ES3_2_compatibility 00000001400a0c68     GLEW_1130_DEBUG:glew.obj
 0003:0001bc69       __GLEW_ARB_ES3_compatibility 00000001400a0c69     GLEW_1130_DEBUG:glew.obj
 0003:0001bc6a       __GLEW_ARB_arrays_of_arrays 00000001400a0c6a     GLEW_1130_DEBUG:glew.obj
 0003:0001bc6b       __GLEW_ARB_base_instance   00000001400a0c6b     GLEW_1130_DEBUG:glew.obj
 0003:0001bc6c       __GLEW_ARB_bindless_texture 00000001400a0c6c     GLEW_1130_DEBUG:glew.obj
 0003:0001bc6d       __GLEW_ARB_blend_func_extended 00000001400a0c6d     GLEW_1130_DEBUG:glew.obj
 0003:0001bc6e       __GLEW_ARB_buffer_storage  00000001400a0c6e     GLEW_1130_DEBUG:glew.obj
 0003:0001bc6f       __GLEW_ARB_cl_event        00000001400a0c6f     GLEW_1130_DEBUG:glew.obj
 0003:0001bc70       __glewClearNamedBufferDataEXT 00000001400a0c70     GLEW_1130_DEBUG:glew.obj
 0003:0001bc78       __glewProgramUniform4uivEXT 00000001400a0c78     GLEW_1130_DEBUG:glew.obj
 0003:0001bc80       __glewClearNamedBufferSubDataEXT 00000001400a0c80     GLEW_1130_DEBUG:glew.obj
 0003:0001bc88       __glewProgramUniformMatrix2fvEXT 00000001400a0c88     GLEW_1130_DEBUG:glew.obj
 0003:0001bc90       __glewClearTexImage        00000001400a0c90     GLEW_1130_DEBUG:glew.obj
 0003:0001bc98       __glewProgramUniformMatrix2x3fvEXT 00000001400a0c98     GLEW_1130_DEBUG:glew.obj
 0003:0001bca0       __glewProgramUniformMatrix2x4fvEXT 00000001400a0ca0     GLEW_1130_DEBUG:glew.obj
 0003:0001bca8       __glewClearTexSubImage     00000001400a0ca8     GLEW_1130_DEBUG:glew.obj
 0003:0001bcb0       __glewClipControl          00000001400a0cb0     GLEW_1130_DEBUG:glew.obj
 0003:0001bcb8       __glewProgramUniformMatrix3fvEXT 00000001400a0cb8     GLEW_1130_DEBUG:glew.obj
 0003:0001bcc0       __glewClampColorARB        00000001400a0cc0     GLEW_1130_DEBUG:glew.obj
 0003:0001bcc8       __glewProgramUniformMatrix3x2fvEXT 00000001400a0cc8     GLEW_1130_DEBUG:glew.obj
 0003:0001bcd0       __glewDispatchCompute      00000001400a0cd0     GLEW_1130_DEBUG:glew.obj
 0003:0001bcd8       __glewProgramUniformMatrix3x4fvEXT 00000001400a0cd8     GLEW_1130_DEBUG:glew.obj
 0003:0001bce0       __glewDispatchComputeIndirect 00000001400a0ce0     GLEW_1130_DEBUG:glew.obj
 0003:0001bce8       __glewProgramUniformMatrix4fvEXT 00000001400a0ce8     GLEW_1130_DEBUG:glew.obj
 0003:0001bcf0       __GLEW_ARB_clear_buffer_object 00000001400a0cf0     GLEW_1130_DEBUG:glew.obj
 0003:0001bcf1       __GLEW_ARB_clear_texture   00000001400a0cf1     GLEW_1130_DEBUG:glew.obj
 0003:0001bcf2       __GLEW_ARB_clip_control    00000001400a0cf2     GLEW_1130_DEBUG:glew.obj
 0003:0001bcf3       __GLEW_ARB_color_buffer_float 00000001400a0cf3     GLEW_1130_DEBUG:glew.obj
 0003:0001bcf4       __GLEW_ARB_compatibility   00000001400a0cf4     GLEW_1130_DEBUG:glew.obj
 0003:0001bcf5       __GLEW_ARB_compressed_texture_pixel_storage 00000001400a0cf5     GLEW_1130_DEBUG:glew.obj
 0003:0001bcf6       __GLEW_ARB_compute_shader  00000001400a0cf6     GLEW_1130_DEBUG:glew.obj
 0003:0001bcf7       __GLEW_ARB_compute_variable_group_size 00000001400a0cf7     GLEW_1130_DEBUG:glew.obj
 0003:0001bcf8       __glewDispatchComputeGroupSizeARB 00000001400a0cf8     GLEW_1130_DEBUG:glew.obj
 0003:0001bd00       __glewProgramUniformMatrix4x2fvEXT 00000001400a0d00     GLEW_1130_DEBUG:glew.obj
 0003:0001bd08       __glewProgramUniformMatrix4x3fvEXT 00000001400a0d08     GLEW_1130_DEBUG:glew.obj
 0003:0001bd10       __glewCopyBufferSubData    00000001400a0d10     GLEW_1130_DEBUG:glew.obj
 0003:0001bd18       __glewPushClientAttribDefaultEXT 00000001400a0d18     GLEW_1130_DEBUG:glew.obj
 0003:0001bd20       __glewCopyImageSubData     00000001400a0d20     GLEW_1130_DEBUG:glew.obj
 0003:0001bd28       __glewDebugMessageCallbackARB 00000001400a0d28     GLEW_1130_DEBUG:glew.obj
 0003:0001bd30       __glewTextureBufferEXT     00000001400a0d30     GLEW_1130_DEBUG:glew.obj
 0003:0001bd38       __glewTextureImage1DEXT    00000001400a0d38     GLEW_1130_DEBUG:glew.obj
 0003:0001bd40       __glewDebugMessageControlARB 00000001400a0d40     GLEW_1130_DEBUG:glew.obj
 0003:0001bd48       __glewDebugMessageInsertARB 00000001400a0d48     GLEW_1130_DEBUG:glew.obj
 0003:0001bd50       __glewTextureImage2DEXT    00000001400a0d50     GLEW_1130_DEBUG:glew.obj
 0003:0001bd58       __glewGetDebugMessageLogARB 00000001400a0d58     GLEW_1130_DEBUG:glew.obj
 0003:0001bd60       __glewTextureImage3DEXT    00000001400a0d60     GLEW_1130_DEBUG:glew.obj
 0003:0001bd68       __glewBindTextureUnit      00000001400a0d68     GLEW_1130_DEBUG:glew.obj
 0003:0001bd70       __GLEW_ARB_conditional_render_inverted 00000001400a0d70     GLEW_1130_DEBUG:glew.obj
 0003:0001bd71       __GLEW_ARB_conservative_depth 00000001400a0d71     GLEW_1130_DEBUG:glew.obj
 0003:0001bd72       __GLEW_ARB_copy_buffer     00000001400a0d72     GLEW_1130_DEBUG:glew.obj
 0003:0001bd73       __GLEW_ARB_copy_image      00000001400a0d73     GLEW_1130_DEBUG:glew.obj
 0003:0001bd74       __GLEW_ARB_cull_distance   00000001400a0d74     GLEW_1130_DEBUG:glew.obj
 0003:0001bd75       __GLEW_ARB_debug_output    00000001400a0d75     GLEW_1130_DEBUG:glew.obj
 0003:0001bd76       __GLEW_ARB_depth_buffer_float 00000001400a0d76     GLEW_1130_DEBUG:glew.obj
 0003:0001bd77       __GLEW_ARB_depth_clamp     00000001400a0d77     GLEW_1130_DEBUG:glew.obj
 0003:0001bd78       __glewTextureParameterIivEXT 00000001400a0d78     GLEW_1130_DEBUG:glew.obj
 0003:0001bd80       __glewTextureParameterIuivEXT 00000001400a0d80     GLEW_1130_DEBUG:glew.obj
 0003:0001bd88       __glewBlitNamedFramebuffer 00000001400a0d88     GLEW_1130_DEBUG:glew.obj
 0003:0001bd90       __glewCheckNamedFramebufferStatus 00000001400a0d90     GLEW_1130_DEBUG:glew.obj
 0003:0001bd98       __glewTextureParameterfEXT 00000001400a0d98     GLEW_1130_DEBUG:glew.obj
 0003:0001bda0       __glewTextureParameterfvEXT 00000001400a0da0     GLEW_1130_DEBUG:glew.obj
 0003:0001bda8       __glewClearNamedBufferData 00000001400a0da8     GLEW_1130_DEBUG:glew.obj
 0003:0001bdb0       __glewTextureParameteriEXT 00000001400a0db0     GLEW_1130_DEBUG:glew.obj
 0003:0001bdb8       __glewClearNamedBufferSubData 00000001400a0db8     GLEW_1130_DEBUG:glew.obj
 0003:0001bdc0       __glewTextureParameterivEXT 00000001400a0dc0     GLEW_1130_DEBUG:glew.obj
 0003:0001bdc8       __glewClearNamedFramebufferfi 00000001400a0dc8     GLEW_1130_DEBUG:glew.obj
 0003:0001bdd0       __glewClearNamedFramebufferfv 00000001400a0dd0     GLEW_1130_DEBUG:glew.obj
 0003:0001bdd8       __glewTextureRenderbufferEXT 00000001400a0dd8     GLEW_1130_DEBUG:glew.obj
 0003:0001bde0       __glewTextureSubImage1DEXT 00000001400a0de0     GLEW_1130_DEBUG:glew.obj
 0003:0001bde8       __glewClearNamedFramebufferiv 00000001400a0de8     GLEW_1130_DEBUG:glew.obj
 0003:0001bdf0       __glewClearNamedFramebufferuiv 00000001400a0df0     GLEW_1130_DEBUG:glew.obj
 0003:0001bdf8       __glewTextureSubImage2DEXT 00000001400a0df8     GLEW_1130_DEBUG:glew.obj
 0003:0001be00       __GLEW_ARB_depth_texture   00000001400a0e00     GLEW_1130_DEBUG:glew.obj
 0003:0001be01       __GLEW_ARB_derivative_control 00000001400a0e01     GLEW_1130_DEBUG:glew.obj
 0003:0001be02       __GLEW_ARB_direct_state_access 00000001400a0e02     GLEW_1130_DEBUG:glew.obj
 0003:0001be03       __GLEW_ARB_draw_buffers    00000001400a0e03     GLEW_1130_DEBUG:glew.obj
 0003:0001be04       __GLEW_ARB_draw_buffers_blend 00000001400a0e04     GLEW_1130_DEBUG:glew.obj
 0003:0001be05       __GLEW_ARB_draw_elements_base_vertex 00000001400a0e05     GLEW_1130_DEBUG:glew.obj
 0003:0001be06       __GLEW_ARB_draw_indirect   00000001400a0e06     GLEW_1130_DEBUG:glew.obj
 0003:0001be07       __GLEW_ARB_draw_instanced  00000001400a0e07     GLEW_1130_DEBUG:glew.obj
 0003:0001be08       __glewTextureSubImage3DEXT 00000001400a0e08     GLEW_1130_DEBUG:glew.obj
 0003:0001be10       __glewCompressedTextureSubImage1D 00000001400a0e10     GLEW_1130_DEBUG:glew.obj
 0003:0001be18       __glewCompressedTextureSubImage2D 00000001400a0e18     GLEW_1130_DEBUG:glew.obj
 0003:0001be20       __glewUnmapNamedBufferEXT  00000001400a0e20     GLEW_1130_DEBUG:glew.obj
 0003:0001be28       __glewCompressedTextureSubImage3D 00000001400a0e28     GLEW_1130_DEBUG:glew.obj
 0003:0001be30       __glewVertexArrayColorOffsetEXT 00000001400a0e30     GLEW_1130_DEBUG:glew.obj
 0003:0001be38       __glewCopyNamedBufferSubData 00000001400a0e38     GLEW_1130_DEBUG:glew.obj
 0003:0001be40       __glewVertexArrayEdgeFlagOffsetEXT 00000001400a0e40     GLEW_1130_DEBUG:glew.obj
 0003:0001be48       __glewVertexArrayFogCoordOffsetEXT 00000001400a0e48     GLEW_1130_DEBUG:glew.obj
 0003:0001be50       __glewCopyTextureSubImage1D 00000001400a0e50     GLEW_1130_DEBUG:glew.obj
 0003:0001be58       __glewVertexArrayIndexOffsetEXT 00000001400a0e58     GLEW_1130_DEBUG:glew.obj
 0003:0001be60       __glewCopyTextureSubImage2D 00000001400a0e60     GLEW_1130_DEBUG:glew.obj
 0003:0001be68       __glewVertexArrayMultiTexCoordOffsetEXT 00000001400a0e68     GLEW_1130_DEBUG:glew.obj
 0003:0001be70       __glewCopyTextureSubImage3D 00000001400a0e70     GLEW_1130_DEBUG:glew.obj
 0003:0001be78       __glewVertexArrayNormalOffsetEXT 00000001400a0e78     GLEW_1130_DEBUG:glew.obj
 0003:0001be80       __glewCreateBuffers        00000001400a0e80     GLEW_1130_DEBUG:glew.obj
 0003:0001be88       __GLEW_ARB_enhanced_layouts 00000001400a0e88     GLEW_1130_DEBUG:glew.obj
 0003:0001be89       __GLEW_ARB_explicit_attrib_location 00000001400a0e89     GLEW_1130_DEBUG:glew.obj
 0003:0001be8a       __GLEW_ARB_explicit_uniform_location 00000001400a0e8a     GLEW_1130_DEBUG:glew.obj
 0003:0001be8b       __GLEW_ARB_fragment_coord_conventions 00000001400a0e8b     GLEW_1130_DEBUG:glew.obj
 0003:0001be8c       __GLEW_ARB_fragment_layer_viewport 00000001400a0e8c     GLEW_1130_DEBUG:glew.obj
 0003:0001be8d       __GLEW_ARB_fragment_program 00000001400a0e8d     GLEW_1130_DEBUG:glew.obj
 0003:0001be8e       __GLEW_ARB_fragment_program_shadow 00000001400a0e8e     GLEW_1130_DEBUG:glew.obj
 0003:0001be8f       __GLEW_ARB_fragment_shader 00000001400a0e8f     GLEW_1130_DEBUG:glew.obj
 0003:0001be90       __glewCreateFramebuffers   00000001400a0e90     GLEW_1130_DEBUG:glew.obj
 0003:0001be98       __glewVertexArraySecondaryColorOffsetEXT 00000001400a0e98     GLEW_1130_DEBUG:glew.obj
 0003:0001bea0       __glewCreateProgramPipelines 00000001400a0ea0     GLEW_1130_DEBUG:glew.obj
 0003:0001bea8       __glewVertexArrayTexCoordOffsetEXT 00000001400a0ea8     GLEW_1130_DEBUG:glew.obj
 0003:0001beb0       __glewCreateQueries        00000001400a0eb0     GLEW_1130_DEBUG:glew.obj
 0003:0001beb8       __glewVertexArrayVertexAttribDivisorEXT 00000001400a0eb8     GLEW_1130_DEBUG:glew.obj
 0003:0001bec0       __glewCreateRenderbuffers  00000001400a0ec0     GLEW_1130_DEBUG:glew.obj
 0003:0001bec8       __glewVertexArrayVertexAttribIOffsetEXT 00000001400a0ec8     GLEW_1130_DEBUG:glew.obj
 0003:0001bed0       __glewVertexArrayVertexAttribOffsetEXT 00000001400a0ed0     GLEW_1130_DEBUG:glew.obj
 0003:0001bed8       __glewCreateSamplers       00000001400a0ed8     GLEW_1130_DEBUG:glew.obj
 0003:0001bee0       __glewCreateTextures       00000001400a0ee0     GLEW_1130_DEBUG:glew.obj
 0003:0001bee8       __glewVertexArrayVertexOffsetEXT 00000001400a0ee8     GLEW_1130_DEBUG:glew.obj
 0003:0001bef0       __glewCreateTransformFeedbacks 00000001400a0ef0     GLEW_1130_DEBUG:glew.obj
 0003:0001bef8       __glewColorMaskIndexedEXT  00000001400a0ef8     GLEW_1130_DEBUG:glew.obj
 0003:0001bf00       __GLEW_ARB_fragment_shader_interlock 00000001400a0f00     GLEW_1130_DEBUG:glew.obj
 0003:0001bf01       __GLEW_ARB_framebuffer_no_attachments 00000001400a0f01     GLEW_1130_DEBUG:glew.obj
 0003:0001bf02       __GLEW_ARB_framebuffer_object 00000001400a0f02     GLEW_1130_DEBUG:glew.obj
 0003:0001bf03       __GLEW_ARB_framebuffer_sRGB 00000001400a0f03     GLEW_1130_DEBUG:glew.obj
 0003:0001bf04       __GLEW_ARB_geometry_shader4 00000001400a0f04     GLEW_1130_DEBUG:glew.obj
 0003:0001bf05       __GLEW_ARB_get_program_binary 00000001400a0f05     GLEW_1130_DEBUG:glew.obj
 0003:0001bf06       __GLEW_ARB_get_texture_sub_image 00000001400a0f06     GLEW_1130_DEBUG:glew.obj
 0003:0001bf07       __GLEW_ARB_gpu_shader5     00000001400a0f07     GLEW_1130_DEBUG:glew.obj
 0003:0001bf08       __glewDisableIndexedEXT    00000001400a0f08     GLEW_1130_DEBUG:glew.obj
 0003:0001bf10       __glewCreateVertexArrays   00000001400a0f10     GLEW_1130_DEBUG:glew.obj
 0003:0001bf18       __glewEnableIndexedEXT     00000001400a0f18     GLEW_1130_DEBUG:glew.obj
 0003:0001bf20       __glewDisableVertexArrayAttrib 00000001400a0f20     GLEW_1130_DEBUG:glew.obj
 0003:0001bf28       __glewGetBooleanIndexedvEXT 00000001400a0f28     GLEW_1130_DEBUG:glew.obj
 0003:0001bf30       __glewEnableVertexArrayAttrib 00000001400a0f30     GLEW_1130_DEBUG:glew.obj
 0003:0001bf38       __glewFlushMappedNamedBufferRange 00000001400a0f38     GLEW_1130_DEBUG:glew.obj
 0003:0001bf40       __glewGetIntegerIndexedvEXT 00000001400a0f40     GLEW_1130_DEBUG:glew.obj
 0003:0001bf48       __glewIsEnabledIndexedEXT  00000001400a0f48     GLEW_1130_DEBUG:glew.obj
 0003:0001bf50       __glewGenerateTextureMipmap 00000001400a0f50     GLEW_1130_DEBUG:glew.obj
 0003:0001bf58       __glewDrawArraysInstancedEXT 00000001400a0f58     GLEW_1130_DEBUG:glew.obj
 0003:0001bf60       __glewGetCompressedTextureImage 00000001400a0f60     GLEW_1130_DEBUG:glew.obj
 0003:0001bf68       __glewGetNamedBufferParameteri64v 00000001400a0f68     GLEW_1130_DEBUG:glew.obj
 0003:0001bf70       __glewDrawElementsInstancedEXT 00000001400a0f70     GLEW_1130_DEBUG:glew.obj
 0003:0001bf78       __glewGetNamedBufferParameteriv 00000001400a0f78     GLEW_1130_DEBUG:glew.obj
 0003:0001bf80       __glewDrawRangeElementsEXT 00000001400a0f80     GLEW_1130_DEBUG:glew.obj
 0003:0001bf88       __glewFogCoordPointerEXT   00000001400a0f88     GLEW_1130_DEBUG:glew.obj
 0003:0001bf90       __GLEW_ARB_gpu_shader_fp64 00000001400a0f90     GLEW_1130_DEBUG:glew.obj
 0003:0001bf91       __GLEW_ARB_gpu_shader_int64 00000001400a0f91     GLEW_1130_DEBUG:glew.obj
 0003:0001bf92       __GLEW_ARB_half_float_pixel 00000001400a0f92     GLEW_1130_DEBUG:glew.obj
 0003:0001bf93       __GLEW_ARB_half_float_vertex 00000001400a0f93     GLEW_1130_DEBUG:glew.obj
 0003:0001bf94       __GLEW_ARB_imaging         00000001400a0f94     GLEW_1130_DEBUG:glew.obj
 0003:0001bf95       __GLEW_ARB_indirect_parameters 00000001400a0f95     GLEW_1130_DEBUG:glew.obj
 0003:0001bf96       __GLEW_ARB_instanced_arrays 00000001400a0f96     GLEW_1130_DEBUG:glew.obj
 0003:0001bf97       __GLEW_ARB_internalformat_query 00000001400a0f97     GLEW_1130_DEBUG:glew.obj
 0003:0001bf98       __glewGetNamedBufferPointerv 00000001400a0f98     GLEW_1130_DEBUG:glew.obj
 0003:0001bfa0       __glewFogCoorddEXT         00000001400a0fa0     GLEW_1130_DEBUG:glew.obj
 0003:0001bfa8       __glewGetNamedBufferSubData 00000001400a0fa8     GLEW_1130_DEBUG:glew.obj
 0003:0001bfb0       __glewGetNamedFramebufferAttachmentParameteriv 00000001400a0fb0     GLEW_1130_DEBUG:glew.obj
 0003:0001bfb8       __glewFogCoorddvEXT        00000001400a0fb8     GLEW_1130_DEBUG:glew.obj
 0003:0001bfc0       __glewFogCoordfEXT         00000001400a0fc0     GLEW_1130_DEBUG:glew.obj
 0003:0001bfc8       __glewGetNamedFramebufferParameteriv 00000001400a0fc8     GLEW_1130_DEBUG:glew.obj
 0003:0001bfd0       __glewGetNamedRenderbufferParameteriv 00000001400a0fd0     GLEW_1130_DEBUG:glew.obj
 0003:0001bfd8       __glewFogCoordfvEXT        00000001400a0fd8     GLEW_1130_DEBUG:glew.obj
 0003:0001bfe0       __glewFragmentColorMaterialEXT 00000001400a0fe0     GLEW_1130_DEBUG:glew.obj
 0003:0001bfe8       __glewGetQueryBufferObjecti64v 00000001400a0fe8     GLEW_1130_DEBUG:glew.obj
 0003:0001bff0       __glewGetQueryBufferObjectiv 00000001400a0ff0     GLEW_1130_DEBUG:glew.obj
 0003:0001bff8       __glewFragmentLightModelfEXT 00000001400a0ff8     GLEW_1130_DEBUG:glew.obj
 0003:0001c000       __glewFragmentLightModelfvEXT 00000001400a1000     GLEW_1130_DEBUG:glew.obj
 0003:0001c008       __glewGetQueryBufferObjectui64v 00000001400a1008     GLEW_1130_DEBUG:glew.obj
 0003:0001c010       __glewGetQueryBufferObjectuiv 00000001400a1010     GLEW_1130_DEBUG:glew.obj
 0003:0001c018       __GLEW_ARB_internalformat_query2 00000001400a1018     GLEW_1130_DEBUG:glew.obj
 0003:0001c019       __GLEW_ARB_invalidate_subdata 00000001400a1019     GLEW_1130_DEBUG:glew.obj
 0003:0001c01a       __GLEW_ARB_map_buffer_alignment 00000001400a101a     GLEW_1130_DEBUG:glew.obj
 0003:0001c01b       __GLEW_ARB_map_buffer_range 00000001400a101b     GLEW_1130_DEBUG:glew.obj
 0003:0001c01c       __GLEW_ARB_matrix_palette  00000001400a101c     GLEW_1130_DEBUG:glew.obj
 0003:0001c01d       __GLEW_ARB_multi_bind      00000001400a101d     GLEW_1130_DEBUG:glew.obj
 0003:0001c01e       __GLEW_ARB_multi_draw_indirect 00000001400a101e     GLEW_1130_DEBUG:glew.obj
 0003:0001c01f       __GLEW_ARB_multisample     00000001400a101f     GLEW_1130_DEBUG:glew.obj
 0003:0001c020       __glewFragmentLightModeliEXT 00000001400a1020     GLEW_1130_DEBUG:glew.obj
 0003:0001c028       __glewGetTextureImage      00000001400a1028     GLEW_1130_DEBUG:glew.obj
 0003:0001c030       __glewFragmentLightModelivEXT 00000001400a1030     GLEW_1130_DEBUG:glew.obj
 0003:0001c038       __glewFragmentLightfEXT    00000001400a1038     GLEW_1130_DEBUG:glew.obj
 0003:0001c040       __glewGetTextureLevelParameterfv 00000001400a1040     GLEW_1130_DEBUG:glew.obj
 0003:0001c048       __glewGetTextureLevelParameteriv 00000001400a1048     GLEW_1130_DEBUG:glew.obj
 0003:0001c050       __glewFragmentLightfvEXT   00000001400a1050     GLEW_1130_DEBUG:glew.obj
 0003:0001c058       __glewFragmentLightiEXT    00000001400a1058     GLEW_1130_DEBUG:glew.obj
 0003:0001c060       __glewGetTextureParameterIiv 00000001400a1060     GLEW_1130_DEBUG:glew.obj
 0003:0001c068       __glewFragmentLightivEXT   00000001400a1068     GLEW_1130_DEBUG:glew.obj
 0003:0001c070       __glewGetTextureParameterIuiv 00000001400a1070     GLEW_1130_DEBUG:glew.obj
 0003:0001c078       __glewGetTextureParameterfv 00000001400a1078     GLEW_1130_DEBUG:glew.obj
 0003:0001c080       __glewFragmentMaterialfEXT 00000001400a1080     GLEW_1130_DEBUG:glew.obj
 0003:0001c088       __glewGetTextureParameteriv 00000001400a1088     GLEW_1130_DEBUG:glew.obj
 0003:0001c090       __glewFragmentMaterialfvEXT 00000001400a1090     GLEW_1130_DEBUG:glew.obj
 0003:0001c098       __GLEW_ARB_multitexture    00000001400a1098     GLEW_1130_DEBUG:glew.obj
 0003:0001c099       __GLEW_ARB_occlusion_query 00000001400a1099     GLEW_1130_DEBUG:glew.obj
 0003:0001c09a       __GLEW_ARB_occlusion_query2 00000001400a109a     GLEW_1130_DEBUG:glew.obj
 0003:0001c09b       __GLEW_ARB_parallel_shader_compile 00000001400a109b     GLEW_1130_DEBUG:glew.obj
 0003:0001c09c       __GLEW_ARB_pipeline_statistics_query 00000001400a109c     GLEW_1130_DEBUG:glew.obj
 0003:0001c09d       __GLEW_ARB_pixel_buffer_object 00000001400a109d     GLEW_1130_DEBUG:glew.obj
 0003:0001c09e       __GLEW_ARB_point_parameters 00000001400a109e     GLEW_1130_DEBUG:glew.obj
 0003:0001c09f       __GLEW_ARB_point_sprite    00000001400a109f     GLEW_1130_DEBUG:glew.obj
 0003:0001c0a0       __glewFragmentMaterialiEXT 00000001400a10a0     GLEW_1130_DEBUG:glew.obj
 0003:0001c0a8       __glewGetTransformFeedbacki64_v 00000001400a10a8     GLEW_1130_DEBUG:glew.obj
 0003:0001c0b0       __glewFragmentMaterialivEXT 00000001400a10b0     GLEW_1130_DEBUG:glew.obj
 0003:0001c0b8       __glewGetTransformFeedbacki_v 00000001400a10b8     GLEW_1130_DEBUG:glew.obj
 0003:0001c0c0       __glewGetTransformFeedbackiv 00000001400a10c0     GLEW_1130_DEBUG:glew.obj
 0003:0001c0c8       __glewGetFragmentLightfvEXT 00000001400a10c8     GLEW_1130_DEBUG:glew.obj
 0003:0001c0d0       __glewGetVertexArrayIndexed64iv 00000001400a10d0     GLEW_1130_DEBUG:glew.obj
 0003:0001c0d8       __glewGetFragmentLightivEXT 00000001400a10d8     GLEW_1130_DEBUG:glew.obj
 0003:0001c0e0       __glewGetFragmentMaterialfvEXT 00000001400a10e0     GLEW_1130_DEBUG:glew.obj
 0003:0001c0e8       __glewGetVertexArrayIndexediv 00000001400a10e8     GLEW_1130_DEBUG:glew.obj
 0003:0001c0f0       __glewGetFragmentMaterialivEXT 00000001400a10f0     GLEW_1130_DEBUG:glew.obj
 0003:0001c0f8       __glewGetVertexArrayiv     00000001400a10f8     GLEW_1130_DEBUG:glew.obj
 0003:0001c100       __glewLightEnviEXT         00000001400a1100     GLEW_1130_DEBUG:glew.obj
 0003:0001c108       __glewInvalidateNamedFramebufferData 00000001400a1108     GLEW_1130_DEBUG:glew.obj
 0003:0001c110       __glewBlitFramebufferEXT   00000001400a1110     GLEW_1130_DEBUG:glew.obj
 0003:0001c118       __glewInvalidateNamedFramebufferSubData 00000001400a1118     GLEW_1130_DEBUG:glew.obj
 0003:0001c120       __GLEW_ARB_post_depth_coverage 00000001400a1120     GLEW_1130_DEBUG:glew.obj
 0003:0001c121       __GLEW_ARB_program_interface_query 00000001400a1121     GLEW_1130_DEBUG:glew.obj
 0003:0001c122       __GLEW_ARB_provoking_vertex 00000001400a1122     GLEW_1130_DEBUG:glew.obj
 0003:0001c123       __GLEW_ARB_query_buffer_object 00000001400a1123     GLEW_1130_DEBUG:glew.obj
 0003:0001c124       __GLEW_ARB_robust_buffer_access_behavior 00000001400a1124     GLEW_1130_DEBUG:glew.obj
 0003:0001c125       __GLEW_ARB_robustness      00000001400a1125     GLEW_1130_DEBUG:glew.obj
 0003:0001c126       __GLEW_ARB_robustness_application_isolation 00000001400a1126     GLEW_1130_DEBUG:glew.obj
 0003:0001c127       __GLEW_ARB_robustness_share_group_isolation 00000001400a1127     GLEW_1130_DEBUG:glew.obj
 0003:0001c128       __glewRenderbufferStorageMultisampleEXT 00000001400a1128     GLEW_1130_DEBUG:glew.obj
 0003:0001c130       __glewMapNamedBuffer       00000001400a1130     GLEW_1130_DEBUG:glew.obj
 0003:0001c138       __glewMapNamedBufferRange  00000001400a1138     GLEW_1130_DEBUG:glew.obj
 0003:0001c140       __glewBindFramebufferEXT   00000001400a1140     GLEW_1130_DEBUG:glew.obj
 0003:0001c148       __glewNamedBufferData      00000001400a1148     GLEW_1130_DEBUG:glew.obj
 0003:0001c150       __glewBindRenderbufferEXT  00000001400a1150     GLEW_1130_DEBUG:glew.obj
 0003:0001c158       __glewNamedBufferStorage   00000001400a1158     GLEW_1130_DEBUG:glew.obj
 0003:0001c160       __glewCheckFramebufferStatusEXT 00000001400a1160     GLEW_1130_DEBUG:glew.obj
 0003:0001c168       __glewDeleteFramebuffersEXT 00000001400a1168     GLEW_1130_DEBUG:glew.obj
 0003:0001c170       __glewNamedBufferSubData   00000001400a1170     GLEW_1130_DEBUG:glew.obj
 0003:0001c178       __glewDeleteRenderbuffersEXT 00000001400a1178     GLEW_1130_DEBUG:glew.obj
 0003:0001c180       __glewNamedFramebufferDrawBuffer 00000001400a1180     GLEW_1130_DEBUG:glew.obj
 0003:0001c188       __glewFramebufferRenderbufferEXT 00000001400a1188     GLEW_1130_DEBUG:glew.obj
 0003:0001c190       __glewNamedFramebufferDrawBuffers 00000001400a1190     GLEW_1130_DEBUG:glew.obj
 0003:0001c198       __glewNamedFramebufferParameteri 00000001400a1198     GLEW_1130_DEBUG:glew.obj
 0003:0001c1a0       __glewFramebufferTexture1DEXT 00000001400a11a0     GLEW_1130_DEBUG:glew.obj
 0003:0001c1a8       __glewFramebufferTexture2DEXT 00000001400a11a8     GLEW_1130_DEBUG:glew.obj
 0003:0001c1b0       __GLEW_ARB_sample_locations 00000001400a11b0     GLEW_1130_DEBUG:glew.obj
 0003:0001c1b1       __GLEW_ARB_sample_shading  00000001400a11b1     GLEW_1130_DEBUG:glew.obj
 0003:0001c1b2       __GLEW_ARB_sampler_objects 00000001400a11b2     GLEW_1130_DEBUG:glew.obj
 0003:0001c1b3       __GLEW_ARB_seamless_cube_map 00000001400a11b3     GLEW_1130_DEBUG:glew.obj
 0003:0001c1b4       __GLEW_ARB_seamless_cubemap_per_texture 00000001400a11b4     GLEW_1130_DEBUG:glew.obj
 0003:0001c1b5       __GLEW_ARB_separate_shader_objects 00000001400a11b5     GLEW_1130_DEBUG:glew.obj
 0003:0001c1b6       __GLEW_ARB_shader_atomic_counter_ops 00000001400a11b6     GLEW_1130_DEBUG:glew.obj
 0003:0001c1b7       __GLEW_ARB_shader_atomic_counters 00000001400a11b7     GLEW_1130_DEBUG:glew.obj
 0003:0001c1b8       __glewNamedFramebufferReadBuffer 00000001400a11b8     GLEW_1130_DEBUG:glew.obj
 0003:0001c1c0       __glewFramebufferTexture3DEXT 00000001400a11c0     GLEW_1130_DEBUG:glew.obj
 0003:0001c1c8       __glewNamedFramebufferRenderbuffer 00000001400a11c8     GLEW_1130_DEBUG:glew.obj
 0003:0001c1d0       __glewNamedFramebufferTexture 00000001400a11d0     GLEW_1130_DEBUG:glew.obj
 0003:0001c1d8       __glewGenFramebuffersEXT   00000001400a11d8     GLEW_1130_DEBUG:glew.obj
 0003:0001c1e0       __glewGenRenderbuffersEXT  00000001400a11e0     GLEW_1130_DEBUG:glew.obj
 0003:0001c1e8       __glewNamedFramebufferTextureLayer 00000001400a11e8     GLEW_1130_DEBUG:glew.obj
 0003:0001c1f0       __glewNamedRenderbufferStorage 00000001400a11f0     GLEW_1130_DEBUG:glew.obj
 0003:0001c1f8       __glewGenerateMipmapEXT    00000001400a11f8     GLEW_1130_DEBUG:glew.obj
 0003:0001c200       __glewGetFramebufferAttachmentParameterivEXT 00000001400a1200     GLEW_1130_DEBUG:glew.obj
 0003:0001c208       __glewNamedRenderbufferStorageMultisample 00000001400a1208     GLEW_1130_DEBUG:glew.obj
 0003:0001c210       __glewTextureBuffer        00000001400a1210     GLEW_1130_DEBUG:glew.obj
 0003:0001c218       __glewGetRenderbufferParameterivEXT 00000001400a1218     GLEW_1130_DEBUG:glew.obj
 0003:0001c220       __glewIsFramebufferEXT     00000001400a1220     GLEW_1130_DEBUG:glew.obj
 0003:0001c228       __glewTextureBufferRange   00000001400a1228     GLEW_1130_DEBUG:glew.obj
 0003:0001c230       __glewTextureParameterIiv  00000001400a1230     GLEW_1130_DEBUG:glew.obj
 0003:0001c238       __GLEW_ARB_shader_ballot   00000001400a1238     GLEW_1130_DEBUG:glew.obj
 0003:0001c239       __GLEW_ARB_shader_bit_encoding 00000001400a1239     GLEW_1130_DEBUG:glew.obj
 0003:0001c23a       __GLEW_ARB_shader_clock    00000001400a123a     GLEW_1130_DEBUG:glew.obj
 0003:0001c23b       __GLEW_ARB_shader_draw_parameters 00000001400a123b     GLEW_1130_DEBUG:glew.obj
 0003:0001c23c       __GLEW_ARB_shader_group_vote 00000001400a123c     GLEW_1130_DEBUG:glew.obj
 0003:0001c23d       __GLEW_ARB_shader_image_load_store 00000001400a123d     GLEW_1130_DEBUG:glew.obj
 0003:0001c23e       __GLEW_ARB_shader_image_size 00000001400a123e     GLEW_1130_DEBUG:glew.obj
 0003:0001c23f       __GLEW_ARB_shader_objects  00000001400a123f     GLEW_1130_DEBUG:glew.obj
 0003:0001c240       __glewIsRenderbufferEXT    00000001400a1240     GLEW_1130_DEBUG:glew.obj
 0003:0001c248       __glewTextureParameterIuiv 00000001400a1248     GLEW_1130_DEBUG:glew.obj
 0003:0001c250       __glewRenderbufferStorageEXT 00000001400a1250     GLEW_1130_DEBUG:glew.obj
 0003:0001c258       __glewFramebufferTextureEXT 00000001400a1258     GLEW_1130_DEBUG:glew.obj
 0003:0001c260       __glewTextureParameterf    00000001400a1260     GLEW_1130_DEBUG:glew.obj
 0003:0001c268       __glewFramebufferTextureFaceEXT 00000001400a1268     GLEW_1130_DEBUG:glew.obj
 0003:0001c270       __glewTextureParameterfv   00000001400a1270     GLEW_1130_DEBUG:glew.obj
 0003:0001c278       __glewProgramParameteriEXT 00000001400a1278     GLEW_1130_DEBUG:glew.obj
 0003:0001c280       __glewTextureParameteri    00000001400a1280     GLEW_1130_DEBUG:glew.obj
 0003:0001c288       __glewProgramEnvParameters4fvEXT 00000001400a1288     GLEW_1130_DEBUG:glew.obj
 0003:0001c290       __glewTextureParameteriv   00000001400a1290     GLEW_1130_DEBUG:glew.obj
 0003:0001c298       __glewTextureStorage1D     00000001400a1298     GLEW_1130_DEBUG:glew.obj
 0003:0001c2a0       __glewProgramLocalParameters4fvEXT 00000001400a12a0     GLEW_1130_DEBUG:glew.obj
 0003:0001c2a8       __glewTextureStorage2D     00000001400a12a8     GLEW_1130_DEBUG:glew.obj
 0003:0001c2b0       __glewBindFragDataLocationEXT 00000001400a12b0     GLEW_1130_DEBUG:glew.obj
 0003:0001c2b8       __GLEW_ARB_shader_precision 00000001400a12b8     GLEW_1130_DEBUG:glew.obj
 0003:0001c2b9       __GLEW_ARB_shader_stencil_export 00000001400a12b9     GLEW_1130_DEBUG:glew.obj
 0003:0001c2ba       __GLEW_ARB_shader_storage_buffer_object 00000001400a12ba     GLEW_1130_DEBUG:glew.obj
 0003:0001c2bb       __GLEW_ARB_shader_subroutine 00000001400a12bb     GLEW_1130_DEBUG:glew.obj
 0003:0001c2bc       __GLEW_ARB_shader_texture_image_samples 00000001400a12bc     GLEW_1130_DEBUG:glew.obj
 0003:0001c2bd       __GLEW_ARB_shader_texture_lod 00000001400a12bd     GLEW_1130_DEBUG:glew.obj
 0003:0001c2be       __GLEW_ARB_shader_viewport_layer_array 00000001400a12be     GLEW_1130_DEBUG:glew.obj
 0003:0001c2bf       __GLEW_ARB_shading_language_100 00000001400a12bf     GLEW_1130_DEBUG:glew.obj
 0003:0001c2c0       __glewTextureStorage2DMultisample 00000001400a12c0     GLEW_1130_DEBUG:glew.obj
 0003:0001c2c8       __glewGetFragDataLocationEXT 00000001400a12c8     GLEW_1130_DEBUG:glew.obj
 0003:0001c2d0       __glewTextureStorage3D     00000001400a12d0     GLEW_1130_DEBUG:glew.obj
 0003:0001c2d8       __glewGetUniformuivEXT     00000001400a12d8     GLEW_1130_DEBUG:glew.obj
 0003:0001c2e0       __glewTextureStorage3DMultisample 00000001400a12e0     GLEW_1130_DEBUG:glew.obj
 0003:0001c2e8       __glewGetVertexAttribIivEXT 00000001400a12e8     GLEW_1130_DEBUG:glew.obj
 0003:0001c2f0       __glewTextureSubImage1D    00000001400a12f0     GLEW_1130_DEBUG:glew.obj
 0003:0001c2f8       __glewGetVertexAttribIuivEXT 00000001400a12f8     GLEW_1130_DEBUG:glew.obj
 0003:0001c300       __glewTextureSubImage2D    00000001400a1300     GLEW_1130_DEBUG:glew.obj
 0003:0001c308       __glewUniform1uiEXT        00000001400a1308     GLEW_1130_DEBUG:glew.obj
 0003:0001c310       __glewUniform1uivEXT       00000001400a1310     GLEW_1130_DEBUG:glew.obj
 0003:0001c318       __glewTextureSubImage3D    00000001400a1318     GLEW_1130_DEBUG:glew.obj
 0003:0001c320       __glewUniform2uiEXT        00000001400a1320     GLEW_1130_DEBUG:glew.obj
 0003:0001c328       __glewTransformFeedbackBufferBase 00000001400a1328     GLEW_1130_DEBUG:glew.obj
 0003:0001c330       __glewUniform2uivEXT       00000001400a1330     GLEW_1130_DEBUG:glew.obj
 0003:0001c338       __glewTransformFeedbackBufferRange 00000001400a1338     GLEW_1130_DEBUG:glew.obj
 0003:0001c340       __GLEW_ARB_shading_language_420pack 00000001400a1340     GLEW_1130_DEBUG:glew.obj
 0003:0001c341       __GLEW_ARB_shading_language_include 00000001400a1341     GLEW_1130_DEBUG:glew.obj
 0003:0001c342       __GLEW_ARB_shading_language_packing 00000001400a1342     GLEW_1130_DEBUG:glew.obj
 0003:0001c343       __GLEW_ARB_shadow          00000001400a1343     GLEW_1130_DEBUG:glew.obj
 0003:0001c344       __GLEW_ARB_shadow_ambient  00000001400a1344     GLEW_1130_DEBUG:glew.obj
 0003:0001c345       __GLEW_ARB_sparse_buffer   00000001400a1345     GLEW_1130_DEBUG:glew.obj
 0003:0001c346       __GLEW_ARB_sparse_texture  00000001400a1346     GLEW_1130_DEBUG:glew.obj
 0003:0001c347       __GLEW_ARB_sparse_texture2 00000001400a1347     GLEW_1130_DEBUG:glew.obj
 0003:0001c348       __glewUnmapNamedBuffer     00000001400a1348     GLEW_1130_DEBUG:glew.obj
 0003:0001c350       __glewUniform3uiEXT        00000001400a1350     GLEW_1130_DEBUG:glew.obj
 0003:0001c358       __glewUniform3uivEXT       00000001400a1358     GLEW_1130_DEBUG:glew.obj
 0003:0001c360       __glewVertexArrayAttribBinding 00000001400a1360     GLEW_1130_DEBUG:glew.obj
 0003:0001c368       __glewVertexArrayAttribFormat 00000001400a1368     GLEW_1130_DEBUG:glew.obj
 0003:0001c370       __glewUniform4uiEXT        00000001400a1370     GLEW_1130_DEBUG:glew.obj
 0003:0001c378       __glewUniform4uivEXT       00000001400a1378     GLEW_1130_DEBUG:glew.obj
 0003:0001c380       __glewVertexArrayAttribIFormat 00000001400a1380     GLEW_1130_DEBUG:glew.obj
 0003:0001c388       __glewVertexArrayAttribLFormat 00000001400a1388     GLEW_1130_DEBUG:glew.obj
 0003:0001c390       __glewVertexAttribI1iEXT   00000001400a1390     GLEW_1130_DEBUG:glew.obj
 0003:0001c398       __glewVertexAttribI1ivEXT  00000001400a1398     GLEW_1130_DEBUG:glew.obj
 0003:0001c3a0       __glewVertexArrayBindingDivisor 00000001400a13a0     GLEW_1130_DEBUG:glew.obj
 0003:0001c3a8       __glewVertexAttribI1uiEXT  00000001400a13a8     GLEW_1130_DEBUG:glew.obj
 0003:0001c3b0       __glewVertexArrayElementBuffer 00000001400a13b0     GLEW_1130_DEBUG:glew.obj
 0003:0001c3b8       __glewVertexAttribI1uivEXT 00000001400a13b8     GLEW_1130_DEBUG:glew.obj
 0003:0001c3c0       __glewVertexArrayVertexBuffer 00000001400a13c0     GLEW_1130_DEBUG:glew.obj
 0003:0001c3c8       __GLEW_ARB_sparse_texture_clamp 00000001400a13c8     GLEW_1130_DEBUG:glew.obj
 0003:0001c3c9       __GLEW_ARB_stencil_texturing 00000001400a13c9     GLEW_1130_DEBUG:glew.obj
 0003:0001c3ca       __GLEW_ARB_sync            00000001400a13ca     GLEW_1130_DEBUG:glew.obj
 0003:0001c3cb       __GLEW_ARB_tessellation_shader 00000001400a13cb     GLEW_1130_DEBUG:glew.obj
 0003:0001c3cc       __GLEW_ARB_texture_barrier 00000001400a13cc     GLEW_1130_DEBUG:glew.obj
 0003:0001c3cd       __GLEW_ARB_texture_border_clamp 00000001400a13cd     GLEW_1130_DEBUG:glew.obj
 0003:0001c3ce       __GLEW_ARB_texture_buffer_object 00000001400a13ce     GLEW_1130_DEBUG:glew.obj
 0003:0001c3cf       __GLEW_ARB_texture_buffer_object_rgb32 00000001400a13cf     GLEW_1130_DEBUG:glew.obj
 0003:0001c3d0       __glewVertexAttribI2iEXT   00000001400a13d0     GLEW_1130_DEBUG:glew.obj
 0003:0001c3d8       __glewVertexArrayVertexBuffers 00000001400a13d8     GLEW_1130_DEBUG:glew.obj
 0003:0001c3e0       __glewDrawBuffersARB       00000001400a13e0     GLEW_1130_DEBUG:glew.obj
 0003:0001c3e8       __glewVertexAttribI2ivEXT  00000001400a13e8     GLEW_1130_DEBUG:glew.obj
 0003:0001c3f0       __glewBlendEquationSeparateiARB 00000001400a13f0     GLEW_1130_DEBUG:glew.obj
 0003:0001c3f8       __glewVertexAttribI2uiEXT  00000001400a13f8     GLEW_1130_DEBUG:glew.obj
 0003:0001c400       __glewBlendEquationiARB    00000001400a1400     GLEW_1130_DEBUG:glew.obj
 0003:0001c408       __glewVertexAttribI2uivEXT 00000001400a1408     GLEW_1130_DEBUG:glew.obj
 0003:0001c410       __glewBlendFuncSeparateiARB 00000001400a1410     GLEW_1130_DEBUG:glew.obj
 0003:0001c418       __glewVertexAttribI3iEXT   00000001400a1418     GLEW_1130_DEBUG:glew.obj
 0003:0001c420       __glewBlendFunciARB        00000001400a1420     GLEW_1130_DEBUG:glew.obj
 0003:0001c428       __glewVertexAttribI3ivEXT  00000001400a1428     GLEW_1130_DEBUG:glew.obj
 0003:0001c430       __glewVertexAttribI3uiEXT  00000001400a1430     GLEW_1130_DEBUG:glew.obj
 0003:0001c438       __glewDrawElementsBaseVertex 00000001400a1438     GLEW_1130_DEBUG:glew.obj
 0003:0001c440       __glewDrawElementsInstancedBaseVertex 00000001400a1440     GLEW_1130_DEBUG:glew.obj
 0003:0001c448       __glewVertexAttribI3uivEXT 00000001400a1448     GLEW_1130_DEBUG:glew.obj
 0003:0001c450       __glewDrawRangeElementsBaseVertex 00000001400a1450     GLEW_1130_DEBUG:glew.obj
 0003:0001c458       __glewVertexAttribI4bvEXT  00000001400a1458     GLEW_1130_DEBUG:glew.obj
 0003:0001c460       __GLEW_ARB_texture_buffer_range 00000001400a1460     GLEW_1130_DEBUG:glew.obj
 0003:0001c461       __GLEW_ARB_texture_compression 00000001400a1461     GLEW_1130_DEBUG:glew.obj
 0003:0001c462       __GLEW_ARB_texture_compression_bptc 00000001400a1462     GLEW_1130_DEBUG:glew.obj
 0003:0001c463       __GLEW_ARB_texture_compression_rgtc 00000001400a1463     GLEW_1130_DEBUG:glew.obj
 0003:0001c464       __GLEW_ARB_texture_cube_map 00000001400a1464     GLEW_1130_DEBUG:glew.obj
 0003:0001c465       __GLEW_ARB_texture_cube_map_array 00000001400a1465     GLEW_1130_DEBUG:glew.obj
 0003:0001c466       __GLEW_ARB_texture_env_add 00000001400a1466     GLEW_1130_DEBUG:glew.obj
 0003:0001c467       __GLEW_ARB_texture_env_combine 00000001400a1467     GLEW_1130_DEBUG:glew.obj
 0003:0001c468       __glewVertexAttribI4iEXT   00000001400a1468     GLEW_1130_DEBUG:glew.obj
 0003:0001c470       __glewMultiDrawElementsBaseVertex 00000001400a1470     GLEW_1130_DEBUG:glew.obj
 0003:0001c478       __glewDrawArraysIndirect   00000001400a1478     GLEW_1130_DEBUG:glew.obj
 0003:0001c480       __glewVertexAttribI4ivEXT  00000001400a1480     GLEW_1130_DEBUG:glew.obj
 0003:0001c488       __glewVertexAttribI4svEXT  00000001400a1488     GLEW_1130_DEBUG:glew.obj
 0003:0001c490       __glewDrawElementsIndirect 00000001400a1490     GLEW_1130_DEBUG:glew.obj
 0003:0001c498       __glewFramebufferParameteri 00000001400a1498     GLEW_1130_DEBUG:glew.obj
 0003:0001c4a0       __glewVertexAttribI4ubvEXT 00000001400a14a0     GLEW_1130_DEBUG:glew.obj
 0003:0001c4a8       __glewGetFramebufferParameteriv 00000001400a14a8     GLEW_1130_DEBUG:glew.obj
 0003:0001c4b0       __glewVertexAttribI4uiEXT  00000001400a14b0     GLEW_1130_DEBUG:glew.obj
 0003:0001c4b8       __glewGetNamedFramebufferParameterivEXT 00000001400a14b8     GLEW_1130_DEBUG:glew.obj
 0003:0001c4c0       __glewVertexAttribI4uivEXT 00000001400a14c0     GLEW_1130_DEBUG:glew.obj
 0003:0001c4c8       __glewNamedFramebufferParameteriEXT 00000001400a14c8     GLEW_1130_DEBUG:glew.obj
 0003:0001c4d0       __glewVertexAttribI4usvEXT 00000001400a14d0     GLEW_1130_DEBUG:glew.obj
 0003:0001c4d8       __GLEW_ARB_texture_env_crossbar 00000001400a14d8     GLEW_1130_DEBUG:glew.obj
 0003:0001c4d9       __GLEW_ARB_texture_env_dot3 00000001400a14d9     GLEW_1130_DEBUG:glew.obj
 0003:0001c4da       __GLEW_ARB_texture_filter_minmax 00000001400a14da     GLEW_1130_DEBUG:glew.obj
 0003:0001c4db       __GLEW_ARB_texture_float   00000001400a14db     GLEW_1130_DEBUG:glew.obj
 0003:0001c4dc       __GLEW_ARB_texture_gather  00000001400a14dc     GLEW_1130_DEBUG:glew.obj
 0003:0001c4dd       __GLEW_ARB_texture_mirror_clamp_to_edge 00000001400a14dd     GLEW_1130_DEBUG:glew.obj
 0003:0001c4de       __GLEW_ARB_texture_mirrored_repeat 00000001400a14de     GLEW_1130_DEBUG:glew.obj
 0003:0001c4df       __GLEW_ARB_texture_multisample 00000001400a14df     GLEW_1130_DEBUG:glew.obj
 0003:0001c4e0       __glewVertexAttribIPointerEXT 00000001400a14e0     GLEW_1130_DEBUG:glew.obj
 0003:0001c4e8       __glewBindFramebuffer      00000001400a14e8     GLEW_1130_DEBUG:glew.obj
 0003:0001c4f0       __glewGetHistogramEXT      00000001400a14f0     GLEW_1130_DEBUG:glew.obj
 0003:0001c4f8       __glewBindRenderbuffer     00000001400a14f8     GLEW_1130_DEBUG:glew.obj
 0003:0001c500       __glewGetHistogramParameterfvEXT 00000001400a1500     GLEW_1130_DEBUG:glew.obj
 0003:0001c508       __glewBlitFramebuffer      00000001400a1508     GLEW_1130_DEBUG:glew.obj
 0003:0001c510       __glewGetHistogramParameterivEXT 00000001400a1510     GLEW_1130_DEBUG:glew.obj
 0003:0001c518       __glewCheckFramebufferStatus 00000001400a1518     GLEW_1130_DEBUG:glew.obj
 0003:0001c520       __glewGetMinmaxEXT         00000001400a1520     GLEW_1130_DEBUG:glew.obj
 0003:0001c528       __glewDeleteFramebuffers   00000001400a1528     GLEW_1130_DEBUG:glew.obj
 0003:0001c530       __glewGetMinmaxParameterfvEXT 00000001400a1530     GLEW_1130_DEBUG:glew.obj
 0003:0001c538       __glewDeleteRenderbuffers  00000001400a1538     GLEW_1130_DEBUG:glew.obj
 0003:0001c540       __glewGetMinmaxParameterivEXT 00000001400a1540     GLEW_1130_DEBUG:glew.obj
 0003:0001c548       __glewFramebufferRenderbuffer 00000001400a1548     GLEW_1130_DEBUG:glew.obj
 0003:0001c550       __glewHistogramEXT         00000001400a1550     GLEW_1130_DEBUG:glew.obj
 0003:0001c558       __glewFramebufferTexture1D 00000001400a1558     GLEW_1130_DEBUG:glew.obj
 0003:0001c560       __glewFramebufferTexture2D 00000001400a1560     GLEW_1130_DEBUG:glew.obj
 0003:0001c568       __glewMinmaxEXT            00000001400a1568     GLEW_1130_DEBUG:glew.obj
 0003:0001c570       __GLEW_ARB_texture_non_power_of_two 00000001400a1570     GLEW_1130_DEBUG:glew.obj
 0003:0001c571       __GLEW_ARB_texture_query_levels 00000001400a1571     GLEW_1130_DEBUG:glew.obj
 0003:0001c572       __GLEW_ARB_texture_query_lod 00000001400a1572     GLEW_1130_DEBUG:glew.obj
 0003:0001c573       __GLEW_ARB_texture_rectangle 00000001400a1573     GLEW_1130_DEBUG:glew.obj
 0003:0001c574       __GLEW_ARB_texture_rg      00000001400a1574     GLEW_1130_DEBUG:glew.obj
 0003:0001c575       __GLEW_ARB_texture_rgb10_a2ui 00000001400a1575     GLEW_1130_DEBUG:glew.obj
 0003:0001c576       __GLEW_ARB_texture_stencil8 00000001400a1576     GLEW_1130_DEBUG:glew.obj
 0003:0001c577       __GLEW_ARB_texture_storage 00000001400a1577     GLEW_1130_DEBUG:glew.obj
 0003:0001c578       __glewResetHistogramEXT    00000001400a1578     GLEW_1130_DEBUG:glew.obj
 0003:0001c580       __glewFramebufferTexture3D 00000001400a1580     GLEW_1130_DEBUG:glew.obj
 0003:0001c588       __glewFramebufferTextureLayer 00000001400a1588     GLEW_1130_DEBUG:glew.obj
 0003:0001c590       __glewResetMinmaxEXT       00000001400a1590     GLEW_1130_DEBUG:glew.obj
 0003:0001c598       __glewIndexFuncEXT         00000001400a1598     GLEW_1130_DEBUG:glew.obj
 0003:0001c5a0       __glewGenFramebuffers      00000001400a15a0     GLEW_1130_DEBUG:glew.obj
 0003:0001c5a8       __glewGenRenderbuffers     00000001400a15a8     GLEW_1130_DEBUG:glew.obj
 0003:0001c5b0       __glewIndexMaterialEXT     00000001400a15b0     GLEW_1130_DEBUG:glew.obj
 0003:0001c5b8       __glewApplyTextureEXT      00000001400a15b8     GLEW_1130_DEBUG:glew.obj
 0003:0001c5c0       __glewGenerateMipmap       00000001400a15c0     GLEW_1130_DEBUG:glew.obj
 0003:0001c5c8       __glewTextureLightEXT      00000001400a15c8     GLEW_1130_DEBUG:glew.obj
 0003:0001c5d0       __glewGetFramebufferAttachmentParameteriv 00000001400a15d0     GLEW_1130_DEBUG:glew.obj
 0003:0001c5d8       __glewTextureMaterialEXT   00000001400a15d8     GLEW_1130_DEBUG:glew.obj
 0003:0001c5e0       __glewGetRenderbufferParameteriv 00000001400a15e0     GLEW_1130_DEBUG:glew.obj
 0003:0001c5e8       __glewIsFramebuffer        00000001400a15e8     GLEW_1130_DEBUG:glew.obj
 0003:0001c5f0       __glewMultiDrawArraysEXT   00000001400a15f0     GLEW_1130_DEBUG:glew.obj
 0003:0001c5f8       __GLEW_ARB_texture_storage_multisample 00000001400a15f8     GLEW_1130_DEBUG:glew.obj
 0003:0001c5f9       __GLEW_ARB_texture_swizzle 00000001400a15f9     GLEW_1130_DEBUG:glew.obj
 0003:0001c5fa       __GLEW_ARB_texture_view    00000001400a15fa     GLEW_1130_DEBUG:glew.obj
 0003:0001c5fb       __GLEW_ARB_timer_query     00000001400a15fb     GLEW_1130_DEBUG:glew.obj
 0003:0001c5fc       __GLEW_ARB_transform_feedback2 00000001400a15fc     GLEW_1130_DEBUG:glew.obj
 0003:0001c5fd       __GLEW_ARB_transform_feedback3 00000001400a15fd     GLEW_1130_DEBUG:glew.obj
 0003:0001c5fe       __GLEW_ARB_transform_feedback_instanced 00000001400a15fe     GLEW_1130_DEBUG:glew.obj
 0003:0001c5ff       __GLEW_ARB_transform_feedback_overflow_query 00000001400a15ff     GLEW_1130_DEBUG:glew.obj
 0003:0001c600       __glewIsRenderbuffer       00000001400a1600     GLEW_1130_DEBUG:glew.obj
 0003:0001c608       __glewMultiDrawElementsEXT 00000001400a1608     GLEW_1130_DEBUG:glew.obj
 0003:0001c610       __glewRenderbufferStorage  00000001400a1610     GLEW_1130_DEBUG:glew.obj
 0003:0001c618       __glewSampleMaskEXT        00000001400a1618     GLEW_1130_DEBUG:glew.obj
 0003:0001c620       __glewRenderbufferStorageMultisample 00000001400a1620     GLEW_1130_DEBUG:glew.obj
 0003:0001c628       __glewSamplePatternEXT     00000001400a1628     GLEW_1130_DEBUG:glew.obj
 0003:0001c630       __glewFramebufferTextureARB 00000001400a1630     GLEW_1130_DEBUG:glew.obj
 0003:0001c638       __glewColorTableEXT        00000001400a1638     GLEW_1130_DEBUG:glew.obj
 0003:0001c640       __glewFramebufferTextureFaceARB 00000001400a1640     GLEW_1130_DEBUG:glew.obj
 0003:0001c648       __glewGetColorTableEXT     00000001400a1648     GLEW_1130_DEBUG:glew.obj
 0003:0001c650       __glewGetColorTableParameterfvEXT 00000001400a1650     GLEW_1130_DEBUG:glew.obj
 0003:0001c658       __glewFramebufferTextureLayerARB 00000001400a1658     GLEW_1130_DEBUG:glew.obj
 0003:0001c660       __glewGetColorTableParameterivEXT 00000001400a1660     GLEW_1130_DEBUG:glew.obj
 0003:0001c668       __glewProgramParameteriARB 00000001400a1668     GLEW_1130_DEBUG:glew.obj
 0003:0001c670       __glewGetPixelTransformParameterfvEXT 00000001400a1670     GLEW_1130_DEBUG:glew.obj
 0003:0001c678       __GLEW_ARB_transpose_matrix 00000001400a1678     GLEW_1130_DEBUG:glew.obj
 0003:0001c679       __GLEW_ARB_uniform_buffer_object 00000001400a1679     GLEW_1130_DEBUG:glew.obj
 0003:0001c67a       __GLEW_ARB_vertex_array_bgra 00000001400a167a     GLEW_1130_DEBUG:glew.obj
 0003:0001c67b       __GLEW_ARB_vertex_array_object 00000001400a167b     GLEW_1130_DEBUG:glew.obj
 0003:0001c67c       __GLEW_ARB_vertex_attrib_64bit 00000001400a167c     GLEW_1130_DEBUG:glew.obj
 0003:0001c67d       __GLEW_ARB_vertex_attrib_binding 00000001400a167d     GLEW_1130_DEBUG:glew.obj
 0003:0001c67e       __GLEW_ARB_vertex_blend    00000001400a167e     GLEW_1130_DEBUG:glew.obj
 0003:0001c67f       __GLEW_ARB_vertex_buffer_object 00000001400a167f     GLEW_1130_DEBUG:glew.obj
 0003:0001c680       __glewGetProgramBinary     00000001400a1680     GLEW_1130_DEBUG:glew.obj
 0003:0001c688       __glewGetPixelTransformParameterivEXT 00000001400a1688     GLEW_1130_DEBUG:glew.obj
 0003:0001c690       __glewProgramBinary        00000001400a1690     GLEW_1130_DEBUG:glew.obj
 0003:0001c698       __glewPixelTransformParameterfEXT 00000001400a1698     GLEW_1130_DEBUG:glew.obj
 0003:0001c6a0       __glewProgramParameteri    00000001400a16a0     GLEW_1130_DEBUG:glew.obj
 0003:0001c6a8       __glewGetCompressedTextureSubImage 00000001400a16a8     GLEW_1130_DEBUG:glew.obj
 0003:0001c6b0       __glewPixelTransformParameterfvEXT 00000001400a16b0     GLEW_1130_DEBUG:glew.obj
 0003:0001c6b8       __glewGetTextureSubImage   00000001400a16b8     GLEW_1130_DEBUG:glew.obj
 0003:0001c6c0       __glewPixelTransformParameteriEXT 00000001400a16c0     GLEW_1130_DEBUG:glew.obj
 0003:0001c6c8       __glewPixelTransformParameterivEXT 00000001400a16c8     GLEW_1130_DEBUG:glew.obj
 0003:0001c6d0       __glewGetUniformdv         00000001400a16d0     GLEW_1130_DEBUG:glew.obj
 0003:0001c6d8       __glewPointParameterfEXT   00000001400a16d8     GLEW_1130_DEBUG:glew.obj
 0003:0001c6e0       __glewUniform1d            00000001400a16e0     GLEW_1130_DEBUG:glew.obj
 0003:0001c6e8       __glewPointParameterfvEXT  00000001400a16e8     GLEW_1130_DEBUG:glew.obj
 0003:0001c6f0       __glewUniform1dv           00000001400a16f0     GLEW_1130_DEBUG:glew.obj
 0003:0001c6f8       __glewUniform2d            00000001400a16f8     GLEW_1130_DEBUG:glew.obj
 0003:0001c700       __GLEW_ARB_vertex_program  00000001400a1700     GLEW_1130_DEBUG:glew.obj
 0003:0001c701       __GLEW_ARB_vertex_shader   00000001400a1701     GLEW_1130_DEBUG:glew.obj
 0003:0001c702       __GLEW_ARB_vertex_type_10f_11f_11f_rev 00000001400a1702     GLEW_1130_DEBUG:glew.obj
 0003:0001c703       __GLEW_ARB_vertex_type_2_10_10_10_rev 00000001400a1703     GLEW_1130_DEBUG:glew.obj
 0003:0001c704       __GLEW_ARB_viewport_array  00000001400a1704     GLEW_1130_DEBUG:glew.obj
 0003:0001c705       __GLEW_ARB_window_pos      00000001400a1705     GLEW_1130_DEBUG:glew.obj
 0003:0001c706       __GLEW_ATIX_point_sprites  00000001400a1706     GLEW_1130_DEBUG:glew.obj
 0003:0001c707       __GLEW_ATIX_texture_env_combine3 00000001400a1707     GLEW_1130_DEBUG:glew.obj
 0003:0001c708       __glewPolygonOffsetEXT     00000001400a1708     GLEW_1130_DEBUG:glew.obj
 0003:0001c710       __glewUniform2dv           00000001400a1710     GLEW_1130_DEBUG:glew.obj
 0003:0001c718       __glewPolygonOffsetClampEXT 00000001400a1718     GLEW_1130_DEBUG:glew.obj
 0003:0001c720       __glewProvokingVertexEXT   00000001400a1720     GLEW_1130_DEBUG:glew.obj
 0003:0001c728       __glewUniform3d            00000001400a1728     GLEW_1130_DEBUG:glew.obj
 0003:0001c730       __glewCoverageModulationNV 00000001400a1730     GLEW_1130_DEBUG:glew.obj
 0003:0001c738       __glewUniform3dv           00000001400a1738     GLEW_1130_DEBUG:glew.obj
 0003:0001c740       __glewCoverageModulationTableNV 00000001400a1740     GLEW_1130_DEBUG:glew.obj
 0003:0001c748       __glewUniform4d            00000001400a1748     GLEW_1130_DEBUG:glew.obj
 0003:0001c750       __glewGetCoverageModulationTableNV 00000001400a1750     GLEW_1130_DEBUG:glew.obj
 0003:0001c758       __glewUniform4dv           00000001400a1758     GLEW_1130_DEBUG:glew.obj
 0003:0001c760       __glewRasterSamplesEXT     00000001400a1760     GLEW_1130_DEBUG:glew.obj
 0003:0001c768       __glewUniformMatrix2dv     00000001400a1768     GLEW_1130_DEBUG:glew.obj
 0003:0001c770       __glewUniformMatrix2x3dv   00000001400a1770     GLEW_1130_DEBUG:glew.obj
 0003:0001c778       __glewBeginSceneEXT        00000001400a1778     GLEW_1130_DEBUG:glew.obj
 0003:0001c780       __GLEW_ATIX_texture_env_route 00000001400a1780     GLEW_1130_DEBUG:glew.obj
 0003:0001c781       __GLEW_ATIX_vertex_shader_output_point_size 00000001400a1781     GLEW_1130_DEBUG:glew.obj
 0003:0001c782       __GLEW_ATI_draw_buffers    00000001400a1782     GLEW_1130_DEBUG:glew.obj
 0003:0001c783       __GLEW_ATI_element_array   00000001400a1783     GLEW_1130_DEBUG:glew.obj
 0003:0001c784       __GLEW_ATI_envmap_bumpmap  00000001400a1784     GLEW_1130_DEBUG:glew.obj
 0003:0001c785       __GLEW_ATI_fragment_shader 00000001400a1785     GLEW_1130_DEBUG:glew.obj
 0003:0001c786       __GLEW_ATI_map_object_buffer 00000001400a1786     GLEW_1130_DEBUG:glew.obj
 0003:0001c787       __GLEW_ATI_meminfo         00000001400a1787     GLEW_1130_DEBUG:glew.obj
 0003:0001c788       __glewUniformMatrix2x4dv   00000001400a1788     GLEW_1130_DEBUG:glew.obj
 0003:0001c790       __glewEndSceneEXT          00000001400a1790     GLEW_1130_DEBUG:glew.obj
 0003:0001c798       __glewUniformMatrix3dv     00000001400a1798     GLEW_1130_DEBUG:glew.obj
 0003:0001c7a0       __glewSecondaryColor3bEXT  00000001400a17a0     GLEW_1130_DEBUG:glew.obj
 0003:0001c7a8       __glewUniformMatrix3x2dv   00000001400a17a8     GLEW_1130_DEBUG:glew.obj
 0003:0001c7b0       __glewSecondaryColor3bvEXT 00000001400a17b0     GLEW_1130_DEBUG:glew.obj
 0003:0001c7b8       __glewUniformMatrix3x4dv   00000001400a17b8     GLEW_1130_DEBUG:glew.obj
 0003:0001c7c0       __glewSecondaryColor3dEXT  00000001400a17c0     GLEW_1130_DEBUG:glew.obj
 0003:0001c7c8       __glewUniformMatrix4dv     00000001400a17c8     GLEW_1130_DEBUG:glew.obj
 0003:0001c7d0       __glewSecondaryColor3dvEXT 00000001400a17d0     GLEW_1130_DEBUG:glew.obj
 0003:0001c7d8       __glewUniformMatrix4x2dv   00000001400a17d8     GLEW_1130_DEBUG:glew.obj
 0003:0001c7e0       __glewSecondaryColor3fEXT  00000001400a17e0     GLEW_1130_DEBUG:glew.obj
 0003:0001c7e8       __glewSecondaryColor3fvEXT 00000001400a17e8     GLEW_1130_DEBUG:glew.obj
 0003:0001c7f0       __glewUniformMatrix4x3dv   00000001400a17f0     GLEW_1130_DEBUG:glew.obj
 0003:0001c7f8       __glewSecondaryColor3iEXT  00000001400a17f8     GLEW_1130_DEBUG:glew.obj
 0003:0001c800       __glewGetUniformi64vARB    00000001400a1800     GLEW_1130_DEBUG:glew.obj
 0003:0001c808       __glewGetUniformui64vARB   00000001400a1808     GLEW_1130_DEBUG:glew.obj
 0003:0001c810       __glewSecondaryColor3ivEXT 00000001400a1810     GLEW_1130_DEBUG:glew.obj
 0003:0001c818       __GLEW_ATI_pn_triangles    00000001400a1818     GLEW_1130_DEBUG:glew.obj
 0003:0001c819       __GLEW_ATI_separate_stencil 00000001400a1819     GLEW_1130_DEBUG:glew.obj
 0003:0001c81a       __GLEW_ATI_shader_texture_lod 00000001400a181a     GLEW_1130_DEBUG:glew.obj
 0003:0001c81b       __GLEW_ATI_text_fragment_shader 00000001400a181b     GLEW_1130_DEBUG:glew.obj
 0003:0001c81c       __GLEW_ATI_texture_compression_3dc 00000001400a181c     GLEW_1130_DEBUG:glew.obj
 0003:0001c81d       __GLEW_ATI_texture_env_combine3 00000001400a181d     GLEW_1130_DEBUG:glew.obj
 0003:0001c81e       __GLEW_ATI_texture_float   00000001400a181e     GLEW_1130_DEBUG:glew.obj
 0003:0001c81f       __GLEW_ATI_texture_mirror_once 00000001400a181f     GLEW_1130_DEBUG:glew.obj
 0003:0001c820       __glewGetnUniformi64vARB   00000001400a1820     GLEW_1130_DEBUG:glew.obj
 0003:0001c828       __glewSecondaryColor3sEXT  00000001400a1828     GLEW_1130_DEBUG:glew.obj
 0003:0001c830       __glewSecondaryColor3svEXT 00000001400a1830     GLEW_1130_DEBUG:glew.obj
 0003:0001c838       __glewGetnUniformui64vARB  00000001400a1838     GLEW_1130_DEBUG:glew.obj
 0003:0001c840       __glewSecondaryColor3ubEXT 00000001400a1840     GLEW_1130_DEBUG:glew.obj
 0003:0001c848       __glewProgramUniform1i64ARB 00000001400a1848     GLEW_1130_DEBUG:glew.obj
 0003:0001c850       __glewProgramUniform1i64vARB 00000001400a1850     GLEW_1130_DEBUG:glew.obj
 0003:0001c858       __glewSecondaryColor3ubvEXT 00000001400a1858     GLEW_1130_DEBUG:glew.obj
 0003:0001c860       __glewProgramUniform1ui64ARB 00000001400a1860     GLEW_1130_DEBUG:glew.obj
 0003:0001c868       __glewSecondaryColor3uiEXT 00000001400a1868     GLEW_1130_DEBUG:glew.obj
 0003:0001c870       __glewSecondaryColor3uivEXT 00000001400a1870     GLEW_1130_DEBUG:glew.obj
 0003:0001c878       __glewProgramUniform1ui64vARB 00000001400a1878     GLEW_1130_DEBUG:glew.obj
 0003:0001c880       __glewProgramUniform2i64ARB 00000001400a1880     GLEW_1130_DEBUG:glew.obj
 0003:0001c888       __glewSecondaryColor3usEXT 00000001400a1888     GLEW_1130_DEBUG:glew.obj
 0003:0001c890       __GLEW_ATI_vertex_array_object 00000001400a1890     GLEW_1130_DEBUG:glew.obj
 0003:0001c891       __GLEW_ATI_vertex_attrib_array_object 00000001400a1891     GLEW_1130_DEBUG:glew.obj
 0003:0001c892       __GLEW_ATI_vertex_streams  00000001400a1892     GLEW_1130_DEBUG:glew.obj
 0003:0001c893       __GLEW_EXT_422_pixels      00000001400a1893     GLEW_1130_DEBUG:glew.obj
 0003:0001c894       __GLEW_EXT_Cg_shader       00000001400a1894     GLEW_1130_DEBUG:glew.obj
 0003:0001c895       __GLEW_EXT_abgr            00000001400a1895     GLEW_1130_DEBUG:glew.obj
 0003:0001c896       __GLEW_EXT_bgra            00000001400a1896     GLEW_1130_DEBUG:glew.obj
 0003:0001c897       __GLEW_EXT_bindable_uniform 00000001400a1897     GLEW_1130_DEBUG:glew.obj
 0003:0001c898       __glewSecondaryColor3usvEXT 00000001400a1898     GLEW_1130_DEBUG:glew.obj
 0003:0001c8a0       __glewProgramUniform2i64vARB 00000001400a18a0     GLEW_1130_DEBUG:glew.obj
 0003:0001c8a8       __glewProgramUniform2ui64ARB 00000001400a18a8     GLEW_1130_DEBUG:glew.obj
 0003:0001c8b0       __glewSecondaryColorPointerEXT 00000001400a18b0     GLEW_1130_DEBUG:glew.obj
 0003:0001c8b8       __glewProgramUniform2ui64vARB 00000001400a18b8     GLEW_1130_DEBUG:glew.obj
 0003:0001c8c0       __glewActiveProgramEXT     00000001400a18c0     GLEW_1130_DEBUG:glew.obj
 0003:0001c8c8       __glewCreateShaderProgramEXT 00000001400a18c8     GLEW_1130_DEBUG:glew.obj
 0003:0001c8d0       __glewProgramUniform3i64ARB 00000001400a18d0     GLEW_1130_DEBUG:glew.obj
 0003:0001c8d8       __glewProgramUniform3i64vARB 00000001400a18d8     GLEW_1130_DEBUG:glew.obj
 0003:0001c8e0       __glewUseShaderProgramEXT  00000001400a18e0     GLEW_1130_DEBUG:glew.obj
 0003:0001c8e8       __glewProgramUniform3ui64ARB 00000001400a18e8     GLEW_1130_DEBUG:glew.obj
 0003:0001c8f0       __glewBindImageTextureEXT  00000001400a18f0     GLEW_1130_DEBUG:glew.obj
 0003:0001c8f8       __glewProgramUniform3ui64vARB 00000001400a18f8     GLEW_1130_DEBUG:glew.obj
 0003:0001c900       __glewMemoryBarrierEXT     00000001400a1900     GLEW_1130_DEBUG:glew.obj
 0003:0001c908       __glewActiveStencilFaceEXT 00000001400a1908     GLEW_1130_DEBUG:glew.obj
 0003:0001c910       __glewProgramUniform4i64ARB 00000001400a1910     GLEW_1130_DEBUG:glew.obj
 0003:0001c918       __glewProgramUniform4i64vARB 00000001400a1918     GLEW_1130_DEBUG:glew.obj
 0003:0001c920       __glewTexSubImage1DEXT     00000001400a1920     GLEW_1130_DEBUG:glew.obj
 0003:0001c928       __GLEW_EXT_blend_color     00000001400a1928     GLEW_1130_DEBUG:glew.obj
 0003:0001c929       __GLEW_EXT_blend_equation_separate 00000001400a1929     GLEW_1130_DEBUG:glew.obj
 0003:0001c92a       __GLEW_EXT_blend_func_separate 00000001400a192a     GLEW_1130_DEBUG:glew.obj
 0003:0001c92b       __GLEW_EXT_blend_logic_op  00000001400a192b     GLEW_1130_DEBUG:glew.obj
 0003:0001c92c       __GLEW_EXT_blend_minmax    00000001400a192c     GLEW_1130_DEBUG:glew.obj
 0003:0001c92d       __GLEW_EXT_blend_subtract  00000001400a192d     GLEW_1130_DEBUG:glew.obj
 0003:0001c92e       __GLEW_EXT_clip_volume_hint 00000001400a192e     GLEW_1130_DEBUG:glew.obj
 0003:0001c92f       __GLEW_EXT_cmyka           00000001400a192f     GLEW_1130_DEBUG:glew.obj
 0003:0001c930       __glewTexSubImage2DEXT     00000001400a1930     GLEW_1130_DEBUG:glew.obj
 0003:0001c938       __glewProgramUniform4ui64ARB 00000001400a1938     GLEW_1130_DEBUG:glew.obj
 0003:0001c940       __glewTexSubImage3DEXT     00000001400a1940     GLEW_1130_DEBUG:glew.obj
 0003:0001c948       __glewProgramUniform4ui64vARB 00000001400a1948     GLEW_1130_DEBUG:glew.obj
 0003:0001c950       __glewUniform1i64ARB       00000001400a1950     GLEW_1130_DEBUG:glew.obj
 0003:0001c958       __glewTexImage3DEXT        00000001400a1958     GLEW_1130_DEBUG:glew.obj
 0003:0001c960       __glewUniform1i64vARB      00000001400a1960     GLEW_1130_DEBUG:glew.obj
 0003:0001c968       __glewFramebufferTextureLayerEXT 00000001400a1968     GLEW_1130_DEBUG:glew.obj
 0003:0001c970       __glewTexBufferEXT         00000001400a1970     GLEW_1130_DEBUG:glew.obj
 0003:0001c978       __glewUniform1ui64ARB      00000001400a1978     GLEW_1130_DEBUG:glew.obj
 0003:0001c980       __glewClearColorIiEXT      00000001400a1980     GLEW_1130_DEBUG:glew.obj
 0003:0001c988       __glewUniform1ui64vARB     00000001400a1988     GLEW_1130_DEBUG:glew.obj
 0003:0001c990       __glewClearColorIuiEXT     00000001400a1990     GLEW_1130_DEBUG:glew.obj
 0003:0001c998       __glewUniform2i64ARB       00000001400a1998     GLEW_1130_DEBUG:glew.obj
 0003:0001c9a0       __glewUniform2i64vARB      00000001400a19a0     GLEW_1130_DEBUG:glew.obj
 0003:0001c9a8       __glewGetTexParameterIivEXT 00000001400a19a8     GLEW_1130_DEBUG:glew.obj
 0003:0001c9b0       __GLEW_EXT_color_subtable  00000001400a19b0     GLEW_1130_DEBUG:glew.obj
 0003:0001c9b1       __GLEW_EXT_compiled_vertex_array 00000001400a19b1     GLEW_1130_DEBUG:glew.obj
 0003:0001c9b2       __GLEW_EXT_convolution     00000001400a19b2     GLEW_1130_DEBUG:glew.obj
 0003:0001c9b3       __GLEW_EXT_coordinate_frame 00000001400a19b3     GLEW_1130_DEBUG:glew.obj
 0003:0001c9b4       __GLEW_EXT_copy_texture    00000001400a19b4     GLEW_1130_DEBUG:glew.obj
 0003:0001c9b5       __GLEW_EXT_cull_vertex     00000001400a19b5     GLEW_1130_DEBUG:glew.obj
 0003:0001c9b6       __GLEW_EXT_debug_label     00000001400a19b6     GLEW_1130_DEBUG:glew.obj
 0003:0001c9b7       __GLEW_EXT_debug_marker    00000001400a19b7     GLEW_1130_DEBUG:glew.obj
 0003:0001c9b8       __glewUniform2ui64ARB      00000001400a19b8     GLEW_1130_DEBUG:glew.obj
 0003:0001c9c0       __glewGetTexParameterIuivEXT 00000001400a19c0     GLEW_1130_DEBUG:glew.obj
 0003:0001c9c8       __glewUniform2ui64vARB     00000001400a19c8     GLEW_1130_DEBUG:glew.obj
 0003:0001c9d0       __glewTexParameterIivEXT   00000001400a19d0     GLEW_1130_DEBUG:glew.obj
 0003:0001c9d8       __glewTexParameterIuivEXT  00000001400a19d8     GLEW_1130_DEBUG:glew.obj
 0003:0001c9e0       __glewUniform3i64ARB       00000001400a19e0     GLEW_1130_DEBUG:glew.obj
 0003:0001c9e8       __glewUniform3i64vARB      00000001400a19e8     GLEW_1130_DEBUG:glew.obj
 0003:0001c9f0       __glewAreTexturesResidentEXT 00000001400a19f0     GLEW_1130_DEBUG:glew.obj
 0003:0001c9f8       __glewUniform3ui64ARB      00000001400a19f8     GLEW_1130_DEBUG:glew.obj
 0003:0001ca00       __glewBindTextureEXT       00000001400a1a00     GLEW_1130_DEBUG:glew.obj
 0003:0001ca08       __glewDeleteTexturesEXT    00000001400a1a08     GLEW_1130_DEBUG:glew.obj
 0003:0001ca10       __glewUniform3ui64vARB     00000001400a1a10     GLEW_1130_DEBUG:glew.obj
 0003:0001ca18       __glewUniform4i64ARB       00000001400a1a18     GLEW_1130_DEBUG:glew.obj
 0003:0001ca20       __glewGenTexturesEXT       00000001400a1a20     GLEW_1130_DEBUG:glew.obj
 0003:0001ca28       __glewUniform4i64vARB      00000001400a1a28     GLEW_1130_DEBUG:glew.obj
 0003:0001ca30       __GLEW_EXT_depth_bounds_test 00000001400a1a30     GLEW_1130_DEBUG:glew.obj
 0003:0001ca31       __GLEW_EXT_direct_state_access 00000001400a1a31     GLEW_1130_DEBUG:glew.obj
 0003:0001ca32       __GLEW_EXT_draw_buffers2   00000001400a1a32     GLEW_1130_DEBUG:glew.obj
 0003:0001ca33       __GLEW_EXT_draw_instanced  00000001400a1a33     GLEW_1130_DEBUG:glew.obj
 0003:0001ca34       __GLEW_EXT_draw_range_elements 00000001400a1a34     GLEW_1130_DEBUG:glew.obj
 0003:0001ca35       __GLEW_EXT_fog_coord       00000001400a1a35     GLEW_1130_DEBUG:glew.obj
 0003:0001ca36       __GLEW_EXT_fragment_lighting 00000001400a1a36     GLEW_1130_DEBUG:glew.obj
 0003:0001ca37       __GLEW_EXT_framebuffer_blit 00000001400a1a37     GLEW_1130_DEBUG:glew.obj
 0003:0001ca38       __glewIsTextureEXT         00000001400a1a38     GLEW_1130_DEBUG:glew.obj
 0003:0001ca40       __glewUniform4ui64ARB      00000001400a1a40     GLEW_1130_DEBUG:glew.obj
 0003:0001ca48       __glewPrioritizeTexturesEXT 00000001400a1a48     GLEW_1130_DEBUG:glew.obj
 0003:0001ca50       __glewUniform4ui64vARB     00000001400a1a50     GLEW_1130_DEBUG:glew.obj
 0003:0001ca58       __glewTextureNormalEXT     00000001400a1a58     GLEW_1130_DEBUG:glew.obj
 0003:0001ca60       __glewColorSubTable        00000001400a1a60     GLEW_1130_DEBUG:glew.obj
 0003:0001ca68       __glewGetQueryObjecti64vEXT 00000001400a1a68     GLEW_1130_DEBUG:glew.obj
 0003:0001ca70       __glewColorTable           00000001400a1a70     GLEW_1130_DEBUG:glew.obj
 0003:0001ca78       __glewGetQueryObjectui64vEXT 00000001400a1a78     GLEW_1130_DEBUG:glew.obj
 0003:0001ca80       __glewBeginTransformFeedbackEXT 00000001400a1a80     GLEW_1130_DEBUG:glew.obj
 0003:0001ca88       __glewColorTableParameterfv 00000001400a1a88     GLEW_1130_DEBUG:glew.obj
 0003:0001ca90       __glewColorTableParameteriv 00000001400a1a90     GLEW_1130_DEBUG:glew.obj
 0003:0001ca98       __glewBindBufferBaseEXT    00000001400a1a98     GLEW_1130_DEBUG:glew.obj
 0003:0001caa0       __glewConvolutionFilter1D  00000001400a1aa0     GLEW_1130_DEBUG:glew.obj
 0003:0001caa8       __glewBindBufferOffsetEXT  00000001400a1aa8     GLEW_1130_DEBUG:glew.obj
 0003:0001cab0       __glewBindBufferRangeEXT   00000001400a1ab0     GLEW_1130_DEBUG:glew.obj
 0003:0001cab8       __glewConvolutionFilter2D  00000001400a1ab8     GLEW_1130_DEBUG:glew.obj
 0003:0001cac0       __GLEW_EXT_framebuffer_multisample 00000001400a1ac0     GLEW_1130_DEBUG:glew.obj
 0003:0001cac1       __GLEW_EXT_framebuffer_multisample_blit_scaled 00000001400a1ac1     GLEW_1130_DEBUG:glew.obj
 0003:0001cac2       __GLEW_EXT_framebuffer_object 00000001400a1ac2     GLEW_1130_DEBUG:glew.obj
 0003:0001cac3       __GLEW_EXT_framebuffer_sRGB 00000001400a1ac3     GLEW_1130_DEBUG:glew.obj
 0003:0001cac4       __GLEW_EXT_geometry_shader4 00000001400a1ac4     GLEW_1130_DEBUG:glew.obj
 0003:0001cac5       __GLEW_EXT_gpu_program_parameters 00000001400a1ac5     GLEW_1130_DEBUG:glew.obj
 0003:0001cac6       __GLEW_EXT_gpu_shader4     00000001400a1ac6     GLEW_1130_DEBUG:glew.obj
 0003:0001cac7       __GLEW_EXT_histogram       00000001400a1ac7     GLEW_1130_DEBUG:glew.obj
 0003:0001cac8       __glewConvolutionParameterf 00000001400a1ac8     GLEW_1130_DEBUG:glew.obj
 0003:0001cad0       __glewEndTransformFeedbackEXT 00000001400a1ad0     GLEW_1130_DEBUG:glew.obj
 0003:0001cad8       __glewConvolutionParameterfv 00000001400a1ad8     GLEW_1130_DEBUG:glew.obj
 0003:0001cae0       __glewGetTransformFeedbackVaryingEXT 00000001400a1ae0     GLEW_1130_DEBUG:glew.obj
 0003:0001cae8       __glewConvolutionParameteri 00000001400a1ae8     GLEW_1130_DEBUG:glew.obj
 0003:0001caf0       __glewTransformFeedbackVaryingsEXT 00000001400a1af0     GLEW_1130_DEBUG:glew.obj
 0003:0001caf8       __glewArrayElementEXT      00000001400a1af8     GLEW_1130_DEBUG:glew.obj
 0003:0001cb00       __glewConvolutionParameteriv 00000001400a1b00     GLEW_1130_DEBUG:glew.obj
 0003:0001cb08       __glewColorPointerEXT      00000001400a1b08     GLEW_1130_DEBUG:glew.obj
 0003:0001cb10       __glewCopyColorSubTable    00000001400a1b10     GLEW_1130_DEBUG:glew.obj
 0003:0001cb18       __glewDrawArraysEXT        00000001400a1b18     GLEW_1130_DEBUG:glew.obj
 0003:0001cb20       __glewCopyColorTable       00000001400a1b20     GLEW_1130_DEBUG:glew.obj
 0003:0001cb28       __glewCopyConvolutionFilter1D 00000001400a1b28     GLEW_1130_DEBUG:glew.obj
 0003:0001cb30       __glewEdgeFlagPointerEXT   00000001400a1b30     GLEW_1130_DEBUG:glew.obj
 0003:0001cb38       __glewCopyConvolutionFilter2D 00000001400a1b38     GLEW_1130_DEBUG:glew.obj
 0003:0001cb40       __GLEW_EXT_index_array_formats 00000001400a1b40     GLEW_1130_DEBUG:glew.obj
 0003:0001cb41       __GLEW_EXT_index_func      00000001400a1b41     GLEW_1130_DEBUG:glew.obj
 0003:0001cb42       __GLEW_EXT_index_material  00000001400a1b42     GLEW_1130_DEBUG:glew.obj
 0003:0001cb43       __GLEW_EXT_index_texture   00000001400a1b43     GLEW_1130_DEBUG:glew.obj
 0003:0001cb44       __GLEW_EXT_light_texture   00000001400a1b44     GLEW_1130_DEBUG:glew.obj
 0003:0001cb45       __GLEW_EXT_misc_attribute  00000001400a1b45     GLEW_1130_DEBUG:glew.obj
 0003:0001cb46       __GLEW_EXT_multi_draw_arrays 00000001400a1b46     GLEW_1130_DEBUG:glew.obj
 0003:0001cb47       __GLEW_EXT_multisample     00000001400a1b47     GLEW_1130_DEBUG:glew.obj
 0003:0001cb48       __glewIndexPointerEXT      00000001400a1b48     GLEW_1130_DEBUG:glew.obj
 0003:0001cb50       __glewNormalPointerEXT     00000001400a1b50     GLEW_1130_DEBUG:glew.obj
 0003:0001cb58       __glewGetColorTable        00000001400a1b58     GLEW_1130_DEBUG:glew.obj
 0003:0001cb60       __glewGetColorTableParameterfv 00000001400a1b60     GLEW_1130_DEBUG:glew.obj
 0003:0001cb68       __glewTexCoordPointerEXT   00000001400a1b68     GLEW_1130_DEBUG:glew.obj
 0003:0001cb70       __glewVertexPointerEXT     00000001400a1b70     GLEW_1130_DEBUG:glew.obj
 0003:0001cb78       __glewGetColorTableParameteriv 00000001400a1b78     GLEW_1130_DEBUG:glew.obj
 0003:0001cb80       __glewGetConvolutionFilter 00000001400a1b80     GLEW_1130_DEBUG:glew.obj
 0003:0001cb88       __glewGetVertexAttribLdvEXT 00000001400a1b88     GLEW_1130_DEBUG:glew.obj
 0003:0001cb90       __glewVertexArrayVertexAttribLOffsetEXT 00000001400a1b90     GLEW_1130_DEBUG:glew.obj
 0003:0001cb98       __glewGetConvolutionParameterfv 00000001400a1b98     GLEW_1130_DEBUG:glew.obj
 0003:0001cba0       __glewGetConvolutionParameteriv 00000001400a1ba0     GLEW_1130_DEBUG:glew.obj
 0003:0001cba8       __glewVertexAttribL1dEXT   00000001400a1ba8     GLEW_1130_DEBUG:glew.obj
 0003:0001cbb0       __glewVertexAttribL1dvEXT  00000001400a1bb0     GLEW_1130_DEBUG:glew.obj
 0003:0001cbb8       __glewGetHistogram         00000001400a1bb8     GLEW_1130_DEBUG:glew.obj
 0003:0001cbc0       __glewGetHistogramParameterfv 00000001400a1bc0     GLEW_1130_DEBUG:glew.obj
 0003:0001cbc8       __GLEW_EXT_packed_depth_stencil 00000001400a1bc8     GLEW_1130_DEBUG:glew.obj
 0003:0001cbc9       __GLEW_EXT_packed_float    00000001400a1bc9     GLEW_1130_DEBUG:glew.obj
 0003:0001cbca       __GLEW_EXT_packed_pixels   00000001400a1bca     GLEW_1130_DEBUG:glew.obj
 0003:0001cbcb       __GLEW_EXT_paletted_texture 00000001400a1bcb     GLEW_1130_DEBUG:glew.obj
 0003:0001cbcc       __GLEW_EXT_pixel_buffer_object 00000001400a1bcc     GLEW_1130_DEBUG:glew.obj
 0003:0001cbcd       __GLEW_EXT_pixel_transform 00000001400a1bcd     GLEW_1130_DEBUG:glew.obj
 0003:0001cbce       __GLEW_EXT_pixel_transform_color_table 00000001400a1bce     GLEW_1130_DEBUG:glew.obj
 0003:0001cbcf       __GLEW_EXT_point_parameters 00000001400a1bcf     GLEW_1130_DEBUG:glew.obj
 0003:0001cbd0       __glewVertexAttribL2dEXT   00000001400a1bd0     GLEW_1130_DEBUG:glew.obj
 0003:0001cbd8       __glewVertexAttribL2dvEXT  00000001400a1bd8     GLEW_1130_DEBUG:glew.obj
 0003:0001cbe0       __glewGetHistogramParameteriv 00000001400a1be0     GLEW_1130_DEBUG:glew.obj
 0003:0001cbe8       __glewGetMinmax            00000001400a1be8     GLEW_1130_DEBUG:glew.obj
 0003:0001cbf0       __glewVertexAttribL3dEXT   00000001400a1bf0     GLEW_1130_DEBUG:glew.obj
 0003:0001cbf8       __glewGetMinmaxParameterfv 00000001400a1bf8     GLEW_1130_DEBUG:glew.obj
 0003:0001cc00       __glewVertexAttribL3dvEXT  00000001400a1c00     GLEW_1130_DEBUG:glew.obj
 0003:0001cc08       __glewVertexAttribL4dEXT   00000001400a1c08     GLEW_1130_DEBUG:glew.obj
 0003:0001cc10       __glewGetMinmaxParameteriv 00000001400a1c10     GLEW_1130_DEBUG:glew.obj
 0003:0001cc18       __glewVertexAttribL4dvEXT  00000001400a1c18     GLEW_1130_DEBUG:glew.obj
 0003:0001cc20       __glewGetSeparableFilter   00000001400a1c20     GLEW_1130_DEBUG:glew.obj
 0003:0001cc28       __glewHistogram            00000001400a1c28     GLEW_1130_DEBUG:glew.obj
 0003:0001cc30       __glewVertexAttribLPointerEXT 00000001400a1c30     GLEW_1130_DEBUG:glew.obj
 0003:0001cc38       __glewMinmax               00000001400a1c38     GLEW_1130_DEBUG:glew.obj
 0003:0001cc40       __glewBeginVertexShaderEXT 00000001400a1c40     GLEW_1130_DEBUG:glew.obj
 0003:0001cc48       __GLEW_EXT_polygon_offset  00000001400a1c48     GLEW_1130_DEBUG:glew.obj
 0003:0001cc49       __GLEW_EXT_polygon_offset_clamp 00000001400a1c49     GLEW_1130_DEBUG:glew.obj
 0003:0001cc4a       __GLEW_EXT_post_depth_coverage 00000001400a1c4a     GLEW_1130_DEBUG:glew.obj
 0003:0001cc4b       __GLEW_EXT_provoking_vertex 00000001400a1c4b     GLEW_1130_DEBUG:glew.obj
 0003:0001cc4c       __GLEW_EXT_raster_multisample 00000001400a1c4c     GLEW_1130_DEBUG:glew.obj
 0003:0001cc4d       __GLEW_EXT_rescale_normal  00000001400a1c4d     GLEW_1130_DEBUG:glew.obj
 0003:0001cc4e       __GLEW_EXT_scene_marker    00000001400a1c4e     GLEW_1130_DEBUG:glew.obj
 0003:0001cc4f       __GLEW_EXT_secondary_color 00000001400a1c4f     GLEW_1130_DEBUG:glew.obj
 0003:0001cc50       __glewBindLightParameterEXT 00000001400a1c50     GLEW_1130_DEBUG:glew.obj
 0003:0001cc58       __glewResetHistogram       00000001400a1c58     GLEW_1130_DEBUG:glew.obj
 0003:0001cc60       __glewBindMaterialParameterEXT 00000001400a1c60     GLEW_1130_DEBUG:glew.obj
 0003:0001cc68       __glewResetMinmax          00000001400a1c68     GLEW_1130_DEBUG:glew.obj
 0003:0001cc70       __glewSeparableFilter2D    00000001400a1c70     GLEW_1130_DEBUG:glew.obj
 0003:0001cc78       __glewBindParameterEXT     00000001400a1c78     GLEW_1130_DEBUG:glew.obj
 0003:0001cc80       __glewMultiDrawArraysIndirectCountARB 00000001400a1c80     GLEW_1130_DEBUG:glew.obj
 0003:0001cc88       __glewBindTexGenParameterEXT 00000001400a1c88     GLEW_1130_DEBUG:glew.obj
 0003:0001cc90       __glewMultiDrawElementsIndirectCountARB 00000001400a1c90     GLEW_1130_DEBUG:glew.obj
 0003:0001cc98       __glewBindTextureUnitParameterEXT 00000001400a1c98     GLEW_1130_DEBUG:glew.obj
 0003:0001cca0       __glewDrawArraysInstancedARB 00000001400a1ca0     GLEW_1130_DEBUG:glew.obj
 0003:0001cca8       __glewBindVertexShaderEXT  00000001400a1ca8     GLEW_1130_DEBUG:glew.obj
 0003:0001ccb0       __glewDrawElementsInstancedARB 00000001400a1cb0     GLEW_1130_DEBUG:glew.obj
 0003:0001ccb8       __glewDeleteVertexShaderEXT 00000001400a1cb8     GLEW_1130_DEBUG:glew.obj
 0003:0001ccc0       __glewDisableVariantClientStateEXT 00000001400a1cc0     GLEW_1130_DEBUG:glew.obj
 0003:0001ccc8       __glewVertexAttribDivisorARB 00000001400a1cc8     GLEW_1130_DEBUG:glew.obj
 0003:0001ccd0       __glewGetInternalformativ  00000001400a1cd0     GLEW_1130_DEBUG:glew.obj
 0003:0001ccd8       __glewEnableVariantClientStateEXT 00000001400a1cd8     GLEW_1130_DEBUG:glew.obj
 0003:0001cce0       __GLEW_EXT_separate_shader_objects 00000001400a1ce0     GLEW_1130_DEBUG:glew.obj
 0003:0001cce1       __GLEW_EXT_separate_specular_color 00000001400a1ce1     GLEW_1130_DEBUG:glew.obj
 0003:0001cce2       __GLEW_EXT_shader_image_load_formatted 00000001400a1ce2     GLEW_1130_DEBUG:glew.obj
 0003:0001cce3       __GLEW_EXT_shader_image_load_store 00000001400a1ce3     GLEW_1130_DEBUG:glew.obj
 0003:0001cce4       __GLEW_EXT_shader_integer_mix 00000001400a1ce4     GLEW_1130_DEBUG:glew.obj
 0003:0001cce5       __GLEW_EXT_shadow_funcs    00000001400a1ce5     GLEW_1130_DEBUG:glew.obj
 0003:0001cce6       __GLEW_EXT_shared_texture_palette 00000001400a1ce6     GLEW_1130_DEBUG:glew.obj
 0003:0001cce7       __GLEW_EXT_sparse_texture2 00000001400a1ce7     GLEW_1130_DEBUG:glew.obj
 0003:0001cce8       __glewGetInternalformati64v 00000001400a1ce8     GLEW_1130_DEBUG:glew.obj
 0003:0001ccf0       __glewEndVertexShaderEXT   00000001400a1cf0     GLEW_1130_DEBUG:glew.obj
 0003:0001ccf8       __glewExtractComponentEXT  00000001400a1cf8     GLEW_1130_DEBUG:glew.obj
 0003:0001cd00       __glewInvalidateBufferData 00000001400a1d00     GLEW_1130_DEBUG:glew.obj
 0003:0001cd08       __glewInvalidateBufferSubData 00000001400a1d08     GLEW_1130_DEBUG:glew.obj
 0003:0001cd10       __glewGenSymbolsEXT        00000001400a1d10     GLEW_1130_DEBUG:glew.obj
 0003:0001cd18       __glewInvalidateFramebuffer 00000001400a1d18     GLEW_1130_DEBUG:glew.obj
 0003:0001cd20       __glewGenVertexShadersEXT  00000001400a1d20     GLEW_1130_DEBUG:glew.obj
 0003:0001cd28       __glewGetInvariantBooleanvEXT 00000001400a1d28     GLEW_1130_DEBUG:glew.obj
 0003:0001cd30       __glewInvalidateSubFramebuffer 00000001400a1d30     GLEW_1130_DEBUG:glew.obj
 0003:0001cd38       __glewGetInvariantFloatvEXT 00000001400a1d38     GLEW_1130_DEBUG:glew.obj
 0003:0001cd40       __glewInvalidateTexImage   00000001400a1d40     GLEW_1130_DEBUG:glew.obj
 0003:0001cd48       __glewGetInvariantIntegervEXT 00000001400a1d48     GLEW_1130_DEBUG:glew.obj
 0003:0001cd50       __glewInvalidateTexSubImage 00000001400a1d50     GLEW_1130_DEBUG:glew.obj
 0003:0001cd58       __glewGetLocalConstantBooleanvEXT 00000001400a1d58     GLEW_1130_DEBUG:glew.obj
 0003:0001cd60       __GLEW_EXT_stencil_clear_tag 00000001400a1d60     GLEW_1130_DEBUG:glew.obj
 0003:0001cd61       __GLEW_EXT_stencil_two_side 00000001400a1d61     GLEW_1130_DEBUG:glew.obj
 0003:0001cd62       __GLEW_EXT_stencil_wrap    00000001400a1d62     GLEW_1130_DEBUG:glew.obj
 0003:0001cd63       __GLEW_EXT_subtexture      00000001400a1d63     GLEW_1130_DEBUG:glew.obj
 0003:0001cd64       __GLEW_EXT_texture         00000001400a1d64     GLEW_1130_DEBUG:glew.obj
 0003:0001cd65       __GLEW_EXT_texture3D       00000001400a1d65     GLEW_1130_DEBUG:glew.obj
 0003:0001cd66       __GLEW_EXT_texture_array   00000001400a1d66     GLEW_1130_DEBUG:glew.obj
 0003:0001cd67       __GLEW_EXT_texture_buffer_object 00000001400a1d67     GLEW_1130_DEBUG:glew.obj
 0003:0001cd68       __glewFlushMappedBufferRange 00000001400a1d68     GLEW_1130_DEBUG:glew.obj
 0003:0001cd70       __glewGetLocalConstantFloatvEXT 00000001400a1d70     GLEW_1130_DEBUG:glew.obj
 0003:0001cd78       __glewMapBufferRange       00000001400a1d78     GLEW_1130_DEBUG:glew.obj
 0003:0001cd80       __glewGetLocalConstantIntegervEXT 00000001400a1d80     GLEW_1130_DEBUG:glew.obj
 0003:0001cd88       __glewCurrentPaletteMatrixARB 00000001400a1d88     GLEW_1130_DEBUG:glew.obj
 0003:0001cd90       __glewGetVariantBooleanvEXT 00000001400a1d90     GLEW_1130_DEBUG:glew.obj
 0003:0001cd98       __glewMatrixIndexPointerARB 00000001400a1d98     GLEW_1130_DEBUG:glew.obj
 0003:0001cda0       __glewMatrixIndexubvARB    00000001400a1da0     GLEW_1130_DEBUG:glew.obj
 0003:0001cda8       __glewGetVariantFloatvEXT  00000001400a1da8     GLEW_1130_DEBUG:glew.obj
 0003:0001cdb0       __glewMatrixIndexuivARB    00000001400a1db0     GLEW_1130_DEBUG:glew.obj
 0003:0001cdb8       __glewGetVariantIntegervEXT 00000001400a1db8     GLEW_1130_DEBUG:glew.obj
 0003:0001cdc0       __glewGetVariantPointervEXT 00000001400a1dc0     GLEW_1130_DEBUG:glew.obj
 0003:0001cdc8       __glewMatrixIndexusvARB    00000001400a1dc8     GLEW_1130_DEBUG:glew.obj
 0003:0001cdd0       __glewInsertComponentEXT   00000001400a1dd0     GLEW_1130_DEBUG:glew.obj
 0003:0001cdd8       __glewBindBuffersBase      00000001400a1dd8     GLEW_1130_DEBUG:glew.obj
 0003:0001cde0       __glewBindBuffersRange     00000001400a1de0     GLEW_1130_DEBUG:glew.obj
 0003:0001cde8       __glewIsVariantEnabledEXT  00000001400a1de8     GLEW_1130_DEBUG:glew.obj
 0003:0001cdf0       __GLEW_EXT_texture_compression_dxt1 00000001400a1df0     GLEW_1130_DEBUG:glew.obj
 0003:0001cdf1       __GLEW_EXT_texture_compression_latc 00000001400a1df1     GLEW_1130_DEBUG:glew.obj
 0003:0001cdf2       __GLEW_EXT_texture_compression_rgtc 00000001400a1df2     GLEW_1130_DEBUG:glew.obj
 0003:0001cdf3       __GLEW_EXT_texture_compression_s3tc 00000001400a1df3     GLEW_1130_DEBUG:glew.obj
 0003:0001cdf4       __GLEW_EXT_texture_cube_map 00000001400a1df4     GLEW_1130_DEBUG:glew.obj
 0003:0001cdf5       __GLEW_EXT_texture_edge_clamp 00000001400a1df5     GLEW_1130_DEBUG:glew.obj
 0003:0001cdf6       __GLEW_EXT_texture_env     00000001400a1df6     GLEW_1130_DEBUG:glew.obj
 0003:0001cdf7       __GLEW_EXT_texture_env_add 00000001400a1df7     GLEW_1130_DEBUG:glew.obj
 0003:0001cdf8       __glewSetInvariantEXT      00000001400a1df8     GLEW_1130_DEBUG:glew.obj
 0003:0001ce00       __glewBindImageTextures    00000001400a1e00     GLEW_1130_DEBUG:glew.obj
 0003:0001ce08       __glewBindSamplers         00000001400a1e08     GLEW_1130_DEBUG:glew.obj
 0003:0001ce10       __glewSetLocalConstantEXT  00000001400a1e10     GLEW_1130_DEBUG:glew.obj
 0003:0001ce18       __glewShaderOp1EXT         00000001400a1e18     GLEW_1130_DEBUG:glew.obj
 0003:0001ce20       __glewBindTextures         00000001400a1e20     GLEW_1130_DEBUG:glew.obj
 0003:0001ce28       __glewShaderOp2EXT         00000001400a1e28     GLEW_1130_DEBUG:glew.obj
 0003:0001ce30       __glewBindVertexBuffers    00000001400a1e30     GLEW_1130_DEBUG:glew.obj
 0003:0001ce38       __glewMultiDrawArraysIndirect 00000001400a1e38     GLEW_1130_DEBUG:glew.obj
 0003:0001ce40       __glewShaderOp3EXT         00000001400a1e40     GLEW_1130_DEBUG:glew.obj
 0003:0001ce48       __glewMultiDrawElementsIndirect 00000001400a1e48     GLEW_1130_DEBUG:glew.obj
 0003:0001ce50       __glewSwizzleEXT           00000001400a1e50     GLEW_1130_DEBUG:glew.obj
 0003:0001ce58       __glewVariantPointerEXT    00000001400a1e58     GLEW_1130_DEBUG:glew.obj
 0003:0001ce60       __glewSampleCoverageARB    00000001400a1e60     GLEW_1130_DEBUG:glew.obj
 0003:0001ce68       __glewActiveTextureARB     00000001400a1e68     GLEW_1130_DEBUG:glew.obj
 0003:0001ce70       __GLEW_EXT_texture_env_combine 00000001400a1e70     GLEW_1130_DEBUG:glew.obj
 0003:0001ce71       __GLEW_EXT_texture_env_dot3 00000001400a1e71     GLEW_1130_DEBUG:glew.obj
 0003:0001ce72       __GLEW_EXT_texture_filter_anisotropic 00000001400a1e72     GLEW_1130_DEBUG:glew.obj
 0003:0001ce73       __GLEW_EXT_texture_filter_minmax 00000001400a1e73     GLEW_1130_DEBUG:glew.obj
 0003:0001ce74       __GLEW_EXT_texture_integer 00000001400a1e74     GLEW_1130_DEBUG:glew.obj
 0003:0001ce75       __GLEW_EXT_texture_lod_bias 00000001400a1e75     GLEW_1130_DEBUG:glew.obj
 0003:0001ce76       __GLEW_EXT_texture_mirror_clamp 00000001400a1e76     GLEW_1130_DEBUG:glew.obj
 0003:0001ce77       __GLEW_EXT_texture_object  00000001400a1e77     GLEW_1130_DEBUG:glew.obj
 0003:0001ce78       __glewVariantbvEXT         00000001400a1e78     GLEW_1130_DEBUG:glew.obj
 0003:0001ce80       __glewClientActiveTextureARB 00000001400a1e80     GLEW_1130_DEBUG:glew.obj
 0003:0001ce88       __glewVariantdvEXT         00000001400a1e88     GLEW_1130_DEBUG:glew.obj
 0003:0001ce90       __glewMultiTexCoord1dARB   00000001400a1e90     GLEW_1130_DEBUG:glew.obj
 0003:0001ce98       __glewVariantfvEXT         00000001400a1e98     GLEW_1130_DEBUG:glew.obj
 0003:0001cea0       __glewMultiTexCoord1dvARB  00000001400a1ea0     GLEW_1130_DEBUG:glew.obj
 0003:0001cea8       __glewVariantivEXT         00000001400a1ea8     GLEW_1130_DEBUG:glew.obj
 0003:0001ceb0       __glewVariantsvEXT         00000001400a1eb0     GLEW_1130_DEBUG:glew.obj
 0003:0001ceb8       __glewMultiTexCoord1fARB   00000001400a1eb8     GLEW_1130_DEBUG:glew.obj
 0003:0001cec0       __glewVariantubvEXT        00000001400a1ec0     GLEW_1130_DEBUG:glew.obj
 0003:0001cec8       __glewMultiTexCoord1fvARB  00000001400a1ec8     GLEW_1130_DEBUG:glew.obj
 0003:0001ced0       __glewVariantuivEXT        00000001400a1ed0     GLEW_1130_DEBUG:glew.obj
 0003:0001ced8       __glewMultiTexCoord1iARB   00000001400a1ed8     GLEW_1130_DEBUG:glew.obj
 0003:0001cee0       __glewVariantusvEXT        00000001400a1ee0     GLEW_1130_DEBUG:glew.obj
 0003:0001cee8       __glewMultiTexCoord1ivARB  00000001400a1ee8     GLEW_1130_DEBUG:glew.obj
 0003:0001cef0       __glewWriteMaskEXT         00000001400a1ef0     GLEW_1130_DEBUG:glew.obj
 0003:0001cef8       __GLEW_EXT_texture_perturb_normal 00000001400a1ef8     GLEW_1130_DEBUG:glew.obj
 0003:0001cef9       __GLEW_EXT_texture_rectangle 00000001400a1ef9     GLEW_1130_DEBUG:glew.obj
 0003:0001cefa       __GLEW_EXT_texture_sRGB    00000001400a1efa     GLEW_1130_DEBUG:glew.obj
 0003:0001cefb       __GLEW_EXT_texture_sRGB_decode 00000001400a1efb     GLEW_1130_DEBUG:glew.obj
 0003:0001cefc       __GLEW_EXT_texture_shared_exponent 00000001400a1efc     GLEW_1130_DEBUG:glew.obj
 0003:0001cefd       __GLEW_EXT_texture_snorm   00000001400a1efd     GLEW_1130_DEBUG:glew.obj
 0003:0001cefe       __GLEW_EXT_texture_swizzle 00000001400a1efe     GLEW_1130_DEBUG:glew.obj
 0003:0001ceff       __GLEW_EXT_timer_query     00000001400a1eff     GLEW_1130_DEBUG:glew.obj
 0003:0001cf00       __glewMultiTexCoord1sARB   00000001400a1f00     GLEW_1130_DEBUG:glew.obj
 0003:0001cf08       __glewMultiTexCoord1svARB  00000001400a1f08     GLEW_1130_DEBUG:glew.obj
 0003:0001cf10       __glewVertexWeightPointerEXT 00000001400a1f10     GLEW_1130_DEBUG:glew.obj
 0003:0001cf18       __glewVertexWeightfEXT     00000001400a1f18     GLEW_1130_DEBUG:glew.obj
 0003:0001cf20       __glewMultiTexCoord2dARB   00000001400a1f20     GLEW_1130_DEBUG:glew.obj
 0003:0001cf28       __glewMultiTexCoord2dvARB  00000001400a1f28     GLEW_1130_DEBUG:glew.obj
 0003:0001cf30       __glewVertexWeightfvEXT    00000001400a1f30     GLEW_1130_DEBUG:glew.obj
 0003:0001cf38       __glewMultiTexCoord2fARB   00000001400a1f38     GLEW_1130_DEBUG:glew.obj
 0003:0001cf40       __glewImportSyncEXT        00000001400a1f40     GLEW_1130_DEBUG:glew.obj
 0003:0001cf48       __glewMultiTexCoord2fvARB  00000001400a1f48     GLEW_1130_DEBUG:glew.obj
 0003:0001cf50       __glewFrameTerminatorGREMEDY 00000001400a1f50     GLEW_1130_DEBUG:glew.obj
 0003:0001cf58       __glewStringMarkerGREMEDY  00000001400a1f58     GLEW_1130_DEBUG:glew.obj
 0003:0001cf60       __glewMultiTexCoord2iARB   00000001400a1f60     GLEW_1130_DEBUG:glew.obj
 0003:0001cf68       __glewGetImageTransformParameterfvHP 00000001400a1f68     GLEW_1130_DEBUG:glew.obj
 0003:0001cf70       __glewMultiTexCoord2ivARB  00000001400a1f70     GLEW_1130_DEBUG:glew.obj
 0003:0001cf78       __glewGetImageTransformParameterivHP 00000001400a1f78     GLEW_1130_DEBUG:glew.obj
 0003:0001cf80       __GLEW_EXT_transform_feedback 00000001400a1f80     GLEW_1130_DEBUG:glew.obj
 0003:0001cf81       __GLEW_EXT_vertex_array    00000001400a1f81     GLEW_1130_DEBUG:glew.obj
 0003:0001cf82       __GLEW_EXT_vertex_array_bgra 00000001400a1f82     GLEW_1130_DEBUG:glew.obj
 0003:0001cf83       __GLEW_EXT_vertex_attrib_64bit 00000001400a1f83     GLEW_1130_DEBUG:glew.obj
 0003:0001cf84       __GLEW_EXT_vertex_shader   00000001400a1f84     GLEW_1130_DEBUG:glew.obj
 0003:0001cf85       __GLEW_EXT_vertex_weighting 00000001400a1f85     GLEW_1130_DEBUG:glew.obj
 0003:0001cf86       __GLEW_EXT_x11_sync_object 00000001400a1f86     GLEW_1130_DEBUG:glew.obj
 0003:0001cf87       __GLEW_GREMEDY_frame_terminator 00000001400a1f87     GLEW_1130_DEBUG:glew.obj
 0003:0001cf88       __glewMultiTexCoord2sARB   00000001400a1f88     GLEW_1130_DEBUG:glew.obj
 0003:0001cf90       __glewImageTransformParameterfHP 00000001400a1f90     GLEW_1130_DEBUG:glew.obj
 0003:0001cf98       __glewMultiTexCoord2svARB  00000001400a1f98     GLEW_1130_DEBUG:glew.obj
 0003:0001cfa0       __glewMultiTexCoord3dARB   00000001400a1fa0     GLEW_1130_DEBUG:glew.obj
 0003:0001cfa8       __glewImageTransformParameterfvHP 00000001400a1fa8     GLEW_1130_DEBUG:glew.obj
 0003:0001cfb0       __glewImageTransformParameteriHP 00000001400a1fb0     GLEW_1130_DEBUG:glew.obj
 0003:0001cfb8       __glewMultiTexCoord3dvARB  00000001400a1fb8     GLEW_1130_DEBUG:glew.obj
 0003:0001cfc0       __glewImageTransformParameterivHP 00000001400a1fc0     GLEW_1130_DEBUG:glew.obj
 0003:0001cfc8       __glewMultiTexCoord3fARB   00000001400a1fc8     GLEW_1130_DEBUG:glew.obj
 0003:0001cfd0       __glewMultiModeDrawArraysIBM 00000001400a1fd0     GLEW_1130_DEBUG:glew.obj
 0003:0001cfd8       __glewMultiTexCoord3fvARB  00000001400a1fd8     GLEW_1130_DEBUG:glew.obj
 0003:0001cfe0       __glewMultiTexCoord3iARB   00000001400a1fe0     GLEW_1130_DEBUG:glew.obj
 0003:0001cfe8       __glewMultiModeDrawElementsIBM 00000001400a1fe8     GLEW_1130_DEBUG:glew.obj
 0003:0001cff0       __glewMultiTexCoord3ivARB  00000001400a1ff0     GLEW_1130_DEBUG:glew.obj
 0003:0001cff8       __glewColorPointerListIBM  00000001400a1ff8     GLEW_1130_DEBUG:glew.obj
 0003:0001d000       __GLEW_GREMEDY_string_marker 00000001400a2000     GLEW_1130_DEBUG:glew.obj
 0003:0001d001       __GLEW_HP_convolution_border_modes 00000001400a2001     GLEW_1130_DEBUG:glew.obj
 0003:0001d002       __GLEW_HP_image_transform  00000001400a2002     GLEW_1130_DEBUG:glew.obj
 0003:0001d003       __GLEW_HP_occlusion_test   00000001400a2003     GLEW_1130_DEBUG:glew.obj
 0003:0001d004       __GLEW_HP_texture_lighting 00000001400a2004     GLEW_1130_DEBUG:glew.obj
 0003:0001d005       __GLEW_IBM_cull_vertex     00000001400a2005     GLEW_1130_DEBUG:glew.obj
 0003:0001d006       __GLEW_IBM_multimode_draw_arrays 00000001400a2006     GLEW_1130_DEBUG:glew.obj
 0003:0001d007       __GLEW_IBM_rasterpos_clip  00000001400a2007     GLEW_1130_DEBUG:glew.obj
 0003:0001d008       __glewMultiTexCoord3sARB   00000001400a2008     GLEW_1130_DEBUG:glew.obj
 0003:0001d010       __glewEdgeFlagPointerListIBM 00000001400a2010     GLEW_1130_DEBUG:glew.obj
 0003:0001d018       __glewFogCoordPointerListIBM 00000001400a2018     GLEW_1130_DEBUG:glew.obj
 0003:0001d020       __glewMultiTexCoord3svARB  00000001400a2020     GLEW_1130_DEBUG:glew.obj
 0003:0001d028       __glewIndexPointerListIBM  00000001400a2028     GLEW_1130_DEBUG:glew.obj
 0003:0001d030       __glewMultiTexCoord4dARB   00000001400a2030     GLEW_1130_DEBUG:glew.obj
 0003:0001d038       __glewMultiTexCoord4dvARB  00000001400a2038     GLEW_1130_DEBUG:glew.obj
 0003:0001d040       __glewNormalPointerListIBM 00000001400a2040     GLEW_1130_DEBUG:glew.obj
 0003:0001d048       __glewSecondaryColorPointerListIBM 00000001400a2048     GLEW_1130_DEBUG:glew.obj
 0003:0001d050       __glewMultiTexCoord4fARB   00000001400a2050     GLEW_1130_DEBUG:glew.obj
 0003:0001d058       __glewTexCoordPointerListIBM 00000001400a2058     GLEW_1130_DEBUG:glew.obj
 0003:0001d060       __glewMultiTexCoord4fvARB  00000001400a2060     GLEW_1130_DEBUG:glew.obj
 0003:0001d068       __glewMultiTexCoord4iARB   00000001400a2068     GLEW_1130_DEBUG:glew.obj
 0003:0001d070       __glewVertexPointerListIBM 00000001400a2070     GLEW_1130_DEBUG:glew.obj
 0003:0001d078       __glewMultiTexCoord4ivARB  00000001400a2078     GLEW_1130_DEBUG:glew.obj
 0003:0001d080       __glewMapTexture2DINTEL    00000001400a2080     GLEW_1130_DEBUG:glew.obj
 0003:0001d088       __glewMultiTexCoord4sARB   00000001400a2088     GLEW_1130_DEBUG:glew.obj
 0003:0001d090       __GLEW_IBM_static_data     00000001400a2090     GLEW_1130_DEBUG:glew.obj
 0003:0001d091       __GLEW_IBM_texture_mirrored_repeat 00000001400a2091     GLEW_1130_DEBUG:glew.obj
 0003:0001d092       __GLEW_IBM_vertex_array_lists 00000001400a2092     GLEW_1130_DEBUG:glew.obj
 0003:0001d093       __GLEW_INGR_color_clamp    00000001400a2093     GLEW_1130_DEBUG:glew.obj
 0003:0001d094       __GLEW_INGR_interlace_read 00000001400a2094     GLEW_1130_DEBUG:glew.obj
 0003:0001d095       __GLEW_INTEL_fragment_shader_ordering 00000001400a2095     GLEW_1130_DEBUG:glew.obj
 0003:0001d096       __GLEW_INTEL_framebuffer_CMAA 00000001400a2096     GLEW_1130_DEBUG:glew.obj
 0003:0001d097       __GLEW_INTEL_map_texture   00000001400a2097     GLEW_1130_DEBUG:glew.obj
 0003:0001d098       __glewSyncTextureINTEL     00000001400a2098     GLEW_1130_DEBUG:glew.obj
 0003:0001d0a0       __glewMultiTexCoord4svARB  00000001400a20a0     GLEW_1130_DEBUG:glew.obj
 0003:0001d0a8       __glewUnmapTexture2DINTEL  00000001400a20a8     GLEW_1130_DEBUG:glew.obj
 0003:0001d0b0       __glewColorPointervINTEL   00000001400a20b0     GLEW_1130_DEBUG:glew.obj
 0003:0001d0b8       __glewBeginQueryARB        00000001400a20b8     GLEW_1130_DEBUG:glew.obj
 0003:0001d0c0       __glewNormalPointervINTEL  00000001400a20c0     GLEW_1130_DEBUG:glew.obj
 0003:0001d0c8       __glewDeleteQueriesARB     00000001400a20c8     GLEW_1130_DEBUG:glew.obj
 0003:0001d0d0       __glewEndQueryARB          00000001400a20d0     GLEW_1130_DEBUG:glew.obj
 0003:0001d0d8       __glewTexCoordPointervINTEL 00000001400a20d8     GLEW_1130_DEBUG:glew.obj
 0003:0001d0e0       __glewVertexPointervINTEL  00000001400a20e0     GLEW_1130_DEBUG:glew.obj
 0003:0001d0e8       __glewGenQueriesARB        00000001400a20e8     GLEW_1130_DEBUG:glew.obj
 0003:0001d0f0       __glewGetQueryObjectivARB  00000001400a20f0     GLEW_1130_DEBUG:glew.obj
 0003:0001d0f8       __glewBeginPerfQueryINTEL  00000001400a20f8     GLEW_1130_DEBUG:glew.obj
 0003:0001d100       __glewCreatePerfQueryINTEL 00000001400a2100     GLEW_1130_DEBUG:glew.obj
 0003:0001d108       __glewGetQueryObjectuivARB 00000001400a2108     GLEW_1130_DEBUG:glew.obj
 0003:0001d110       __glewDeletePerfQueryINTEL 00000001400a2110     GLEW_1130_DEBUG:glew.obj
 0003:0001d118       __glewGetQueryivARB        00000001400a2118     GLEW_1130_DEBUG:glew.obj
 0003:0001d120       __GLEW_INTEL_parallel_arrays 00000001400a2120     GLEW_1130_DEBUG:glew.obj
 0003:0001d121       __GLEW_INTEL_performance_query 00000001400a2121     GLEW_1130_DEBUG:glew.obj
 0003:0001d122       __GLEW_INTEL_texture_scissor 00000001400a2122     GLEW_1130_DEBUG:glew.obj
 0003:0001d123       __GLEW_KHR_blend_equation_advanced 00000001400a2123     GLEW_1130_DEBUG:glew.obj
 0003:0001d124       __GLEW_KHR_blend_equation_advanced_coherent 00000001400a2124     GLEW_1130_DEBUG:glew.obj
 0003:0001d125       __GLEW_KHR_context_flush_control 00000001400a2125     GLEW_1130_DEBUG:glew.obj
 0003:0001d126       __GLEW_KHR_debug           00000001400a2126     GLEW_1130_DEBUG:glew.obj
 0003:0001d127       __GLEW_KHR_no_error        00000001400a2127     GLEW_1130_DEBUG:glew.obj
 0003:0001d128       __glewEndPerfQueryINTEL    00000001400a2128     GLEW_1130_DEBUG:glew.obj
 0003:0001d130       __glewIsQueryARB           00000001400a2130     GLEW_1130_DEBUG:glew.obj
 0003:0001d138       __glewMaxShaderCompilerThreadsARB 00000001400a2138     GLEW_1130_DEBUG:glew.obj
 0003:0001d140       __glewGetFirstPerfQueryIdINTEL 00000001400a2140     GLEW_1130_DEBUG:glew.obj
 0003:0001d148       __glewPointParameterfARB   00000001400a2148     GLEW_1130_DEBUG:glew.obj
 0003:0001d150       __glewGetNextPerfQueryIdINTEL 00000001400a2150     GLEW_1130_DEBUG:glew.obj
 0003:0001d158       __glewGetPerfCounterInfoINTEL 00000001400a2158     GLEW_1130_DEBUG:glew.obj
 0003:0001d160       __glewPointParameterfvARB  00000001400a2160     GLEW_1130_DEBUG:glew.obj
 0003:0001d168       __glewGetPerfQueryDataINTEL 00000001400a2168     GLEW_1130_DEBUG:glew.obj
 0003:0001d170       __glewGetProgramInterfaceiv 00000001400a2170     GLEW_1130_DEBUG:glew.obj
 0003:0001d178       __glewGetPerfQueryIdByNameINTEL 00000001400a2178     GLEW_1130_DEBUG:glew.obj
 0003:0001d180       __glewGetProgramResourceIndex 00000001400a2180     GLEW_1130_DEBUG:glew.obj
 0003:0001d188       __glewGetPerfQueryInfoINTEL 00000001400a2188     GLEW_1130_DEBUG:glew.obj
 0003:0001d190       __glewGetProgramResourceLocation 00000001400a2190     GLEW_1130_DEBUG:glew.obj
 0003:0001d198       __glewGetProgramResourceLocationIndex 00000001400a2198     GLEW_1130_DEBUG:glew.obj
 0003:0001d1a0       __GLEW_KHR_robust_buffer_access_behavior 00000001400a21a0     GLEW_1130_DEBUG:glew.obj
 0003:0001d1a1       __GLEW_KHR_robustness      00000001400a21a1     GLEW_1130_DEBUG:glew.obj
 0003:0001d1a2       __GLEW_KHR_texture_compression_astc_hdr 00000001400a21a2     GLEW_1130_DEBUG:glew.obj
 0003:0001d1a3       __GLEW_KHR_texture_compression_astc_ldr 00000001400a21a3     GLEW_1130_DEBUG:glew.obj
 0003:0001d1a4       __GLEW_KTX_buffer_region   00000001400a21a4     GLEW_1130_DEBUG:glew.obj
 0003:0001d1a5       __GLEW_MESAX_texture_stack 00000001400a21a5     GLEW_1130_DEBUG:glew.obj
 0003:0001d1a6       __GLEW_MESA_pack_invert    00000001400a21a6     GLEW_1130_DEBUG:glew.obj
 0003:0001d1a7       __GLEW_MESA_resize_buffers 00000001400a21a7     GLEW_1130_DEBUG:glew.obj
 0003:0001d1a8       __glewTexScissorFuncINTEL  00000001400a21a8     GLEW_1130_DEBUG:glew.obj
 0003:0001d1b0       __glewGetProgramResourceName 00000001400a21b0     GLEW_1130_DEBUG:glew.obj
 0003:0001d1b8       __glewTexScissorINTEL      00000001400a21b8     GLEW_1130_DEBUG:glew.obj
 0003:0001d1c0       __glewGetProgramResourceiv 00000001400a21c0     GLEW_1130_DEBUG:glew.obj
 0003:0001d1c8       __glewBlendBarrierKHR      00000001400a21c8     GLEW_1130_DEBUG:glew.obj
 0003:0001d1d0       __glewDebugMessageCallback 00000001400a21d0     GLEW_1130_DEBUG:glew.obj
 0003:0001d1d8       __glewProvokingVertex      00000001400a21d8     GLEW_1130_DEBUG:glew.obj
 0003:0001d1e0       __glewGetGraphicsResetStatusARB 00000001400a21e0     GLEW_1130_DEBUG:glew.obj
 0003:0001d1e8       __glewDebugMessageControl  00000001400a21e8     GLEW_1130_DEBUG:glew.obj
 0003:0001d1f0       __glewGetnColorTableARB    00000001400a21f0     GLEW_1130_DEBUG:glew.obj
 0003:0001d1f8       __glewDebugMessageInsert   00000001400a21f8     GLEW_1130_DEBUG:glew.obj
 0003:0001d200       __glewGetDebugMessageLog   00000001400a2200     GLEW_1130_DEBUG:glew.obj
 0003:0001d208       __glewGetnCompressedTexImageARB 00000001400a2208     GLEW_1130_DEBUG:glew.obj
 0003:0001d210       __glewGetnConvolutionFilterARB 00000001400a2210     GLEW_1130_DEBUG:glew.obj
 0003:0001d218       __glewGetObjectLabel       00000001400a2218     GLEW_1130_DEBUG:glew.obj
 0003:0001d220       __glewGetnHistogramARB     00000001400a2220     GLEW_1130_DEBUG:glew.obj
 0003:0001d228       __GLEW_MESA_window_pos     00000001400a2228     GLEW_1130_DEBUG:glew.obj
 0003:0001d229       __GLEW_MESA_ycbcr_texture  00000001400a2229     GLEW_1130_DEBUG:glew.obj
 0003:0001d22a       __GLEW_NVX_conditional_render 00000001400a222a     GLEW_1130_DEBUG:glew.obj
 0003:0001d22b       __GLEW_NVX_gpu_memory_info 00000001400a222b     GLEW_1130_DEBUG:glew.obj
 0003:0001d22c       __GLEW_NV_bindless_multi_draw_indirect 00000001400a222c     GLEW_1130_DEBUG:glew.obj
 0003:0001d22d       __GLEW_NV_bindless_multi_draw_indirect_count 00000001400a222d     GLEW_1130_DEBUG:glew.obj
 0003:0001d22e       __GLEW_NV_bindless_texture 00000001400a222e     GLEW_1130_DEBUG:glew.obj
 0003:0001d22f       __GLEW_NV_blend_equation_advanced 00000001400a222f     GLEW_1130_DEBUG:glew.obj
 0003:0001d230       __glewGetObjectPtrLabel    00000001400a2230     GLEW_1130_DEBUG:glew.obj
 0003:0001d238       __glewObjectLabel          00000001400a2238     GLEW_1130_DEBUG:glew.obj
 0003:0001d240       __glewGetnMapdvARB         00000001400a2240     GLEW_1130_DEBUG:glew.obj
 0003:0001d248       __glewObjectPtrLabel       00000001400a2248     GLEW_1130_DEBUG:glew.obj
 0003:0001d250       __glewGetnMapfvARB         00000001400a2250     GLEW_1130_DEBUG:glew.obj
 0003:0001d258       __glewGetnMapivARB         00000001400a2258     GLEW_1130_DEBUG:glew.obj
 0003:0001d260       __glewPopDebugGroup        00000001400a2260     GLEW_1130_DEBUG:glew.obj
 0003:0001d268       __glewGetnMinmaxARB        00000001400a2268     GLEW_1130_DEBUG:glew.obj
 0003:0001d270       __glewPushDebugGroup       00000001400a2270     GLEW_1130_DEBUG:glew.obj
 0003:0001d278       __glewGetnUniformfv        00000001400a2278     GLEW_1130_DEBUG:glew.obj
 0003:0001d280       __glewGetnPixelMapfvARB    00000001400a2280     GLEW_1130_DEBUG:glew.obj
 0003:0001d288       __glewGetnUniformiv        00000001400a2288     GLEW_1130_DEBUG:glew.obj
 0003:0001d290       __glewGetnPixelMapuivARB   00000001400a2290     GLEW_1130_DEBUG:glew.obj
 0003:0001d298       __glewGetnPixelMapusvARB   00000001400a2298     GLEW_1130_DEBUG:glew.obj
 0003:0001d2a0       __glewGetnUniformuiv       00000001400a22a0     GLEW_1130_DEBUG:glew.obj
 0003:0001d2a8       __glewReadnPixels          00000001400a22a8     GLEW_1130_DEBUG:glew.obj
 0003:0001d2b0       __GLEW_NV_blend_equation_advanced_coherent 00000001400a22b0     GLEW_1130_DEBUG:glew.obj
 0003:0001d2b1       __GLEW_NV_blend_square     00000001400a22b1     GLEW_1130_DEBUG:glew.obj
 0003:0001d2b2       __GLEW_NV_compute_program5 00000001400a22b2     GLEW_1130_DEBUG:glew.obj
 0003:0001d2b3       __GLEW_NV_conditional_render 00000001400a22b3     GLEW_1130_DEBUG:glew.obj
 0003:0001d2b4       __GLEW_NV_conservative_raster 00000001400a22b4     GLEW_1130_DEBUG:glew.obj
 0003:0001d2b5       __GLEW_NV_conservative_raster_dilate 00000001400a22b5     GLEW_1130_DEBUG:glew.obj
 0003:0001d2b6       __GLEW_NV_copy_depth_to_color 00000001400a22b6     GLEW_1130_DEBUG:glew.obj
 0003:0001d2b7       __GLEW_NV_copy_image       00000001400a22b7     GLEW_1130_DEBUG:glew.obj
 0003:0001d2b8       __glewGetnPolygonStippleARB 00000001400a22b8     GLEW_1130_DEBUG:glew.obj
 0003:0001d2c0       __glewGetnSeparableFilterARB 00000001400a22c0     GLEW_1130_DEBUG:glew.obj
 0003:0001d2c8       __glewBufferRegionEnabled  00000001400a22c8     GLEW_1130_DEBUG:glew.obj
 0003:0001d2d0       __glewGetnTexImageARB      00000001400a22d0     GLEW_1130_DEBUG:glew.obj
 0003:0001d2d8       __glewDeleteBufferRegion   00000001400a22d8     GLEW_1130_DEBUG:glew.obj
 0003:0001d2e0       __glewDrawBufferRegion     00000001400a22e0     GLEW_1130_DEBUG:glew.obj
 0003:0001d2e8       __glewGetnUniformdvARB     00000001400a22e8     GLEW_1130_DEBUG:glew.obj
 0003:0001d2f0       __glewGetnUniformfvARB     00000001400a22f0     GLEW_1130_DEBUG:glew.obj
 0003:0001d2f8       __glewNewBufferRegion      00000001400a22f8     GLEW_1130_DEBUG:glew.obj
 0003:0001d300       __glewGetnUniformivARB     00000001400a2300     GLEW_1130_DEBUG:glew.obj
 0003:0001d308       __glewReadBufferRegion     00000001400a2308     GLEW_1130_DEBUG:glew.obj
 0003:0001d310       __glewResizeBuffersMESA    00000001400a2310     GLEW_1130_DEBUG:glew.obj
 0003:0001d318       __glewGetnUniformuivARB    00000001400a2318     GLEW_1130_DEBUG:glew.obj
 0003:0001d320       __glewReadnPixelsARB       00000001400a2320     GLEW_1130_DEBUG:glew.obj
 0003:0001d328       __glewWindowPos2dMESA      00000001400a2328     GLEW_1130_DEBUG:glew.obj
 0003:0001d330       __glewFramebufferSampleLocationsfvARB 00000001400a2330     GLEW_1130_DEBUG:glew.obj
 0003:0001d338       __GLEW_NV_deep_texture3D   00000001400a2338     GLEW_1130_DEBUG:glew.obj
 0003:0001d339       __GLEW_NV_depth_buffer_float 00000001400a2339     GLEW_1130_DEBUG:glew.obj
 0003:0001d33a       __GLEW_NV_depth_clamp      00000001400a233a     GLEW_1130_DEBUG:glew.obj
 0003:0001d33b       __GLEW_NV_depth_range_unclamped 00000001400a233b     GLEW_1130_DEBUG:glew.obj
 0003:0001d33c       __GLEW_NV_draw_texture     00000001400a233c     GLEW_1130_DEBUG:glew.obj
 0003:0001d33d       __GLEW_NV_evaluators       00000001400a233d     GLEW_1130_DEBUG:glew.obj
 0003:0001d33e       __GLEW_NV_explicit_multisample 00000001400a233e     GLEW_1130_DEBUG:glew.obj
 0003:0001d33f       __GLEW_NV_fence            00000001400a233f     GLEW_1130_DEBUG:glew.obj
 0003:0001d340       __glewWindowPos2dvMESA     00000001400a2340     GLEW_1130_DEBUG:glew.obj
 0003:0001d348       __glewNamedFramebufferSampleLocationsfvARB 00000001400a2348     GLEW_1130_DEBUG:glew.obj
 0003:0001d350       __glewWindowPos2fMESA      00000001400a2350     GLEW_1130_DEBUG:glew.obj
 0003:0001d358       __glewWindowPos2fvMESA     00000001400a2358     GLEW_1130_DEBUG:glew.obj
 0003:0001d360       __glewMinSampleShadingARB  00000001400a2360     GLEW_1130_DEBUG:glew.obj
 0003:0001d368       __glewBindSampler          00000001400a2368     GLEW_1130_DEBUG:glew.obj
 0003:0001d370       __glewWindowPos2iMESA      00000001400a2370     GLEW_1130_DEBUG:glew.obj
 0003:0001d378       __glewWindowPos2ivMESA     00000001400a2378     GLEW_1130_DEBUG:glew.obj
 0003:0001d380       __glewDeleteSamplers       00000001400a2380     GLEW_1130_DEBUG:glew.obj
 0003:0001d388       __glewGenSamplers          00000001400a2388     GLEW_1130_DEBUG:glew.obj
 0003:0001d390       __glewWindowPos2sMESA      00000001400a2390     GLEW_1130_DEBUG:glew.obj
 0003:0001d398       __glewWindowPos2svMESA     00000001400a2398     GLEW_1130_DEBUG:glew.obj
 0003:0001d3a0       __glewGetSamplerParameterIiv 00000001400a23a0     GLEW_1130_DEBUG:glew.obj
 0003:0001d3a8       __glewWindowPos3dMESA      00000001400a23a8     GLEW_1130_DEBUG:glew.obj
 0003:0001d3b0       __glewGetSamplerParameterIuiv 00000001400a23b0     GLEW_1130_DEBUG:glew.obj
 0003:0001d3b8       __GLEW_NV_fill_rectangle   00000001400a23b8     GLEW_1130_DEBUG:glew.obj
 0003:0001d3b9       __GLEW_NV_float_buffer     00000001400a23b9     GLEW_1130_DEBUG:glew.obj
 0003:0001d3ba       __GLEW_NV_fog_distance     00000001400a23ba     GLEW_1130_DEBUG:glew.obj
 0003:0001d3bb       __GLEW_NV_fragment_coverage_to_color 00000001400a23bb     GLEW_1130_DEBUG:glew.obj
 0003:0001d3bc       __GLEW_NV_fragment_program 00000001400a23bc     GLEW_1130_DEBUG:glew.obj
 0003:0001d3bd       __GLEW_NV_fragment_program2 00000001400a23bd     GLEW_1130_DEBUG:glew.obj
 0003:0001d3be       __GLEW_NV_fragment_program4 00000001400a23be     GLEW_1130_DEBUG:glew.obj
 0003:0001d3bf       __GLEW_NV_fragment_program_option 00000001400a23bf     GLEW_1130_DEBUG:glew.obj
 0003:0001d3c0       __glewGetSamplerParameterfv 00000001400a23c0     GLEW_1130_DEBUG:glew.obj
 0003:0001d3c8       __glewWindowPos3dvMESA     00000001400a23c8     GLEW_1130_DEBUG:glew.obj
 0003:0001d3d0       __glewWindowPos3fMESA      00000001400a23d0     GLEW_1130_DEBUG:glew.obj
 0003:0001d3d8       __glewGetSamplerParameteriv 00000001400a23d8     GLEW_1130_DEBUG:glew.obj
 0003:0001d3e0       __glewWindowPos3fvMESA     00000001400a23e0     GLEW_1130_DEBUG:glew.obj
 0003:0001d3e8       __glewIsSampler            00000001400a23e8     GLEW_1130_DEBUG:glew.obj
 0003:0001d3f0       __glewSamplerParameterIiv  00000001400a23f0     GLEW_1130_DEBUG:glew.obj
 0003:0001d3f8       __glewWindowPos3iMESA      00000001400a23f8     GLEW_1130_DEBUG:glew.obj
 0003:0001d400       __glewWindowPos3ivMESA     00000001400a2400     GLEW_1130_DEBUG:glew.obj
 0003:0001d408       __glewSamplerParameterIuiv 00000001400a2408     GLEW_1130_DEBUG:glew.obj
 0003:0001d410       __glewWindowPos3sMESA      00000001400a2410     GLEW_1130_DEBUG:glew.obj
 0003:0001d418       __glewSamplerParameterf    00000001400a2418     GLEW_1130_DEBUG:glew.obj
 0003:0001d420       __glewWindowPos3svMESA     00000001400a2420     GLEW_1130_DEBUG:glew.obj
 0003:0001d428       __glewSamplerParameterfv   00000001400a2428     GLEW_1130_DEBUG:glew.obj
 0003:0001d430       __glewWindowPos4dMESA      00000001400a2430     GLEW_1130_DEBUG:glew.obj
 0003:0001d438       __glewSamplerParameteri    00000001400a2438     GLEW_1130_DEBUG:glew.obj
 0003:0001d440       __glewWindowPos4dvMESA     00000001400a2440     GLEW_1130_DEBUG:glew.obj
 0003:0001d448       __glewSamplerParameteriv   00000001400a2448     GLEW_1130_DEBUG:glew.obj
 0003:0001d450       __GLEW_NV_fragment_shader_interlock 00000001400a2450     GLEW_1130_DEBUG:glew.obj
 0003:0001d451       __GLEW_NV_framebuffer_mixed_samples 00000001400a2451     GLEW_1130_DEBUG:glew.obj
 0003:0001d452       __GLEW_NV_framebuffer_multisample_coverage 00000001400a2452     GLEW_1130_DEBUG:glew.obj
 0003:0001d453       __GLEW_NV_geometry_program4 00000001400a2453     GLEW_1130_DEBUG:glew.obj
 0003:0001d454       __GLEW_NV_geometry_shader4 00000001400a2454     GLEW_1130_DEBUG:glew.obj
 0003:0001d455       __GLEW_NV_geometry_shader_passthrough 00000001400a2455     GLEW_1130_DEBUG:glew.obj
 0003:0001d456       __GLEW_NV_gpu_program4     00000001400a2456     GLEW_1130_DEBUG:glew.obj
 0003:0001d457       __GLEW_NV_gpu_program5     00000001400a2457     GLEW_1130_DEBUG:glew.obj
 0003:0001d458       __glewWindowPos4fMESA      00000001400a2458     GLEW_1130_DEBUG:glew.obj
 0003:0001d460       __glewActiveShaderProgram  00000001400a2460     GLEW_1130_DEBUG:glew.obj
 0003:0001d468       __glewWindowPos4fvMESA     00000001400a2468     GLEW_1130_DEBUG:glew.obj
 0003:0001d470       __glewBindProgramPipeline  00000001400a2470     GLEW_1130_DEBUG:glew.obj
 0003:0001d478       __glewWindowPos4iMESA      00000001400a2478     GLEW_1130_DEBUG:glew.obj
 0003:0001d480       __glewCreateShaderProgramv 00000001400a2480     GLEW_1130_DEBUG:glew.obj
 0003:0001d488       __glewDeleteProgramPipelines 00000001400a2488     GLEW_1130_DEBUG:glew.obj
 0003:0001d490       __glewWindowPos4ivMESA     00000001400a2490     GLEW_1130_DEBUG:glew.obj
 0003:0001d498       __glewGenProgramPipelines  00000001400a2498     GLEW_1130_DEBUG:glew.obj
 0003:0001d4a0       __glewWindowPos4sMESA      00000001400a24a0     GLEW_1130_DEBUG:glew.obj
 0003:0001d4a8       __glewWindowPos4svMESA     00000001400a24a8     GLEW_1130_DEBUG:glew.obj
 0003:0001d4b0       __glewGetProgramPipelineInfoLog 00000001400a24b0     GLEW_1130_DEBUG:glew.obj
 0003:0001d4b8       __glewGetProgramPipelineiv 00000001400a24b8     GLEW_1130_DEBUG:glew.obj
 0003:0001d4c0       __glewBeginConditionalRenderNVX 00000001400a24c0     GLEW_1130_DEBUG:glew.obj
 0003:0001d4c8       __GLEW_NV_gpu_program5_mem_extended 00000001400a24c8     GLEW_1130_DEBUG:glew.obj
 0003:0001d4c9       __GLEW_NV_gpu_program_fp64 00000001400a24c9     GLEW_1130_DEBUG:glew.obj
 0003:0001d4ca       __GLEW_NV_gpu_shader5      00000001400a24ca     GLEW_1130_DEBUG:glew.obj
 0003:0001d4cb       __GLEW_NV_half_float       00000001400a24cb     GLEW_1130_DEBUG:glew.obj
 0003:0001d4cc       __GLEW_NV_internalformat_sample_query 00000001400a24cc     GLEW_1130_DEBUG:glew.obj
 0003:0001d4cd       __GLEW_NV_light_max_exponent 00000001400a24cd     GLEW_1130_DEBUG:glew.obj
 0003:0001d4ce       __GLEW_NV_multisample_coverage 00000001400a24ce     GLEW_1130_DEBUG:glew.obj
 0003:0001d4cf       __GLEW_NV_multisample_filter_hint 00000001400a24cf     GLEW_1130_DEBUG:glew.obj
 0003:0001d4d0       __glewIsProgramPipeline    00000001400a24d0     GLEW_1130_DEBUG:glew.obj
 0003:0001d4d8       __glewEndConditionalRenderNVX 00000001400a24d8     GLEW_1130_DEBUG:glew.obj
 0003:0001d4e0       __glewMultiDrawArraysIndirectBindlessNV 00000001400a24e0     GLEW_1130_DEBUG:glew.obj
 0003:0001d4e8       __glewProgramUniform1d     00000001400a24e8     GLEW_1130_DEBUG:glew.obj
 0003:0001d4f0       __glewMultiDrawElementsIndirectBindlessNV 00000001400a24f0     GLEW_1130_DEBUG:glew.obj
 0003:0001d4f8       __glewProgramUniform1dv    00000001400a24f8     GLEW_1130_DEBUG:glew.obj
 0003:0001d500       __glewProgramUniform1f     00000001400a2500     GLEW_1130_DEBUG:glew.obj
 0003:0001d508       __glewMultiDrawArraysIndirectBindlessCountNV 00000001400a2508     GLEW_1130_DEBUG:glew.obj
 0003:0001d510       __glewProgramUniform1fv    00000001400a2510     GLEW_1130_DEBUG:glew.obj
 0003:0001d518       __glewMultiDrawElementsIndirectBindlessCountNV 00000001400a2518     GLEW_1130_DEBUG:glew.obj
 0003:0001d520       __glewGetImageHandleNV     00000001400a2520     GLEW_1130_DEBUG:glew.obj
 0003:0001d528       __glewProgramUniform1i     00000001400a2528     GLEW_1130_DEBUG:glew.obj
 0003:0001d530       __glewProgramUniform1iv    00000001400a2530     GLEW_1130_DEBUG:glew.obj
 0003:0001d538       __glewGetTextureHandleNV   00000001400a2538     GLEW_1130_DEBUG:glew.obj
 0003:0001d540       __glewProgramUniform1ui    00000001400a2540     GLEW_1130_DEBUG:glew.obj
 0003:0001d548       __glewGetTextureSamplerHandleNV 00000001400a2548     GLEW_1130_DEBUG:glew.obj
 0003:0001d550       __glewIsImageHandleResidentNV 00000001400a2550     GLEW_1130_DEBUG:glew.obj
 0003:0001d558       __GLEW_NV_occlusion_query  00000001400a2558     GLEW_1130_DEBUG:glew.obj
 0003:0001d559       __GLEW_NV_packed_depth_stencil 00000001400a2559     GLEW_1130_DEBUG:glew.obj
 0003:0001d55a       __GLEW_NV_parameter_buffer_object 00000001400a255a     GLEW_1130_DEBUG:glew.obj
 0003:0001d55b       __GLEW_NV_parameter_buffer_object2 00000001400a255b     GLEW_1130_DEBUG:glew.obj
 0003:0001d55c       __GLEW_NV_path_rendering   00000001400a255c     GLEW_1130_DEBUG:glew.obj
 0003:0001d55d       __GLEW_NV_path_rendering_shared_edge 00000001400a255d     GLEW_1130_DEBUG:glew.obj
 0003:0001d55e       __GLEW_NV_pixel_data_range 00000001400a255e     GLEW_1130_DEBUG:glew.obj
 0003:0001d55f       __GLEW_NV_point_sprite     00000001400a255f     GLEW_1130_DEBUG:glew.obj
 0003:0001d560       __glewProgramUniform1uiv   00000001400a2560     GLEW_1130_DEBUG:glew.obj
 0003:0001d568       __glewProgramUniform2d     00000001400a2568     GLEW_1130_DEBUG:glew.obj
 0003:0001d570       __glewIsTextureHandleResidentNV 00000001400a2570     GLEW_1130_DEBUG:glew.obj
 0003:0001d578       __glewProgramUniform2dv    00000001400a2578     GLEW_1130_DEBUG:glew.obj
 0003:0001d580       __glewMakeImageHandleNonResidentNV 00000001400a2580     GLEW_1130_DEBUG:glew.obj
 0003:0001d588       __glewProgramUniform2f     00000001400a2588     GLEW_1130_DEBUG:glew.obj
 0003:0001d590       __glewMakeImageHandleResidentNV 00000001400a2590     GLEW_1130_DEBUG:glew.obj
 0003:0001d598       __glewMakeTextureHandleNonResidentNV 00000001400a2598     GLEW_1130_DEBUG:glew.obj
 0003:0001d5a0       __glewProgramUniform2fv    00000001400a25a0     GLEW_1130_DEBUG:glew.obj
 0003:0001d5a8       __glewProgramUniform2i     00000001400a25a8     GLEW_1130_DEBUG:glew.obj
 0003:0001d5b0       __glewMakeTextureHandleResidentNV 00000001400a25b0     GLEW_1130_DEBUG:glew.obj
 0003:0001d5b8       __glewProgramUniform2iv    00000001400a25b8     GLEW_1130_DEBUG:glew.obj
 0003:0001d5c0       __glewProgramUniformHandleui64NV 00000001400a25c0     GLEW_1130_DEBUG:glew.obj
 0003:0001d5c8       __glewProgramUniformHandleui64vNV 00000001400a25c8     GLEW_1130_DEBUG:glew.obj
 0003:0001d5d0       __glewProgramUniform2ui    00000001400a25d0     GLEW_1130_DEBUG:glew.obj
 0003:0001d5d8       __GLEW_NV_present_video    00000001400a25d8     GLEW_1130_DEBUG:glew.obj
 0003:0001d5d9       __GLEW_NV_primitive_restart 00000001400a25d9     GLEW_1130_DEBUG:glew.obj
 0003:0001d5da       __GLEW_NV_register_combiners 00000001400a25da     GLEW_1130_DEBUG:glew.obj
 0003:0001d5db       __GLEW_NV_register_combiners2 00000001400a25db     GLEW_1130_DEBUG:glew.obj
 0003:0001d5dc       __GLEW_NV_sample_locations 00000001400a25dc     GLEW_1130_DEBUG:glew.obj
 0003:0001d5dd       __GLEW_NV_sample_mask_override_coverage 00000001400a25dd     GLEW_1130_DEBUG:glew.obj
 0003:0001d5de       __GLEW_NV_shader_atomic_counters 00000001400a25de     GLEW_1130_DEBUG:glew.obj
 0003:0001d5df       __GLEW_NV_shader_atomic_float 00000001400a25df     GLEW_1130_DEBUG:glew.obj
 0003:0001d5e0       __glewUniformHandleui64NV  00000001400a25e0     GLEW_1130_DEBUG:glew.obj
 0003:0001d5e8       __glewProgramUniform2uiv   00000001400a25e8     GLEW_1130_DEBUG:glew.obj
 0003:0001d5f0       __glewProgramUniform3d     00000001400a25f0     GLEW_1130_DEBUG:glew.obj
 0003:0001d5f8       __glewUniformHandleui64vNV 00000001400a25f8     GLEW_1130_DEBUG:glew.obj
 0003:0001d600       __glewBlendBarrierNV       00000001400a2600     GLEW_1130_DEBUG:glew.obj
 0003:0001d608       __glewProgramUniform3dv    00000001400a2608     GLEW_1130_DEBUG:glew.obj
 0003:0001d610       __glewProgramUniform3f     00000001400a2610     GLEW_1130_DEBUG:glew.obj
 0003:0001d618       __glewBlendParameteriNV    00000001400a2618     GLEW_1130_DEBUG:glew.obj
 0003:0001d620       __glewBeginConditionalRenderNV 00000001400a2620     GLEW_1130_DEBUG:glew.obj
 0003:0001d628       __glewProgramUniform3fv    00000001400a2628     GLEW_1130_DEBUG:glew.obj
 0003:0001d630       __glewEndConditionalRenderNV 00000001400a2630     GLEW_1130_DEBUG:glew.obj
 0003:0001d638       __glewProgramUniform3i     00000001400a2638     GLEW_1130_DEBUG:glew.obj
 0003:0001d640       __glewSubpixelPrecisionBiasNV 00000001400a2640     GLEW_1130_DEBUG:glew.obj
 0003:0001d648       __glewProgramUniform3iv    00000001400a2648     GLEW_1130_DEBUG:glew.obj
 0003:0001d650       __glewConservativeRasterParameterfNV 00000001400a2650     GLEW_1130_DEBUG:glew.obj
 0003:0001d658       __glewProgramUniform3ui    00000001400a2658     GLEW_1130_DEBUG:glew.obj
 0003:0001d660       __GLEW_NV_shader_atomic_fp16_vector 00000001400a2660     GLEW_1130_DEBUG:glew.obj
 0003:0001d661       __GLEW_NV_shader_atomic_int64 00000001400a2661     GLEW_1130_DEBUG:glew.obj
 0003:0001d662       __GLEW_NV_shader_buffer_load 00000001400a2662     GLEW_1130_DEBUG:glew.obj
 0003:0001d663       __GLEW_NV_shader_storage_buffer_object 00000001400a2663     GLEW_1130_DEBUG:glew.obj
 0003:0001d664       __GLEW_NV_shader_thread_group 00000001400a2664     GLEW_1130_DEBUG:glew.obj
 0003:0001d665       __GLEW_NV_shader_thread_shuffle 00000001400a2665     GLEW_1130_DEBUG:glew.obj
 0003:0001d666       __GLEW_NV_tessellation_program5 00000001400a2666     GLEW_1130_DEBUG:glew.obj
 0003:0001d667       __GLEW_NV_texgen_emboss    00000001400a2667     GLEW_1130_DEBUG:glew.obj
 0003:0001d668       __glewProgramUniform3uiv   00000001400a2668     GLEW_1130_DEBUG:glew.obj
 0003:0001d670       __glewCopyImageSubDataNV   00000001400a2670     GLEW_1130_DEBUG:glew.obj
 0003:0001d678       __glewClearDepthdNV        00000001400a2678     GLEW_1130_DEBUG:glew.obj
 0003:0001d680       __glewProgramUniform4d     00000001400a2680     GLEW_1130_DEBUG:glew.obj
 0003:0001d688       __glewProgramUniform4dv    00000001400a2688     GLEW_1130_DEBUG:glew.obj
 0003:0001d690       __glewDepthBoundsdNV       00000001400a2690     GLEW_1130_DEBUG:glew.obj
 0003:0001d698       __glewDepthRangedNV        00000001400a2698     GLEW_1130_DEBUG:glew.obj
 0003:0001d6a0       __glewProgramUniform4f     00000001400a26a0     GLEW_1130_DEBUG:glew.obj
 0003:0001d6a8       __glewDrawTextureNV        00000001400a26a8     GLEW_1130_DEBUG:glew.obj
 0003:0001d6b0       __glewProgramUniform4fv    00000001400a26b0     GLEW_1130_DEBUG:glew.obj
 0003:0001d6b8       __glewProgramUniform4i     00000001400a26b8     GLEW_1130_DEBUG:glew.obj
 0003:0001d6c0       __glewEvalMapsNV           00000001400a26c0     GLEW_1130_DEBUG:glew.obj
 0003:0001d6c8       __glewProgramUniform4iv    00000001400a26c8     GLEW_1130_DEBUG:glew.obj
 0003:0001d6d0       __glewGetMapAttribParameterfvNV 00000001400a26d0     GLEW_1130_DEBUG:glew.obj
 0003:0001d6d8       __glewGetMapAttribParameterivNV 00000001400a26d8     GLEW_1130_DEBUG:glew.obj
 0003:0001d6e0       __glewProgramUniform4ui    00000001400a26e0     GLEW_1130_DEBUG:glew.obj
 0003:0001d6e8       __GLEW_NV_texgen_reflection 00000001400a26e8     GLEW_1130_DEBUG:glew.obj
 0003:0001d6e9       __GLEW_NV_texture_barrier  00000001400a26e9     GLEW_1130_DEBUG:glew.obj
 0003:0001d6ea       __GLEW_NV_texture_compression_vtc 00000001400a26ea     GLEW_1130_DEBUG:glew.obj
 0003:0001d6eb       __GLEW_NV_texture_env_combine4 00000001400a26eb     GLEW_1130_DEBUG:glew.obj
 0003:0001d6ec       __GLEW_NV_texture_expand_normal 00000001400a26ec     GLEW_1130_DEBUG:glew.obj
 0003:0001d6ed       __GLEW_NV_texture_multisample 00000001400a26ed     GLEW_1130_DEBUG:glew.obj
 0003:0001d6ee       __GLEW_NV_texture_rectangle 00000001400a26ee     GLEW_1130_DEBUG:glew.obj
 0003:0001d6ef       __GLEW_NV_texture_shader   00000001400a26ef     GLEW_1130_DEBUG:glew.obj
 0003:0001d6f0       __glewProgramUniform4uiv   00000001400a26f0     GLEW_1130_DEBUG:glew.obj
 0003:0001d6f8       __glewGetMapControlPointsNV 00000001400a26f8     GLEW_1130_DEBUG:glew.obj
 0003:0001d700       __glewProgramUniformMatrix2dv 00000001400a2700     GLEW_1130_DEBUG:glew.obj
 0003:0001d708       __glewGetMapParameterfvNV  00000001400a2708     GLEW_1130_DEBUG:glew.obj
 0003:0001d710       __glewGetMapParameterivNV  00000001400a2710     GLEW_1130_DEBUG:glew.obj
 0003:0001d718       __glewProgramUniformMatrix2fv 00000001400a2718     GLEW_1130_DEBUG:glew.obj
 0003:0001d720       __glewMapControlPointsNV   00000001400a2720     GLEW_1130_DEBUG:glew.obj
 0003:0001d728       __glewProgramUniformMatrix2x3dv 00000001400a2728     GLEW_1130_DEBUG:glew.obj
 0003:0001d730       __glewMapParameterfvNV     00000001400a2730     GLEW_1130_DEBUG:glew.obj
 0003:0001d738       __glewProgramUniformMatrix2x3fv 00000001400a2738     GLEW_1130_DEBUG:glew.obj
 0003:0001d740       __glewMapParameterivNV     00000001400a2740     GLEW_1130_DEBUG:glew.obj
 0003:0001d748       __glewProgramUniformMatrix2x4dv 00000001400a2748     GLEW_1130_DEBUG:glew.obj
 0003:0001d750       __glewProgramUniformMatrix2x4fv 00000001400a2750     GLEW_1130_DEBUG:glew.obj
 0003:0001d758       __glewGetMultisamplefvNV   00000001400a2758     GLEW_1130_DEBUG:glew.obj
 0003:0001d760       __glewSampleMaskIndexedNV  00000001400a2760     GLEW_1130_DEBUG:glew.obj
 0003:0001d768       __glewProgramUniformMatrix3dv 00000001400a2768     GLEW_1130_DEBUG:glew.obj
 0003:0001d770       __GLEW_NV_texture_shader2  00000001400a2770     GLEW_1130_DEBUG:glew.obj
 0003:0001d771       __GLEW_NV_texture_shader3  00000001400a2771     GLEW_1130_DEBUG:glew.obj
 0003:0001d772       __GLEW_NV_transform_feedback 00000001400a2772     GLEW_1130_DEBUG:glew.obj
 0003:0001d773       __GLEW_NV_transform_feedback2 00000001400a2773     GLEW_1130_DEBUG:glew.obj
 0003:0001d774       __GLEW_NV_uniform_buffer_unified_memory 00000001400a2774     GLEW_1130_DEBUG:glew.obj
 0003:0001d775       __GLEW_NV_vdpau_interop    00000001400a2775     GLEW_1130_DEBUG:glew.obj
 0003:0001d776       __GLEW_NV_vertex_array_range 00000001400a2776     GLEW_1130_DEBUG:glew.obj
 0003:0001d777       __GLEW_NV_vertex_array_range2 00000001400a2777     GLEW_1130_DEBUG:glew.obj
 0003:0001d778       __glewTexRenderbufferNV    00000001400a2778     GLEW_1130_DEBUG:glew.obj
 0003:0001d780       __glewProgramUniformMatrix3fv 00000001400a2780     GLEW_1130_DEBUG:glew.obj
 0003:0001d788       __glewDeleteFencesNV       00000001400a2788     GLEW_1130_DEBUG:glew.obj
 0003:0001d790       __glewProgramUniformMatrix3x2dv 00000001400a2790     GLEW_1130_DEBUG:glew.obj
 0003:0001d798       __glewFinishFenceNV        00000001400a2798     GLEW_1130_DEBUG:glew.obj
 0003:0001d7a0       __glewProgramUniformMatrix3x2fv 00000001400a27a0     GLEW_1130_DEBUG:glew.obj
 0003:0001d7a8       __glewGenFencesNV          00000001400a27a8     GLEW_1130_DEBUG:glew.obj
 0003:0001d7b0       __glewProgramUniformMatrix3x4dv 00000001400a27b0     GLEW_1130_DEBUG:glew.obj
 0003:0001d7b8       __glewProgramUniformMatrix3x4fv 00000001400a27b8     GLEW_1130_DEBUG:glew.obj
 0003:0001d7c0       __glewGetFenceivNV         00000001400a27c0     GLEW_1130_DEBUG:glew.obj
 0003:0001d7c8       __glewProgramUniformMatrix4dv 00000001400a27c8     GLEW_1130_DEBUG:glew.obj
 0003:0001d7d0       __glewIsFenceNV            00000001400a27d0     GLEW_1130_DEBUG:glew.obj
 0003:0001d7d8       __glewSetFenceNV           00000001400a27d8     GLEW_1130_DEBUG:glew.obj
 0003:0001d7e0       __glewProgramUniformMatrix4fv 00000001400a27e0     GLEW_1130_DEBUG:glew.obj
 0003:0001d7e8       __glewTestFenceNV          00000001400a27e8     GLEW_1130_DEBUG:glew.obj
 0003:0001d7f0       __glewProgramUniformMatrix4x2dv 00000001400a27f0     GLEW_1130_DEBUG:glew.obj
 0003:0001d7f8       __GLEW_NV_vertex_attrib_integer_64bit 00000001400a27f8     GLEW_1130_DEBUG:glew.obj
 0003:0001d7f9       __GLEW_NV_vertex_buffer_unified_memory 00000001400a27f9     GLEW_1130_DEBUG:glew.obj
 0003:0001d7fa       __GLEW_NV_vertex_program   00000001400a27fa     GLEW_1130_DEBUG:glew.obj
 0003:0001d7fb       __GLEW_NV_vertex_program1_1 00000001400a27fb     GLEW_1130_DEBUG:glew.obj
 0003:0001d7fc       __GLEW_NV_vertex_program2  00000001400a27fc     GLEW_1130_DEBUG:glew.obj
 0003:0001d7fd       __GLEW_NV_vertex_program2_option 00000001400a27fd     GLEW_1130_DEBUG:glew.obj
 0003:0001d7fe       __GLEW_NV_vertex_program3  00000001400a27fe     GLEW_1130_DEBUG:glew.obj
 0003:0001d7ff       __GLEW_NV_vertex_program4  00000001400a27ff     GLEW_1130_DEBUG:glew.obj
 0003:0001d800       __glewProgramUniformMatrix4x2fv 00000001400a2800     GLEW_1130_DEBUG:glew.obj
 0003:0001d808       __glewFragmentCoverageColorNV 00000001400a2808     GLEW_1130_DEBUG:glew.obj
 0003:0001d810       __glewProgramUniformMatrix4x3dv 00000001400a2810     GLEW_1130_DEBUG:glew.obj
 0003:0001d818       __glewGetProgramNamedParameterdvNV 00000001400a2818     GLEW_1130_DEBUG:glew.obj
 0003:0001d820       __glewGetProgramNamedParameterfvNV 00000001400a2820     GLEW_1130_DEBUG:glew.obj
 0003:0001d828       __glewProgramUniformMatrix4x3fv 00000001400a2828     GLEW_1130_DEBUG:glew.obj
 0003:0001d830       __glewUseProgramStages     00000001400a2830     GLEW_1130_DEBUG:glew.obj
 0003:0001d838       __glewProgramNamedParameter4dNV 00000001400a2838     GLEW_1130_DEBUG:glew.obj
 0003:0001d840       __glewProgramNamedParameter4dvNV 00000001400a2840     GLEW_1130_DEBUG:glew.obj
 0003:0001d848       __glewValidateProgramPipeline 00000001400a2848     GLEW_1130_DEBUG:glew.obj
 0003:0001d850       __glewProgramNamedParameter4fNV 00000001400a2850     GLEW_1130_DEBUG:glew.obj
 0003:0001d858       __glewGetActiveAtomicCounterBufferiv 00000001400a2858     GLEW_1130_DEBUG:glew.obj
 0003:0001d860       __glewBindImageTexture     00000001400a2860     GLEW_1130_DEBUG:glew.obj
 0003:0001d868       __glewProgramNamedParameter4fvNV 00000001400a2868     GLEW_1130_DEBUG:glew.obj
 0003:0001d870       __glewRenderbufferStorageMultisampleCoverageNV 00000001400a2870     GLEW_1130_DEBUG:glew.obj
 0003:0001d878       __glewMemoryBarrier        00000001400a2878     GLEW_1130_DEBUG:glew.obj
 0003:0001d880       __GLEW_NV_video_capture    00000001400a2880     GLEW_1130_DEBUG:glew.obj
 0003:0001d881       __GLEW_NV_viewport_array2  00000001400a2881     GLEW_1130_DEBUG:glew.obj
 0003:0001d882       __GLEW_OES_byte_coordinates 00000001400a2882     GLEW_1130_DEBUG:glew.obj
 0003:0001d883       __GLEW_OES_compressed_paletted_texture 00000001400a2883     GLEW_1130_DEBUG:glew.obj
 0003:0001d884       __GLEW_OES_read_format     00000001400a2884     GLEW_1130_DEBUG:glew.obj
 0003:0001d885       __GLEW_OES_single_precision 00000001400a2885     GLEW_1130_DEBUG:glew.obj
 0003:0001d886       __GLEW_OML_interlace       00000001400a2886     GLEW_1130_DEBUG:glew.obj
 0003:0001d887       __GLEW_OML_resample        00000001400a2887     GLEW_1130_DEBUG:glew.obj
 0003:0001d888       __glewProgramVertexLimitNV 00000001400a2888     GLEW_1130_DEBUG:glew.obj
 0003:0001d890       __glewAttachObjectARB      00000001400a2890     GLEW_1130_DEBUG:glew.obj
 0003:0001d898       __glewCompileShaderARB     00000001400a2898     GLEW_1130_DEBUG:glew.obj
 0003:0001d8a0       __glewProgramEnvParameterI4iNV 00000001400a28a0     GLEW_1130_DEBUG:glew.obj
 0003:0001d8a8       __glewCreateProgramObjectARB 00000001400a28a8     GLEW_1130_DEBUG:glew.obj
 0003:0001d8b0       __glewProgramEnvParameterI4ivNV 00000001400a28b0     GLEW_1130_DEBUG:glew.obj
 0003:0001d8b8       __glewProgramEnvParameterI4uiNV 00000001400a28b8     GLEW_1130_DEBUG:glew.obj
 0003:0001d8c0       __glewCreateShaderObjectARB 00000001400a28c0     GLEW_1130_DEBUG:glew.obj
 0003:0001d8c8       __glewDeleteObjectARB      00000001400a28c8     GLEW_1130_DEBUG:glew.obj
 0003:0001d8d0       __glewProgramEnvParameterI4uivNV 00000001400a28d0     GLEW_1130_DEBUG:glew.obj
 0003:0001d8d8       __glewDetachObjectARB      00000001400a28d8     GLEW_1130_DEBUG:glew.obj
 0003:0001d8e0       __glewProgramEnvParametersI4ivNV 00000001400a28e0     GLEW_1130_DEBUG:glew.obj
 0003:0001d8e8       __glewProgramEnvParametersI4uivNV 00000001400a28e8     GLEW_1130_DEBUG:glew.obj
 0003:0001d8f0       __glewGetActiveUniformARB  00000001400a28f0     GLEW_1130_DEBUG:glew.obj
 0003:0001d8f8       __glewProgramLocalParameterI4iNV 00000001400a28f8     GLEW_1130_DEBUG:glew.obj
 0003:0001d900       __glewGetAttachedObjectsARB 00000001400a2900     GLEW_1130_DEBUG:glew.obj
 0003:0001d908       __glewProgramLocalParameterI4ivNV 00000001400a2908     GLEW_1130_DEBUG:glew.obj
 0003:0001d910       __glewGetHandleARB         00000001400a2910     GLEW_1130_DEBUG:glew.obj
 0003:0001d918       __GLEW_OML_subsample       00000001400a2918     GLEW_1130_DEBUG:glew.obj
 0003:0001d919       __GLEW_OVR_multiview       00000001400a2919     GLEW_1130_DEBUG:glew.obj
 0003:0001d91a       __GLEW_OVR_multiview2      00000001400a291a     GLEW_1130_DEBUG:glew.obj
 0003:0001d91b       __GLEW_PGI_misc_hints      00000001400a291b     GLEW_1130_DEBUG:glew.obj
 0003:0001d91c       __GLEW_PGI_vertex_hints    00000001400a291c     GLEW_1130_DEBUG:glew.obj
 0003:0001d91d       __GLEW_REGAL_ES1_0_compatibility 00000001400a291d     GLEW_1130_DEBUG:glew.obj
 0003:0001d91e       __GLEW_REGAL_ES1_1_compatibility 00000001400a291e     GLEW_1130_DEBUG:glew.obj
 0003:0001d91f       __GLEW_REGAL_enable        00000001400a291f     GLEW_1130_DEBUG:glew.obj
 0003:0001d920       __glewGetInfoLogARB        00000001400a2920     GLEW_1130_DEBUG:glew.obj
 0003:0001d928       __glewProgramLocalParameterI4uiNV 00000001400a2928     GLEW_1130_DEBUG:glew.obj
 0003:0001d930       __glewGetObjectParameterfvARB 00000001400a2930     GLEW_1130_DEBUG:glew.obj
 0003:0001d938       __glewProgramLocalParameterI4uivNV 00000001400a2938     GLEW_1130_DEBUG:glew.obj
 0003:0001d940       __glewGetObjectParameterivARB 00000001400a2940     GLEW_1130_DEBUG:glew.obj
 0003:0001d948       __glewProgramLocalParametersI4ivNV 00000001400a2948     GLEW_1130_DEBUG:glew.obj
 0003:0001d950       __glewProgramLocalParametersI4uivNV 00000001400a2950     GLEW_1130_DEBUG:glew.obj
 0003:0001d958       __glewGetShaderSourceARB   00000001400a2958     GLEW_1130_DEBUG:glew.obj
 0003:0001d960       __glewGetUniformLocationARB 00000001400a2960     GLEW_1130_DEBUG:glew.obj
 0003:0001d968       __glewGetUniformi64vNV     00000001400a2968     GLEW_1130_DEBUG:glew.obj
 0003:0001d970       __glewGetUniformfvARB      00000001400a2970     GLEW_1130_DEBUG:glew.obj
 0003:0001d978       __glewGetUniformui64vNV    00000001400a2978     GLEW_1130_DEBUG:glew.obj
 0003:0001d980       __glewProgramUniform1i64NV 00000001400a2980     GLEW_1130_DEBUG:glew.obj
 0003:0001d988       __glewGetUniformivARB      00000001400a2988     GLEW_1130_DEBUG:glew.obj
 0003:0001d990       __GLEW_REGAL_error_string  00000001400a2990     GLEW_1130_DEBUG:glew.obj
 0003:0001d991       __GLEW_REGAL_extension_query 00000001400a2991     GLEW_1130_DEBUG:glew.obj
 0003:0001d992       __GLEW_REGAL_log           00000001400a2992     GLEW_1130_DEBUG:glew.obj
 0003:0001d993       __GLEW_REGAL_proc_address  00000001400a2993     GLEW_1130_DEBUG:glew.obj
 0003:0001d994       __GLEW_REND_screen_coordinates 00000001400a2994     GLEW_1130_DEBUG:glew.obj
 0003:0001d995       __GLEW_S3_s3tc             00000001400a2995     GLEW_1130_DEBUG:glew.obj
 0003:0001d996       __GLEW_SGIS_color_range    00000001400a2996     GLEW_1130_DEBUG:glew.obj
 0003:0001d997       __GLEW_SGIS_detail_texture 00000001400a2997     GLEW_1130_DEBUG:glew.obj
 0003:0001d998       __glewLinkProgramARB       00000001400a2998     GLEW_1130_DEBUG:glew.obj
 0003:0001d9a0       __glewProgramUniform1i64vNV 00000001400a29a0     GLEW_1130_DEBUG:glew.obj
 0003:0001d9a8       __glewShaderSourceARB      00000001400a29a8     GLEW_1130_DEBUG:glew.obj
 0003:0001d9b0       __glewProgramUniform1ui64NV 00000001400a29b0     GLEW_1130_DEBUG:glew.obj
 0003:0001d9b8       __glewUniform1fARB         00000001400a29b8     GLEW_1130_DEBUG:glew.obj
 0003:0001d9c0       __glewProgramUniform1ui64vNV 00000001400a29c0     GLEW_1130_DEBUG:glew.obj
 0003:0001d9c8       __glewProgramUniform2i64NV 00000001400a29c8     GLEW_1130_DEBUG:glew.obj
 0003:0001d9d0       __glewUniform1fvARB        00000001400a29d0     GLEW_1130_DEBUG:glew.obj
 0003:0001d9d8       __glewUniform1iARB         00000001400a29d8     GLEW_1130_DEBUG:glew.obj
 0003:0001d9e0       __glewProgramUniform2i64vNV 00000001400a29e0     GLEW_1130_DEBUG:glew.obj
 0003:0001d9e8       __glewUniform1ivARB        00000001400a29e8     GLEW_1130_DEBUG:glew.obj
 0003:0001d9f0       __glewProgramUniform2ui64NV 00000001400a29f0     GLEW_1130_DEBUG:glew.obj
 0003:0001d9f8       __glewUniform2fARB         00000001400a29f8     GLEW_1130_DEBUG:glew.obj
 0003:0001da00       __glewProgramUniform2ui64vNV 00000001400a2a00     GLEW_1130_DEBUG:glew.obj
 0003:0001da08       __glewProgramUniform3i64NV 00000001400a2a08     GLEW_1130_DEBUG:glew.obj
 0003:0001da10       __glewUniform2fvARB        00000001400a2a10     GLEW_1130_DEBUG:glew.obj
 0003:0001da18       __GLEW_SGIS_fog_function   00000001400a2a18     GLEW_1130_DEBUG:glew.obj
 0003:0001da19       __GLEW_SGIS_generate_mipmap 00000001400a2a19     GLEW_1130_DEBUG:glew.obj
 0003:0001da1a       __GLEW_SGIS_multisample    00000001400a2a1a     GLEW_1130_DEBUG:glew.obj
 0003:0001da1b       __GLEW_SGIS_pixel_texture  00000001400a2a1b     GLEW_1130_DEBUG:glew.obj
 0003:0001da1c       __GLEW_SGIS_point_line_texgen 00000001400a2a1c     GLEW_1130_DEBUG:glew.obj
 0003:0001da1d       __GLEW_SGIS_sharpen_texture 00000001400a2a1d     GLEW_1130_DEBUG:glew.obj
 0003:0001da1e       __GLEW_SGIS_texture4D      00000001400a2a1e     GLEW_1130_DEBUG:glew.obj
 0003:0001da1f       __GLEW_SGIS_texture_border_clamp 00000001400a2a1f     GLEW_1130_DEBUG:glew.obj
 0003:0001da20       __glewProgramUniform3i64vNV 00000001400a2a20     GLEW_1130_DEBUG:glew.obj
 0003:0001da28       __glewUniform2iARB         00000001400a2a28     GLEW_1130_DEBUG:glew.obj
 0003:0001da30       __glewProgramUniform3ui64NV 00000001400a2a30     GLEW_1130_DEBUG:glew.obj
 0003:0001da38       __glewUniform2ivARB        00000001400a2a38     GLEW_1130_DEBUG:glew.obj
 0003:0001da40       __glewUniform3fARB         00000001400a2a40     GLEW_1130_DEBUG:glew.obj
 0003:0001da48       __glewProgramUniform3ui64vNV 00000001400a2a48     GLEW_1130_DEBUG:glew.obj
 0003:0001da50       __glewProgramUniform4i64NV 00000001400a2a50     GLEW_1130_DEBUG:glew.obj
 0003:0001da58       __glewUniform3fvARB        00000001400a2a58     GLEW_1130_DEBUG:glew.obj
 0003:0001da60       __glewUniform3iARB         00000001400a2a60     GLEW_1130_DEBUG:glew.obj
 0003:0001da68       __glewProgramUniform4i64vNV 00000001400a2a68     GLEW_1130_DEBUG:glew.obj
 0003:0001da70       __glewUniform3ivARB        00000001400a2a70     GLEW_1130_DEBUG:glew.obj
 0003:0001da78       __glewProgramUniform4ui64NV 00000001400a2a78     GLEW_1130_DEBUG:glew.obj
 0003:0001da80       __glewUniform4fARB         00000001400a2a80     GLEW_1130_DEBUG:glew.obj
 0003:0001da88       __glewProgramUniform4ui64vNV 00000001400a2a88     GLEW_1130_DEBUG:glew.obj
 0003:0001da90       __glewUniform4fvARB        00000001400a2a90     GLEW_1130_DEBUG:glew.obj
 0003:0001da98       __glewUniform1i64NV        00000001400a2a98     GLEW_1130_DEBUG:glew.obj
 0003:0001daa0       __GLEW_SGIS_texture_edge_clamp 00000001400a2aa0     GLEW_1130_DEBUG:glew.obj
 0003:0001daa1       __GLEW_SGIS_texture_filter4 00000001400a2aa1     GLEW_1130_DEBUG:glew.obj
 0003:0001daa2       __GLEW_SGIS_texture_lod    00000001400a2aa2     GLEW_1130_DEBUG:glew.obj
 0003:0001daa3       __GLEW_SGIS_texture_select 00000001400a2aa3     GLEW_1130_DEBUG:glew.obj
 0003:0001daa4       __GLEW_SGIX_async          00000001400a2aa4     GLEW_1130_DEBUG:glew.obj
 0003:0001daa5       __GLEW_SGIX_async_histogram 00000001400a2aa5     GLEW_1130_DEBUG:glew.obj
 0003:0001daa6       __GLEW_SGIX_async_pixel    00000001400a2aa6     GLEW_1130_DEBUG:glew.obj
 0003:0001daa7       __GLEW_SGIX_blend_alpha_minmax 00000001400a2aa7     GLEW_1130_DEBUG:glew.obj
 0003:0001daa8       __glewUniform4iARB         00000001400a2aa8     GLEW_1130_DEBUG:glew.obj
 0003:0001dab0       __glewUniform1i64vNV       00000001400a2ab0     GLEW_1130_DEBUG:glew.obj
 0003:0001dab8       __glewUniform1ui64NV       00000001400a2ab8     GLEW_1130_DEBUG:glew.obj
 0003:0001dac0       __glewUniform4ivARB        00000001400a2ac0     GLEW_1130_DEBUG:glew.obj
 0003:0001dac8       __glewUniform1ui64vNV      00000001400a2ac8     GLEW_1130_DEBUG:glew.obj
 0003:0001dad0       __glewUniformMatrix2fvARB  00000001400a2ad0     GLEW_1130_DEBUG:glew.obj
 0003:0001dad8       __glewUniformMatrix3fvARB  00000001400a2ad8     GLEW_1130_DEBUG:glew.obj
 0003:0001dae0       __glewUniform2i64NV        00000001400a2ae0     GLEW_1130_DEBUG:glew.obj
 0003:0001dae8       __glewUniform2i64vNV       00000001400a2ae8     GLEW_1130_DEBUG:glew.obj
 0003:0001daf0       __glewUniformMatrix4fvARB  00000001400a2af0     GLEW_1130_DEBUG:glew.obj
 0003:0001daf8       __glewUseProgramObjectARB  00000001400a2af8     GLEW_1130_DEBUG:glew.obj
 0003:0001db00       __glewUniform2ui64NV       00000001400a2b00     GLEW_1130_DEBUG:glew.obj
 0003:0001db08       __glewValidateProgramARB   00000001400a2b08     GLEW_1130_DEBUG:glew.obj
 0003:0001db10       __glewUniform2ui64vNV      00000001400a2b10     GLEW_1130_DEBUG:glew.obj
 0003:0001db18       __glewUniform3i64NV        00000001400a2b18     GLEW_1130_DEBUG:glew.obj
 0003:0001db20       __glewShaderStorageBlockBinding 00000001400a2b20     GLEW_1130_DEBUG:glew.obj
 0003:0001db28       __glewGetActiveSubroutineName 00000001400a2b28     GLEW_1130_DEBUG:glew.obj
 0003:0001db30       __GLEW_SGIX_clipmap        00000001400a2b30     GLEW_1130_DEBUG:glew.obj
 0003:0001db31       __GLEW_SGIX_convolution_accuracy 00000001400a2b31     GLEW_1130_DEBUG:glew.obj
 0003:0001db32       __GLEW_SGIX_depth_texture  00000001400a2b32     GLEW_1130_DEBUG:glew.obj
 0003:0001db33       __GLEW_SGIX_flush_raster   00000001400a2b33     GLEW_1130_DEBUG:glew.obj
 0003:0001db34       __GLEW_SGIX_fog_offset     00000001400a2b34     GLEW_1130_DEBUG:glew.obj
 0003:0001db35       __GLEW_SGIX_fog_texture    00000001400a2b35     GLEW_1130_DEBUG:glew.obj
 0003:0001db36       __GLEW_SGIX_fragment_specular_lighting 00000001400a2b36     GLEW_1130_DEBUG:glew.obj
 0003:0001db37       __GLEW_SGIX_framezoom      00000001400a2b37     GLEW_1130_DEBUG:glew.obj
 0003:0001db38       __glewUniform3i64vNV       00000001400a2b38     GLEW_1130_DEBUG:glew.obj
 0003:0001db40       __glewUniform3ui64NV       00000001400a2b40     GLEW_1130_DEBUG:glew.obj
 0003:0001db48       __glewGetActiveSubroutineUniformName 00000001400a2b48     GLEW_1130_DEBUG:glew.obj
 0003:0001db50       __glewGetActiveSubroutineUniformiv 00000001400a2b50     GLEW_1130_DEBUG:glew.obj
 0003:0001db58       __glewUniform3ui64vNV      00000001400a2b58     GLEW_1130_DEBUG:glew.obj
 0003:0001db60       __glewGetProgramStageiv    00000001400a2b60     GLEW_1130_DEBUG:glew.obj
 0003:0001db68       __glewUniform4i64NV        00000001400a2b68     GLEW_1130_DEBUG:glew.obj
 0003:0001db70       __glewUniform4i64vNV       00000001400a2b70     GLEW_1130_DEBUG:glew.obj
 0003:0001db78       __glewGetSubroutineIndex   00000001400a2b78     GLEW_1130_DEBUG:glew.obj
 0003:0001db80       __glewUniform4ui64NV       00000001400a2b80     GLEW_1130_DEBUG:glew.obj
 0003:0001db88       __glewGetSubroutineUniformLocation 00000001400a2b88     GLEW_1130_DEBUG:glew.obj
 0003:0001db90       __glewGetUniformSubroutineuiv 00000001400a2b90     GLEW_1130_DEBUG:glew.obj
 0003:0001db98       __glewUniform4ui64vNV      00000001400a2b98     GLEW_1130_DEBUG:glew.obj
 0003:0001dba0       __glewColor3hNV            00000001400a2ba0     GLEW_1130_DEBUG:glew.obj
 0003:0001dba8       __glewUniformSubroutinesuiv 00000001400a2ba8     GLEW_1130_DEBUG:glew.obj
 0003:0001dbb0       __glewCompileShaderIncludeARB 00000001400a2bb0     GLEW_1130_DEBUG:glew.obj
 0003:0001dbb8       __GLEW_SGIX_interlace      00000001400a2bb8     GLEW_1130_DEBUG:glew.obj
 0003:0001dbb9       __GLEW_SGIX_ir_instrument1 00000001400a2bb9     GLEW_1130_DEBUG:glew.obj
 0003:0001dbba       __GLEW_SGIX_list_priority  00000001400a2bba     GLEW_1130_DEBUG:glew.obj
 0003:0001dbbb       __GLEW_SGIX_pixel_texture  00000001400a2bbb     GLEW_1130_DEBUG:glew.obj
 0003:0001dbbc       __GLEW_SGIX_pixel_texture_bits 00000001400a2bbc     GLEW_1130_DEBUG:glew.obj
 0003:0001dbbd       __GLEW_SGIX_reference_plane 00000001400a2bbd     GLEW_1130_DEBUG:glew.obj
 0003:0001dbbe       __GLEW_SGIX_resample       00000001400a2bbe     GLEW_1130_DEBUG:glew.obj
 0003:0001dbbf       __GLEW_SGIX_shadow         00000001400a2bbf     GLEW_1130_DEBUG:glew.obj
 0003:0001dbc0       __glewColor3hvNV           00000001400a2bc0     GLEW_1130_DEBUG:glew.obj
 0003:0001dbc8       __glewColor4hNV            00000001400a2bc8     GLEW_1130_DEBUG:glew.obj
 0003:0001dbd0       __glewDeleteNamedStringARB 00000001400a2bd0     GLEW_1130_DEBUG:glew.obj
 0003:0001dbd8       __glewColor4hvNV           00000001400a2bd8     GLEW_1130_DEBUG:glew.obj
 0003:0001dbe0       __glewGetNamedStringARB    00000001400a2be0     GLEW_1130_DEBUG:glew.obj
 0003:0001dbe8       __glewGetNamedStringivARB  00000001400a2be8     GLEW_1130_DEBUG:glew.obj
 0003:0001dbf0       __glewFogCoordhNV          00000001400a2bf0     GLEW_1130_DEBUG:glew.obj
 0003:0001dbf8       __glewFogCoordhvNV         00000001400a2bf8     GLEW_1130_DEBUG:glew.obj
 0003:0001dc00       __glewIsNamedStringARB     00000001400a2c00     GLEW_1130_DEBUG:glew.obj
 0003:0001dc08       __glewMultiTexCoord1hNV    00000001400a2c08     GLEW_1130_DEBUG:glew.obj
 0003:0001dc10       __glewNamedStringARB       00000001400a2c10     GLEW_1130_DEBUG:glew.obj
 0003:0001dc18       __glewMultiTexCoord1hvNV   00000001400a2c18     GLEW_1130_DEBUG:glew.obj
 0003:0001dc20       __glewBufferPageCommitmentARB 00000001400a2c20     GLEW_1130_DEBUG:glew.obj
 0003:0001dc28       __glewMultiTexCoord2hNV    00000001400a2c28     GLEW_1130_DEBUG:glew.obj
 0003:0001dc30       __glewTexPageCommitmentARB 00000001400a2c30     GLEW_1130_DEBUG:glew.obj
 0003:0001dc38       __glewMultiTexCoord2hvNV   00000001400a2c38     GLEW_1130_DEBUG:glew.obj
 0003:0001dc40       __glewTexturePageCommitmentEXT 00000001400a2c40     GLEW_1130_DEBUG:glew.obj
 0003:0001dc48       __GLEW_SGIX_shadow_ambient 00000001400a2c48     GLEW_1130_DEBUG:glew.obj
 0003:0001dc49       __GLEW_SGIX_sprite         00000001400a2c49     GLEW_1130_DEBUG:glew.obj
 0003:0001dc4a       __GLEW_SGIX_tag_sample_buffer 00000001400a2c4a     GLEW_1130_DEBUG:glew.obj
 0003:0001dc4b       __GLEW_SGIX_texture_add_env 00000001400a2c4b     GLEW_1130_DEBUG:glew.obj
 0003:0001dc4c       __GLEW_SGIX_texture_coordinate_clamp 00000001400a2c4c     GLEW_1130_DEBUG:glew.obj
 0003:0001dc4d       __GLEW_SGIX_texture_lod_bias 00000001400a2c4d     GLEW_1130_DEBUG:glew.obj
 0003:0001dc4e       __GLEW_SGIX_texture_multi_buffer 00000001400a2c4e     GLEW_1130_DEBUG:glew.obj
 0003:0001dc4f       __GLEW_SGIX_texture_range  00000001400a2c4f     GLEW_1130_DEBUG:glew.obj
 0003:0001dc50       __glewClientWaitSync       00000001400a2c50     GLEW_1130_DEBUG:glew.obj
 0003:0001dc58       __glewMultiTexCoord3hNV    00000001400a2c58     GLEW_1130_DEBUG:glew.obj
 0003:0001dc60       __glewMultiTexCoord3hvNV   00000001400a2c60     GLEW_1130_DEBUG:glew.obj
 0003:0001dc68       __glewDeleteSync           00000001400a2c68     GLEW_1130_DEBUG:glew.obj
 0003:0001dc70       __glewMultiTexCoord4hNV    00000001400a2c70     GLEW_1130_DEBUG:glew.obj
 0003:0001dc78       __glewFenceSync            00000001400a2c78     GLEW_1130_DEBUG:glew.obj
 0003:0001dc80       __glewMultiTexCoord4hvNV   00000001400a2c80     GLEW_1130_DEBUG:glew.obj
 0003:0001dc88       __glewGetInteger64v        00000001400a2c88     GLEW_1130_DEBUG:glew.obj
 0003:0001dc90       __glewGetSynciv            00000001400a2c90     GLEW_1130_DEBUG:glew.obj
 0003:0001dc98       __glewNormal3hNV           00000001400a2c98     GLEW_1130_DEBUG:glew.obj
 0003:0001dca0       __glewNormal3hvNV          00000001400a2ca0     GLEW_1130_DEBUG:glew.obj
 0003:0001dca8       __glewIsSync               00000001400a2ca8     GLEW_1130_DEBUG:glew.obj
 0003:0001dcb0       __glewSecondaryColor3hNV   00000001400a2cb0     GLEW_1130_DEBUG:glew.obj
 0003:0001dcb8       __glewWaitSync             00000001400a2cb8     GLEW_1130_DEBUG:glew.obj
 0003:0001dcc0       __GLEW_SGIX_texture_scale_bias 00000001400a2cc0     GLEW_1130_DEBUG:glew.obj
 0003:0001dcc1       __GLEW_SGIX_vertex_preclip 00000001400a2cc1     GLEW_1130_DEBUG:glew.obj
 0003:0001dcc2       __GLEW_SGIX_vertex_preclip_hint 00000001400a2cc2     GLEW_1130_DEBUG:glew.obj
 0003:0001dcc3       __GLEW_SGIX_ycrcb          00000001400a2cc3     GLEW_1130_DEBUG:glew.obj
 0003:0001dcc4       __GLEW_SGI_color_matrix    00000001400a2cc4     GLEW_1130_DEBUG:glew.obj
 0003:0001dcc5       __GLEW_SGI_color_table     00000001400a2cc5     GLEW_1130_DEBUG:glew.obj
 0003:0001dcc6       __GLEW_SGI_texture_color_table 00000001400a2cc6     GLEW_1130_DEBUG:glew.obj
 0003:0001dcc7       __GLEW_SUNX_constant_data  00000001400a2cc7     GLEW_1130_DEBUG:glew.obj
 0003:0001dcc8       __glewPatchParameterfv     00000001400a2cc8     GLEW_1130_DEBUG:glew.obj
 0003:0001dcd0       __glewSecondaryColor3hvNV  00000001400a2cd0     GLEW_1130_DEBUG:glew.obj
 0003:0001dcd8       __glewTexCoord1hNV         00000001400a2cd8     GLEW_1130_DEBUG:glew.obj
 0003:0001dce0       __glewPatchParameteri      00000001400a2ce0     GLEW_1130_DEBUG:glew.obj
 0003:0001dce8       __glewTextureBarrier       00000001400a2ce8     GLEW_1130_DEBUG:glew.obj
 0003:0001dcf0       __glewTexCoord1hvNV        00000001400a2cf0     GLEW_1130_DEBUG:glew.obj
 0003:0001dcf8       __glewTexBufferARB         00000001400a2cf8     GLEW_1130_DEBUG:glew.obj
 0003:0001dd00       __glewTexCoord2hNV         00000001400a2d00     GLEW_1130_DEBUG:glew.obj
 0003:0001dd08       __glewTexCoord2hvNV        00000001400a2d08     GLEW_1130_DEBUG:glew.obj
 0003:0001dd10       __glewTexBufferRange       00000001400a2d10     GLEW_1130_DEBUG:glew.obj
 0003:0001dd18       __glewTexCoord3hNV         00000001400a2d18     GLEW_1130_DEBUG:glew.obj
 0003:0001dd20       __glewTextureBufferRangeEXT 00000001400a2d20     GLEW_1130_DEBUG:glew.obj
 0003:0001dd28       __glewCompressedTexImage1DARB 00000001400a2d28     GLEW_1130_DEBUG:glew.obj
 0003:0001dd30       __glewTexCoord3hvNV        00000001400a2d30     GLEW_1130_DEBUG:glew.obj
 0003:0001dd38       __glewCompressedTexImage2DARB 00000001400a2d38     GLEW_1130_DEBUG:glew.obj
 0003:0001dd40       __glewTexCoord4hNV         00000001400a2d40     GLEW_1130_DEBUG:glew.obj
 0003:0001dd48       __GLEW_SUN_convolution_border_modes 00000001400a2d48     GLEW_1130_DEBUG:glew.obj
 0003:0001dd49       __GLEW_SUN_global_alpha    00000001400a2d49     GLEW_1130_DEBUG:glew.obj
 0003:0001dd4a       __GLEW_SUN_mesh_array      00000001400a2d4a     GLEW_1130_DEBUG:glew.obj
 0003:0001dd4b       __GLEW_SUN_read_video_pixels 00000001400a2d4b     GLEW_1130_DEBUG:glew.obj
 0003:0001dd4c       __GLEW_SUN_slice_accum     00000001400a2d4c     GLEW_1130_DEBUG:glew.obj
 0003:0001dd4d       __GLEW_SUN_triangle_list   00000001400a2d4d     GLEW_1130_DEBUG:glew.obj
 0003:0001dd4e       __GLEW_SUN_vertex          00000001400a2d4e     GLEW_1130_DEBUG:glew.obj
 0003:0001dd4f       __GLEW_WIN_phong_shading   00000001400a2d4f     GLEW_1130_DEBUG:glew.obj
 0003:0001dd50       __glewCompressedTexImage3DARB 00000001400a2d50     GLEW_1130_DEBUG:glew.obj
 0003:0001dd58       __glewTexCoord4hvNV        00000001400a2d58     GLEW_1130_DEBUG:glew.obj
 0003:0001dd60       __glewVertex2hNV           00000001400a2d60     GLEW_1130_DEBUG:glew.obj
 0003:0001dd68       __glewCompressedTexSubImage1DARB 00000001400a2d68     GLEW_1130_DEBUG:glew.obj
 0003:0001dd70       __glewVertex2hvNV          00000001400a2d70     GLEW_1130_DEBUG:glew.obj
 0003:0001dd78       __glewCompressedTexSubImage2DARB 00000001400a2d78     GLEW_1130_DEBUG:glew.obj
 0003:0001dd80       __glewVertex3hNV           00000001400a2d80     GLEW_1130_DEBUG:glew.obj
 0003:0001dd88       __glewCompressedTexSubImage3DARB 00000001400a2d88     GLEW_1130_DEBUG:glew.obj
 0003:0001dd90       __glewVertex3hvNV          00000001400a2d90     GLEW_1130_DEBUG:glew.obj
 0003:0001dd98       __glewGetCompressedTexImageARB 00000001400a2d98     GLEW_1130_DEBUG:glew.obj
 0003:0001dda0       __glewGetMultisamplefv     00000001400a2da0     GLEW_1130_DEBUG:glew.obj
 0003:0001dda8       __glewVertex4hNV           00000001400a2da8     GLEW_1130_DEBUG:glew.obj
 0003:0001ddb0       __glewVertex4hvNV          00000001400a2db0     GLEW_1130_DEBUG:glew.obj
 0003:0001ddb8       __glewSampleMaski          00000001400a2db8     GLEW_1130_DEBUG:glew.obj
 0003:0001ddc0       __glewVertexAttrib1hNV     00000001400a2dc0     GLEW_1130_DEBUG:glew.obj
 0003:0001ddc8       __glewTexImage2DMultisample 00000001400a2dc8     GLEW_1130_DEBUG:glew.obj
 0003:0001ddd0       __glewTexImage3DMultisample 00000001400a2dd0     GLEW_1130_DEBUG:glew.obj
 0003:0001ddd8       __glewVertexAttrib1hvNV    00000001400a2dd8     GLEW_1130_DEBUG:glew.obj
 0003:0001dde0       __GLEW_WIN_specular_fog    00000001400a2de0     GLEW_1130_DEBUG:glew.obj
 0003:0001dde1       __GLEW_WIN_swap_hint       00000001400a2de1     GLEW_1130_DEBUG:glew.obj
 0003:0001dde2       glewExperimental           00000001400a2de2     GLEW_1130_DEBUG:glew.obj
 0003:0001dde8       __glewTexStorage1D         00000001400a2de8     GLEW_1130_DEBUG:glew.obj
 0003:0001ddf0       __glewVertexAttrib2hNV     00000001400a2df0     GLEW_1130_DEBUG:glew.obj
 0003:0001ddf8       __glewVertexAttrib2hvNV    00000001400a2df8     GLEW_1130_DEBUG:glew.obj
 0003:0001de00       __glewTexStorage2D         00000001400a2e00     GLEW_1130_DEBUG:glew.obj
 0003:0001de08       __glewVertexAttrib3hNV     00000001400a2e08     GLEW_1130_DEBUG:glew.obj
 0003:0001de10       __glewTexStorage3D         00000001400a2e10     GLEW_1130_DEBUG:glew.obj
 0003:0001de18       __glewTextureStorage1DEXT  00000001400a2e18     GLEW_1130_DEBUG:glew.obj
 0003:0001de20       __glewVertexAttrib3hvNV    00000001400a2e20     GLEW_1130_DEBUG:glew.obj
 0003:0001de28       __glewVertexAttrib4hNV     00000001400a2e28     GLEW_1130_DEBUG:glew.obj
 0003:0001de30       __glewTextureStorage2DEXT  00000001400a2e30     GLEW_1130_DEBUG:glew.obj
 0003:0001de38       __glewTextureStorage3DEXT  00000001400a2e38     GLEW_1130_DEBUG:glew.obj
 0003:0001de40       __glewVertexAttrib4hvNV    00000001400a2e40     GLEW_1130_DEBUG:glew.obj
 0003:0001de48       __glewVertexAttribs1hvNV   00000001400a2e48     GLEW_1130_DEBUG:glew.obj
 0003:0001de50       __glewTexStorage2DMultisample 00000001400a2e50     GLEW_1130_DEBUG:glew.obj
 0003:0001de58       __glewVertexAttribs2hvNV   00000001400a2e58     GLEW_1130_DEBUG:glew.obj
 0003:0001de60       __glewTexStorage3DMultisample 00000001400a2e60     GLEW_1130_DEBUG:glew.obj
 0003:0001de68       __glewTextureStorage2DMultisampleEXT 00000001400a2e68     GLEW_1130_DEBUG:glew.obj
 0003:0001de70       __glewVertexAttribs3hvNV   00000001400a2e70     GLEW_1130_DEBUG:glew.obj
 0003:0001de78       __glewTextureStorage3DMultisampleEXT 00000001400a2e78     GLEW_1130_DEBUG:glew.obj
 0003:0001de80       __glewVertexAttribs4hvNV   00000001400a2e80     GLEW_1130_DEBUG:glew.obj
 0003:0001de88       __glewVertexWeighthNV      00000001400a2e88     GLEW_1130_DEBUG:glew.obj
 0003:0001de90       __glewTextureView          00000001400a2e90     GLEW_1130_DEBUG:glew.obj
 0003:0001de98       __glewVertexWeighthvNV     00000001400a2e98     GLEW_1130_DEBUG:glew.obj
 0003:0001dea0       __glewGetQueryObjecti64v   00000001400a2ea0     GLEW_1130_DEBUG:glew.obj
 0003:0001dea8       __glewGetInternalformatSampleivNV 00000001400a2ea8     GLEW_1130_DEBUG:glew.obj
 0003:0001deb0       __glewGetQueryObjectui64v  00000001400a2eb0     GLEW_1130_DEBUG:glew.obj
 0003:0001deb8       __glewQueryCounter         00000001400a2eb8     GLEW_1130_DEBUG:glew.obj
 0003:0001dec0       __glewBeginOcclusionQueryNV 00000001400a2ec0     GLEW_1130_DEBUG:glew.obj
 0003:0001dec8       __glewBindTransformFeedback 00000001400a2ec8     GLEW_1130_DEBUG:glew.obj
 0003:0001ded0       __glewDeleteOcclusionQueriesNV 00000001400a2ed0     GLEW_1130_DEBUG:glew.obj
 0003:0001ded8       __glewEndOcclusionQueryNV  00000001400a2ed8     GLEW_1130_DEBUG:glew.obj
 0003:0001dee0       __glewDeleteTransformFeedbacks 00000001400a2ee0     GLEW_1130_DEBUG:glew.obj
 0003:0001dee8       __glewGenOcclusionQueriesNV 00000001400a2ee8     GLEW_1130_DEBUG:glew.obj
 0003:0001def0       __glewDrawTransformFeedback 00000001400a2ef0     GLEW_1130_DEBUG:glew.obj
 0003:0001def8       __glewGenTransformFeedbacks 00000001400a2ef8     GLEW_1130_DEBUG:glew.obj
 0003:0001df00       __glewGetOcclusionQueryivNV 00000001400a2f00     GLEW_1130_DEBUG:glew.obj
 0003:0001df08       __glewIsTransformFeedback  00000001400a2f08     GLEW_1130_DEBUG:glew.obj
 0003:0001df10       __glewGetOcclusionQueryuivNV 00000001400a2f10     GLEW_1130_DEBUG:glew.obj
 0003:0001df18       __glewIsOcclusionQueryNV   00000001400a2f18     GLEW_1130_DEBUG:glew.obj
 0003:0001df20       __glewPauseTransformFeedback 00000001400a2f20     GLEW_1130_DEBUG:glew.obj
 0003:0001df28       __glewResumeTransformFeedback 00000001400a2f28     GLEW_1130_DEBUG:glew.obj
 0003:0001df30       __glewProgramBufferParametersIivNV 00000001400a2f30     GLEW_1130_DEBUG:glew.obj
 0003:0001df38       __glewProgramBufferParametersIuivNV 00000001400a2f38     GLEW_1130_DEBUG:glew.obj
 0003:0001df40       __glewBeginQueryIndexed    00000001400a2f40     GLEW_1130_DEBUG:glew.obj
 0003:0001df48       __glewDrawTransformFeedbackStream 00000001400a2f48     GLEW_1130_DEBUG:glew.obj
 0003:0001df50       __glewProgramBufferParametersfvNV 00000001400a2f50     GLEW_1130_DEBUG:glew.obj
 0003:0001df58       __glewCopyPathNV           00000001400a2f58     GLEW_1130_DEBUG:glew.obj
 0003:0001df60       __glewEndQueryIndexed      00000001400a2f60     GLEW_1130_DEBUG:glew.obj
 0003:0001df68       __glewCoverFillPathInstancedNV 00000001400a2f68     GLEW_1130_DEBUG:glew.obj
 0003:0001df70       __glewGetQueryIndexediv    00000001400a2f70     GLEW_1130_DEBUG:glew.obj
 0003:0001df78       __glewCoverFillPathNV      00000001400a2f78     GLEW_1130_DEBUG:glew.obj
 0003:0001df80       __glewDrawTransformFeedbackInstanced 00000001400a2f80     GLEW_1130_DEBUG:glew.obj
 0003:0001df88       __glewCoverStrokePathInstancedNV 00000001400a2f88     GLEW_1130_DEBUG:glew.obj
 0003:0001df90       __glewDrawTransformFeedbackStreamInstanced 00000001400a2f90     GLEW_1130_DEBUG:glew.obj
 0003:0001df98       __glewLoadTransposeMatrixdARB 00000001400a2f98     GLEW_1130_DEBUG:glew.obj
 0003:0001dfa0       __glewCoverStrokePathNV    00000001400a2fa0     GLEW_1130_DEBUG:glew.obj
 0003:0001dfa8       __glewLoadTransposeMatrixfARB 00000001400a2fa8     GLEW_1130_DEBUG:glew.obj
 0003:0001dfb0       __glewDeletePathsNV        00000001400a2fb0     GLEW_1130_DEBUG:glew.obj
 0003:0001dfb8       __glewGenPathsNV           00000001400a2fb8     GLEW_1130_DEBUG:glew.obj
 0003:0001dfc0       __glewMultTransposeMatrixdARB 00000001400a2fc0     GLEW_1130_DEBUG:glew.obj
 0003:0001dfc8       __glewGetPathColorGenfvNV  00000001400a2fc8     GLEW_1130_DEBUG:glew.obj
 0003:0001dfd0       __glewMultTransposeMatrixfARB 00000001400a2fd0     GLEW_1130_DEBUG:glew.obj
 0003:0001dfd8       __glewGetPathColorGenivNV  00000001400a2fd8     GLEW_1130_DEBUG:glew.obj
 0003:0001dfe0       __glewBindBufferBase       00000001400a2fe0     GLEW_1130_DEBUG:glew.obj
 0003:0001dfe8       __glewGetPathCommandsNV    00000001400a2fe8     GLEW_1130_DEBUG:glew.obj
 0003:0001dff0       __glewBindBufferRange      00000001400a2ff0     GLEW_1130_DEBUG:glew.obj
 0003:0001dff8       __glewGetActiveUniformBlockName 00000001400a2ff8     GLEW_1130_DEBUG:glew.obj
 0003:0001e000       __glewGetPathCoordsNV      00000001400a3000     GLEW_1130_DEBUG:glew.obj
 0003:0001e008       __glewGetPathDashArrayNV   00000001400a3008     GLEW_1130_DEBUG:glew.obj
 0003:0001e010       __glewGetActiveUniformBlockiv 00000001400a3010     GLEW_1130_DEBUG:glew.obj
 0003:0001e018       __glewGetActiveUniformName 00000001400a3018     GLEW_1130_DEBUG:glew.obj
 0003:0001e020       __glewGetPathLengthNV      00000001400a3020     GLEW_1130_DEBUG:glew.obj
 0003:0001e028       __glewGetActiveUniformsiv  00000001400a3028     GLEW_1130_DEBUG:glew.obj
 0003:0001e030       __glewGetPathMetricRangeNV 00000001400a3030     GLEW_1130_DEBUG:glew.obj
 0003:0001e038       __glewGetPathMetricsNV     00000001400a3038     GLEW_1130_DEBUG:glew.obj
 0003:0001e040       __glewGetIntegeri_v        00000001400a3040     GLEW_1130_DEBUG:glew.obj
 0003:0001e048       __glewGetUniformBlockIndex 00000001400a3048     GLEW_1130_DEBUG:glew.obj
 0003:0001e050       __glewGetPathParameterfvNV 00000001400a3050     GLEW_1130_DEBUG:glew.obj
 0003:0001e058       __glewGetUniformIndices    00000001400a3058     GLEW_1130_DEBUG:glew.obj
 0003:0001e060       __glewGetPathParameterivNV 00000001400a3060     GLEW_1130_DEBUG:glew.obj
 0003:0001e068       __glewUniformBlockBinding  00000001400a3068     GLEW_1130_DEBUG:glew.obj
 0003:0001e070       __glewGetPathSpacingNV     00000001400a3070     GLEW_1130_DEBUG:glew.obj
 0003:0001e078       __glewBindVertexArray      00000001400a3078     GLEW_1130_DEBUG:glew.obj
 0003:0001e080       __glewGetPathTexGenfvNV    00000001400a3080     GLEW_1130_DEBUG:glew.obj
 0003:0001e088       __glewDeleteVertexArrays   00000001400a3088     GLEW_1130_DEBUG:glew.obj
 0003:0001e090       __glewGetPathTexGenivNV    00000001400a3090     GLEW_1130_DEBUG:glew.obj
 0003:0001e098       __glewGetProgramResourcefvNV 00000001400a3098     GLEW_1130_DEBUG:glew.obj
 0003:0001e0a0       __glewGenVertexArrays      00000001400a30a0     GLEW_1130_DEBUG:glew.obj
 0003:0001e0a8       __glewIsVertexArray        00000001400a30a8     GLEW_1130_DEBUG:glew.obj
 0003:0001e0b0       __glewInterpolatePathsNV   00000001400a30b0     GLEW_1130_DEBUG:glew.obj
 0003:0001e0b8       __glewGetVertexAttribLdv   00000001400a30b8     GLEW_1130_DEBUG:glew.obj
 0003:0001e0c0       __glewIsPathNV             00000001400a30c0     GLEW_1130_DEBUG:glew.obj
 0003:0001e0c8       __glewIsPointInFillPathNV  00000001400a30c8     GLEW_1130_DEBUG:glew.obj
 0003:0001e0d0       __glewVertexAttribL1d      00000001400a30d0     GLEW_1130_DEBUG:glew.obj
 0003:0001e0d8       __glewIsPointInStrokePathNV 00000001400a30d8     GLEW_1130_DEBUG:glew.obj
 0003:0001e0e0       __glewVertexAttribL1dv     00000001400a30e0     GLEW_1130_DEBUG:glew.obj
 0003:0001e0e8       __glewMatrixLoad3x2fNV     00000001400a30e8     GLEW_1130_DEBUG:glew.obj
 0003:0001e0f0       __glewVertexAttribL2d      00000001400a30f0     GLEW_1130_DEBUG:glew.obj
 0003:0001e0f8       __glewVertexAttribL2dv     00000001400a30f8     GLEW_1130_DEBUG:glew.obj
 0003:0001e100       __glewMatrixLoad3x3fNV     00000001400a3100     GLEW_1130_DEBUG:glew.obj
 0003:0001e108       __glewMatrixLoadTranspose3x3fNV 00000001400a3108     GLEW_1130_DEBUG:glew.obj
 0003:0001e110       __glewVertexAttribL3d      00000001400a3110     GLEW_1130_DEBUG:glew.obj
 0003:0001e118       __glewMatrixMult3x2fNV     00000001400a3118     GLEW_1130_DEBUG:glew.obj
 0003:0001e120       __glewVertexAttribL3dv     00000001400a3120     GLEW_1130_DEBUG:glew.obj
 0003:0001e128       __glewMatrixMult3x3fNV     00000001400a3128     GLEW_1130_DEBUG:glew.obj
 0003:0001e130       __glewVertexAttribL4d      00000001400a3130     GLEW_1130_DEBUG:glew.obj
 0003:0001e138       __glewVertexAttribL4dv     00000001400a3138     GLEW_1130_DEBUG:glew.obj
 0003:0001e140       __glewMatrixMultTranspose3x3fNV 00000001400a3140     GLEW_1130_DEBUG:glew.obj
 0003:0001e148       __glewVertexAttribLPointer 00000001400a3148     GLEW_1130_DEBUG:glew.obj
 0003:0001e150       __glewPathColorGenNV       00000001400a3150     GLEW_1130_DEBUG:glew.obj
 0003:0001e158       __glewBindVertexBuffer     00000001400a3158     GLEW_1130_DEBUG:glew.obj
 0003:0001e160       __glewPathCommandsNV       00000001400a3160     GLEW_1130_DEBUG:glew.obj
 0003:0001e168       __glewVertexArrayBindVertexBufferEXT 00000001400a3168     GLEW_1130_DEBUG:glew.obj
 0003:0001e170       __glewPathCoordsNV         00000001400a3170     GLEW_1130_DEBUG:glew.obj
 0003:0001e178       __glewPathCoverDepthFuncNV 00000001400a3178     GLEW_1130_DEBUG:glew.obj
 0003:0001e180       __glewVertexArrayVertexAttribBindingEXT 00000001400a3180     GLEW_1130_DEBUG:glew.obj
 0003:0001e188       __glewPathDashArrayNV      00000001400a3188     GLEW_1130_DEBUG:glew.obj
 0003:0001e190       __glewVertexArrayVertexAttribFormatEXT 00000001400a3190     GLEW_1130_DEBUG:glew.obj
 0003:0001e198       __glewPathFogGenNV         00000001400a3198     GLEW_1130_DEBUG:glew.obj
 0003:0001e1a0       __glewVertexArrayVertexAttribIFormatEXT 00000001400a31a0     GLEW_1130_DEBUG:glew.obj
 0003:0001e1a8       __glewVertexArrayVertexAttribLFormatEXT 00000001400a31a8     GLEW_1130_DEBUG:glew.obj
 0003:0001e1b0       __glewPathGlyphIndexArrayNV 00000001400a31b0     GLEW_1130_DEBUG:glew.obj
 0003:0001e1b8       __glewVertexArrayVertexBindingDivisorEXT 00000001400a31b8     GLEW_1130_DEBUG:glew.obj
 0003:0001e1c0       __glewPathGlyphIndexRangeNV 00000001400a31c0     GLEW_1130_DEBUG:glew.obj
 0003:0001e1c8       __glewPathGlyphRangeNV     00000001400a31c8     GLEW_1130_DEBUG:glew.obj
 0003:0001e1d0       __glewVertexAttribBinding  00000001400a31d0     GLEW_1130_DEBUG:glew.obj
 0003:0001e1d8       __glewPathGlyphsNV         00000001400a31d8     GLEW_1130_DEBUG:glew.obj
 0003:0001e1e0       __glewVertexAttribFormat   00000001400a31e0     GLEW_1130_DEBUG:glew.obj
 0003:0001e1e8       __glewVertexAttribIFormat  00000001400a31e8     GLEW_1130_DEBUG:glew.obj
 0003:0001e1f0       __glewPathMemoryGlyphIndexArrayNV 00000001400a31f0     GLEW_1130_DEBUG:glew.obj
 0003:0001e1f8       __glewVertexAttribLFormat  00000001400a31f8     GLEW_1130_DEBUG:glew.obj
 0003:0001e200       __glewPathParameterfNV     00000001400a3200     GLEW_1130_DEBUG:glew.obj
 0003:0001e208       __glewPathParameterfvNV    00000001400a3208     GLEW_1130_DEBUG:glew.obj
 0003:0001e210       __glewVertexBindingDivisor 00000001400a3210     GLEW_1130_DEBUG:glew.obj
 0003:0001e218       __glewVertexBlendARB       00000001400a3218     GLEW_1130_DEBUG:glew.obj
 0003:0001e220       __glewPathParameteriNV     00000001400a3220     GLEW_1130_DEBUG:glew.obj
 0003:0001e228       __glewWeightPointerARB     00000001400a3228     GLEW_1130_DEBUG:glew.obj
 0003:0001e230       __glewPathParameterivNV    00000001400a3230     GLEW_1130_DEBUG:glew.obj
 0003:0001e238       __glewWeightbvARB          00000001400a3238     GLEW_1130_DEBUG:glew.obj
 0003:0001e240       __glewPathStencilDepthOffsetNV 00000001400a3240     GLEW_1130_DEBUG:glew.obj
 0003:0001e248       __glewPathStencilFuncNV    00000001400a3248     GLEW_1130_DEBUG:glew.obj
 0003:0001e250       __glewWeightdvARB          00000001400a3250     GLEW_1130_DEBUG:glew.obj
 0003:0001e258       __glewPathStringNV         00000001400a3258     GLEW_1130_DEBUG:glew.obj
 0003:0001e260       __glewWeightfvARB          00000001400a3260     GLEW_1130_DEBUG:glew.obj
 0003:0001e268       __glewWeightivARB          00000001400a3268     GLEW_1130_DEBUG:glew.obj
 0003:0001e270       __glewPathSubCommandsNV    00000001400a3270     GLEW_1130_DEBUG:glew.obj
 0003:0001e278       __glewWeightsvARB          00000001400a3278     GLEW_1130_DEBUG:glew.obj
 0003:0001e280       __glewPathSubCoordsNV      00000001400a3280     GLEW_1130_DEBUG:glew.obj
 0003:0001e288       __glewPathTexGenNV         00000001400a3288     GLEW_1130_DEBUG:glew.obj
 0003:0001e290       __glewWeightubvARB         00000001400a3290     GLEW_1130_DEBUG:glew.obj
 0003:0001e298       __glewWeightuivARB         00000001400a3298     GLEW_1130_DEBUG:glew.obj
 0003:0001e2a0       __glewPointAlongPathNV     00000001400a32a0     GLEW_1130_DEBUG:glew.obj
 0003:0001e2a8       __glewProgramPathFragmentInputGenNV 00000001400a32a8     GLEW_1130_DEBUG:glew.obj
 0003:0001e2b0       __glewWeightusvARB         00000001400a32b0     GLEW_1130_DEBUG:glew.obj
 0003:0001e2b8       __glewBindBufferARB        00000001400a32b8     GLEW_1130_DEBUG:glew.obj
 0003:0001e2c0       __glewStencilFillPathInstancedNV 00000001400a32c0     GLEW_1130_DEBUG:glew.obj
 0003:0001e2c8       __glewBufferDataARB        00000001400a32c8     GLEW_1130_DEBUG:glew.obj
 0003:0001e2d0       __glewStencilFillPathNV    00000001400a32d0     GLEW_1130_DEBUG:glew.obj
 0003:0001e2d8       __glewBufferSubDataARB     00000001400a32d8     GLEW_1130_DEBUG:glew.obj
 0003:0001e2e0       __glewStencilStrokePathInstancedNV 00000001400a32e0     GLEW_1130_DEBUG:glew.obj
 0003:0001e2e8       __glewDeleteBuffersARB     00000001400a32e8     GLEW_1130_DEBUG:glew.obj
 0003:0001e2f0       __glewStencilStrokePathNV  00000001400a32f0     GLEW_1130_DEBUG:glew.obj
 0003:0001e2f8       __glewGenBuffersARB        00000001400a32f8     GLEW_1130_DEBUG:glew.obj
 0003:0001e300       __glewStencilThenCoverFillPathInstancedNV 00000001400a3300     GLEW_1130_DEBUG:glew.obj
 0003:0001e310       _glfwInitialized           00000001400a3310     glfw3_DEBUG:init.obj
 0003:0001e320       __scrt_current_native_startup_state 00000001400a3320     MSVCRT:utility.obj
 0003:0001e328       __scrt_native_startup_lock 00000001400a3328     MSVCRT:utility.obj
 0003:0001e368       _tls_index                 00000001400a3368     MSVCRT:tlssup.obj
 0003:0001e8e0       __favor                    00000001400a38e0     MSVCRT:cpu_disp.obj
 0003:0001e8e4       __scrt_debugger_hook_flag  00000001400a38e4     MSVCRT:utility_desktop.obj
 0003:0001e8f0       ?__type_info_root_node@@3U__type_info_node@@A 00000001400a38f0     MSVCRT:tncleanup.obj
 0003:0001e920       _glfw                      00000001400a3920     <common>
 0003:0001f328       __dyn_tls_dtor_callback    00000001400a4328     <common>
 0003:0001f330       __dyn_tls_init_callback    00000001400a4330     <common>

 entry point at        0001:00077264

 Static symbols

 0000:fff56000       .debug$S                   0000000140000000     msvcprt:MSVCP140.dll
 0000:fff56000       .debug$S                   0000000140000000     msvcprt:MSVCP140.dll
 0000:fff56000       .debug$S                   0000000140000000     msvcprt:MSVCP140.dll
 0000:fff56000       .debug$S                   0000000140000000     msvcprt:MSVCP140.dll
 0000:fff56000       .debug$S                   0000000140000000     msvcprt:MSVCP140.dll
 0000:fff56000       .debug$S                   0000000140000000     msvcprt:MSVCP140.dll
 0000:fff56000       .debug$S                   0000000140000000     msvcprt:MSVCP140.dll
 0000:fff56000       .debug$S                   0000000140000000     msvcprt:MSVCP140.dll
 0000:fff56000       .debug$S                   0000000140000000     msvcprt:MSVCP140.dll
 0000:fff56000       .debug$S                   0000000140000000     msvcprt:MSVCP140.dll
 0000:fff56000       .debug$S                   0000000140000000     msvcprt:MSVCP140.dll
 0000:fff56000       .debug$S                   0000000140000000     msvcprt:MSVCP140.dll
 0000:fff56000       .debug$S                   0000000140000000     msvcprt:MSVCP140.dll
 0000:fff56000       .debug$S                   0000000140000000     msvcprt:MSVCP140.dll
 0000:fff56000       .debug$S                   0000000140000000     msvcprt:MSVCP140.dll
 0000:fff56000       .debug$S                   0000000140000000     msvcprt:MSVCP140.dll
 0000:fff56000       .debug$S                   0000000140000000     msvcprt:MSVCP140.dll
 0000:fff56000       .debug$S                   0000000140000000     msvcprt:MSVCP140.dll
 0000:fff56000       .debug$S                   0000000140000000     msvcprt:MSVCP140.dll
 0000:fff56000       .debug$S                   0000000140000000     msvcprt:MSVCP140.dll
 0000:fff56000       .debug$S                   0000000140000000     msvcprt:MSVCP140.dll
 0000:fff56000       .debug$S                   0000000140000000     msvcprt:MSVCP140.dll
 0000:fff56000       .debug$S                   0000000140000000     msvcprt:MSVCP140.dll
 0000:fff56000       .debug$S                   0000000140000000     msvcprt:MSVCP140.dll
 0000:fff56000       .debug$S                   0000000140000000     msvcprt:MSVCP140.dll
 0000:fff56000       .debug$S                   0000000140000000     msvcprt:MSVCP140.dll
 0000:fff56000       .debug$S                   0000000140000000     msvcprt:MSVCP140.dll
 0000:fff56000       .debug$S                   0000000140000000     msvcprt:MSVCP140.dll
 0000:fff56000       .debug$S                   0000000140000000     msvcprt:MSVCP140.dll
 0000:fff56000       .debug$S                   0000000140000000     msvcprt:MSVCP140.dll
 0000:fff56000       .debug$S                   0000000140000000     msvcprt:MSVCP140.dll
 0000:fff56000       .debug$S                   0000000140000000     msvcprt:MSVCP140.dll
 0000:fff56000       .debug$S                   0000000140000000     msvcprt:MSVCP140.dll
 0000:fff56000       .debug$S                   0000000140000000     msvcprt:MSVCP140.dll
 0000:fff56000       .debug$S                   0000000140000000     msvcprt:MSVCP140.dll
 0000:fff56000       .debug$S                   0000000140000000     msvcprt:MSVCP140.dll
 0000:fff56000       .debug$S                   0000000140000000     msvcprt:MSVCP140.dll
 0000:fff56000       .debug$S                   0000000140000000     msvcprt:MSVCP140.dll
 0000:fff56000       .debug$S                   0000000140000000     msvcprt:MSVCP140.dll
 0000:fff56000       .debug$S                   0000000140000000     msvcprt:MSVCP140.dll
 0000:fff56000       .debug$S                   0000000140000000     msvcprt:MSVCP140.dll
 0000:fff56000       .debug$S                   0000000140000000     msvcprt:MSVCP140.dll
 0000:fff56000       .debug$S                   0000000140000000     msvcprt:MSVCP140.dll
 0000:fff56000       .debug$S                   0000000140000000     msvcprt:MSVCP140.dll
 0000:fff56000       .debug$S                   0000000140000000     msvcprt:MSVCP140.dll
 0000:fff56000       .debug$S                   0000000140000000     msvcprt:MSVCP140.dll
 0000:fff56000       .debug$S                   0000000140000000     vcruntime:VCRUNTIME140.dll
 0000:fff56000       .debug$S                   0000000140000000     vcruntime:VCRUNTIME140.dll
 0000:fff56000       .debug$S                   0000000140000000     vcruntime:VCRUNTIME140.dll
 0000:fff56000       .debug$S                   0000000140000000     vcruntime:VCRUNTIME140.dll
 0000:fff56000       .debug$S                   0000000140000000     vcruntime:VCRUNTIME140.dll
 0000:fff56000       .debug$S                   0000000140000000     vcruntime:VCRUNTIME140.dll
 0000:fff56000       .debug$S                   0000000140000000     vcruntime:VCRUNTIME140.dll
 0000:fff56000       .debug$S                   0000000140000000     vcruntime:VCRUNTIME140.dll
 0000:fff56000       .debug$S                   0000000140000000     vcruntime:VCRUNTIME140.dll
 0000:fff56000       .debug$S                   0000000140000000     vcruntime:VCRUNTIME140.dll
 0000:fff56000       .debug$S                   0000000140000000     vcruntime:VCRUNTIME140.dll
 0000:fff56000       .debug$S                   0000000140000000     vcruntime:VCRUNTIME140.dll
 0000:fff56000       .debug$S                   0000000140000000     vcruntime:VCRUNTIME140.dll
 0000:fff56000       .debug$S                   0000000140000000     vcruntime:VCRUNTIME140.dll
 0000:fff56000       .debug$S                   0000000140000000     vcruntime:VCRUNTIME140.dll
 0000:fff56000       .debug$S                   0000000140000000     vcruntime:VCRUNTIME140_1.dll
 0000:fff56000       .debug$S                   0000000140000000     ucrt:api-ms-win-crt-convert-l1-1-0.dll
 0000:fff56000       .debug$S                   0000000140000000     ucrt:api-ms-win-crt-filesystem-l1-1-0.dll
 0000:fff56000       .debug$S                   0000000140000000     ucrt:api-ms-win-crt-filesystem-l1-1-0.dll
 0000:fff56000       .debug$S                   0000000140000000     ucrt:api-ms-win-crt-heap-l1-1-0.dll
 0000:fff56000       .debug$S                   0000000140000000     ucrt:api-ms-win-crt-heap-l1-1-0.dll
 0000:fff56000       .debug$S                   0000000140000000     ucrt:api-ms-win-crt-heap-l1-1-0.dll
 0000:fff56000       .debug$S                   0000000140000000     ucrt:api-ms-win-crt-heap-l1-1-0.dll
 0000:fff56000       .debug$S                   0000000140000000     ucrt:api-ms-win-crt-heap-l1-1-0.dll
 0000:fff56000       .debug$S                   0000000140000000     ucrt:api-ms-win-crt-heap-l1-1-0.dll
 0000:fff56000       .debug$S                   0000000140000000     ucrt:api-ms-win-crt-locale-l1-1-0.dll
 0000:fff56000       .debug$S                   0000000140000000     ucrt:api-ms-win-crt-math-l1-1-0.dll
 0000:fff56000       .debug$S                   0000000140000000     ucrt:api-ms-win-crt-math-l1-1-0.dll
 0000:fff56000       .debug$S                   0000000140000000     ucrt:api-ms-win-crt-math-l1-1-0.dll
 0000:fff56000       .debug$S                   0000000140000000     ucrt:api-ms-win-crt-math-l1-1-0.dll
 0000:fff56000       .debug$S                   0000000140000000     ucrt:api-ms-win-crt-math-l1-1-0.dll
 0000:fff56000       .debug$S                   0000000140000000     ucrt:api-ms-win-crt-math-l1-1-0.dll
 0000:fff56000       .debug$S                   0000000140000000     ucrt:api-ms-win-crt-math-l1-1-0.dll
 0000:fff56000       .debug$S                   0000000140000000     ucrt:api-ms-win-crt-math-l1-1-0.dll
 0000:fff56000       .debug$S                   0000000140000000     ucrt:api-ms-win-crt-runtime-l1-1-0.dll
 0000:fff56000       .debug$S                   0000000140000000     ucrt:api-ms-win-crt-runtime-l1-1-0.dll
 0000:fff56000       .debug$S                   0000000140000000     ucrt:api-ms-win-crt-runtime-l1-1-0.dll
 0000:fff56000       .debug$S                   0000000140000000     ucrt:api-ms-win-crt-runtime-l1-1-0.dll
 0000:fff56000       .debug$S                   0000000140000000     ucrt:api-ms-win-crt-runtime-l1-1-0.dll
 0000:fff56000       .debug$S                   0000000140000000     ucrt:api-ms-win-crt-runtime-l1-1-0.dll
 0000:fff56000       .debug$S                   0000000140000000     ucrt:api-ms-win-crt-runtime-l1-1-0.dll
 0000:fff56000       .debug$S                   0000000140000000     ucrt:api-ms-win-crt-runtime-l1-1-0.dll
 0000:fff56000       .debug$S                   0000000140000000     ucrt:api-ms-win-crt-runtime-l1-1-0.dll
 0000:fff56000       .debug$S                   0000000140000000     ucrt:api-ms-win-crt-runtime-l1-1-0.dll
 0000:fff56000       .debug$S                   0000000140000000     ucrt:api-ms-win-crt-runtime-l1-1-0.dll
 0000:fff56000       .debug$S                   0000000140000000     ucrt:api-ms-win-crt-runtime-l1-1-0.dll
 0000:fff56000       .debug$S                   0000000140000000     ucrt:api-ms-win-crt-runtime-l1-1-0.dll
 0000:fff56000       .debug$S                   0000000140000000     ucrt:api-ms-win-crt-runtime-l1-1-0.dll
 0000:fff56000       .debug$S                   0000000140000000     ucrt:api-ms-win-crt-runtime-l1-1-0.dll
 0000:fff56000       .debug$S                   0000000140000000     ucrt:api-ms-win-crt-runtime-l1-1-0.dll
 0000:fff56000       .debug$S                   0000000140000000     ucrt:api-ms-win-crt-runtime-l1-1-0.dll
 0000:fff56000       .debug$S                   0000000140000000     ucrt:api-ms-win-crt-runtime-l1-1-0.dll
 0000:fff56000       .debug$S                   0000000140000000     ucrt:api-ms-win-crt-runtime-l1-1-0.dll
 0000:fff56000       .debug$S                   0000000140000000     ucrt:api-ms-win-crt-runtime-l1-1-0.dll
 0000:fff56000       .debug$S                   0000000140000000     ucrt:api-ms-win-crt-runtime-l1-1-0.dll
 0000:fff56000       .debug$S                   0000000140000000     ucrt:api-ms-win-crt-runtime-l1-1-0.dll
 0000:fff56000       .debug$S                   0000000140000000     ucrt:api-ms-win-crt-runtime-l1-1-0.dll
 0000:fff56000       .debug$S                   0000000140000000     ucrt:api-ms-win-crt-stdio-l1-1-0.dll
 0000:fff56000       .debug$S                   0000000140000000     ucrt:api-ms-win-crt-stdio-l1-1-0.dll
 0000:fff56000       .debug$S                   0000000140000000     ucrt:api-ms-win-crt-stdio-l1-1-0.dll
 0000:fff56000       .debug$S                   0000000140000000     ucrt:api-ms-win-crt-stdio-l1-1-0.dll
 0000:fff56000       .debug$S                   0000000140000000     ucrt:api-ms-win-crt-stdio-l1-1-0.dll
